; ModuleID = 'emcc-0-basebc.bc'
target datalayout = "e-i1:8:8-i8:8:8-i16:16:16-i32:32:32-i64:64:64-f32:32:32-f64:64:64-p:32:32:32-v128:32:128-n32-S128"
target triple = "asmjs-unknown-emscripten"

; Tests i24 constantExprs nested heavily

%struct.S0 = type { i16, i8, i32 }
%struct.malloc_state = type { i32, i32, i32, i32, i8*, %struct.malloc_chunk*, %struct.malloc_chunk*, i32, i32, i32, [66 x %struct.malloc_chunk*], [32 x %struct.malloc_tree_chunk*], i32, i32, i32, i32, %struct.malloc_segment, i8*, i32 }
%struct.malloc_chunk = type { i32, i32, %struct.malloc_chunk*, %struct.malloc_chunk* }
%struct.malloc_tree_chunk = type { i32, i32, %struct.malloc_tree_chunk*, %struct.malloc_tree_chunk*, [2 x %struct.malloc_tree_chunk*], %struct.malloc_tree_chunk*, i32 }
%struct.malloc_segment = type { i8*, i32, %struct.malloc_segment*, i32 }
%struct.malloc_params = type { i32, i32, i32, i32, i32, i32 }
%struct._IO_FILE = type { i32, i8*, i8*, i32 (%struct._IO_FILE*)*, i8*, i8*, i8*, i8*, i32 (%struct._IO_FILE*, i8*, i32)*, i32 (%struct._IO_FILE*, i8*, i32)*, i32 (%struct._IO_FILE*, i32, i32)*, i8*, i32, %struct._IO_FILE*, %struct._IO_FILE*, i32, i32, i32, i16, i8, i8, i32, i32, i8*, i32, i8*, i8*, i8*, i32, i32 }
%"struct.std::nothrow_t" = type { i8 }
%"class.std::bad_alloc" = type { %"class.std::exception" }
%"class.std::exception" = type { i32 (...)** }
%"class.std::bad_array_new_length" = type { %"class.std::bad_alloc" }
%"class.std::bad_array_length" = type { %"class.std::bad_alloc" }
%struct.__locale_struct = type opaque
%struct.__locale_struct.0 = type opaque
%struct.__locale_struct.1 = type opaque
%union.U1 = type { i8* }
%struct.mallinfo = type { i32, i32, i32, i32, i32, i32, i32, i32, i32, i32 }
%struct._IO_FILE.3 = type { i32, i8*, i8*, {}*, i8*, i8*, i8*, i8*, i32 (%struct._IO_FILE.3*, i8*, i32)*, i32 (%struct._IO_FILE.3*, i8*, i32)*, i32 (%struct._IO_FILE.3*, i32, i32)*, i8*, i32, %struct._IO_FILE.3*, %struct._IO_FILE.3*, i32, i32, i32, i16, i8, i8, i32, i32, i8*, i32, i8*, i8*, i8*, i32, i32 }
%struct._IO_FILE.4 = type { i32, i8*, i8*, {}*, i8*, i8*, i8*, i8*, i32 (%struct._IO_FILE.4*, i8*, i32)*, i32 (%struct._IO_FILE.4*, i8*, i32)*, i32 (%struct._IO_FILE.4*, i32, i32)*, i8*, i32, %struct._IO_FILE.4*, %struct._IO_FILE.4*, i32, i32, i32, i16, i8, i8, i32, i32, i8*, i32, i8*, i8*, i8*, i32, i32 }

@.str = private unnamed_addr constant [2 x i8] c"1\00", align 1
@_ZL3g_2 = internal global i32 -8, align 4
@.str1 = private unnamed_addr constant [4 x i8] c"g_2\00", align 1
@_ZL4g_52 = internal global [4 x [6 x [6 x i8]]] [[6 x [6 x i8]] [[6 x i8] c"\00\02Q\07\07Q", [6 x i8] c"\09\09\8F\01\00\00", [6 x i8] c"\FFO\09\07\00\8F", [6 x i8] c"\D1\FF\09\02\09\00", [6 x i8] c"\FD\02\8FE\FFQ", [6 x i8] c"E\FFQ\01\D1\D1"], [6 x [6 x i8]] [[6 x i8] c"EOOE\FD\8F", [6 x i8] c"\FD\09\01\02E\D1", [6 x i8] c"\D1\02M\07EQ", [6 x i8] c"\FF\09\01\01\FD\00", [6 x i8] c"\09O\02\07\D1\8F", [6 x i8] c"\00\FF\02\02\FF\00"], [6 x [6 x i8]] [[6 x i8] c"\00\02\01E\09Q", [6 x i8] c"\07\FFM\01\00\D1", [6 x i8] c"\07O\01E\00\8F", [6 x i8] c"\00\09O\02\07\D1", [6 x i8] c"\00\02Q\07\07Q", [6 x i8] c"\09\09\8F\01\00\00"], [6 x [6 x i8]] [[6 x i8] c"\FFO\09\07\00\8F", [6 x i8] c"\D1\FF\09\02\09\00", [6 x i8] c"\FD\02\8FE\FFQ", [6 x i8] c"E\FFQ\01\D1\D1", [6 x i8] c"EOOE\FD\8F", [6 x i8] c"\FD\09\01\02E\D1"]], align 1
@.str2 = private unnamed_addr constant [14 x i8] c"g_52[i][j][k]\00", align 1
@.str3 = private unnamed_addr constant [22 x i8] c"index = [%d][%d][%d]\0A\00", align 1
@_ZL4g_53 = internal global i32 -1550080695, align 4
@.str4 = private unnamed_addr constant [5 x i8] c"g_53\00", align 1
@.str5 = private unnamed_addr constant [8 x i8] c"g_74.f0\00", align 1
@.str6 = private unnamed_addr constant [8 x i8] c"g_74.f4\00", align 1
@_ZL4g_77 = internal global i16 1, align 2
@.str7 = private unnamed_addr constant [5 x i8] c"g_77\00", align 1
@_ZL4g_79 = internal global i16 -1, align 2
@.str8 = private unnamed_addr constant [5 x i8] c"g_79\00", align 1
@_ZL4g_82 = internal global i16 -4597, align 2
@.str9 = private unnamed_addr constant [5 x i8] c"g_82\00", align 1
@_ZL4g_83 = internal global %struct.S0 { i16 -20724, i8 -72, i32 1 }, align 8
@.str10 = private unnamed_addr constant [8 x i8] c"g_83.f0\00", align 1
@.str11 = private unnamed_addr constant [8 x i8] c"g_83.f1\00", align 1
@.str12 = private unnamed_addr constant [8 x i8] c"g_83.f2\00", align 1
@_ZL4g_93 = internal global i32 -911546352, align 4
@.str13 = private unnamed_addr constant [5 x i8] c"g_93\00", align 1
@_ZL5g_103 = internal global i16 -1, align 2
@.str14 = private unnamed_addr constant [6 x i8] c"g_103\00", align 1
@_ZL5g_126 = internal global i8 6, align 1
@.str15 = private unnamed_addr constant [6 x i8] c"g_126\00", align 1
@_ZL5g_132 = internal global i32 -782244254, align 4
@.str16 = private unnamed_addr constant [6 x i8] c"g_132\00", align 1
@_ZL5g_133 = internal unnamed_addr global i8 -17, align 1
@.str17 = private unnamed_addr constant [6 x i8] c"g_133\00", align 1
@_ZL5g_135 = internal global i32 -3, align 4
@.str18 = private unnamed_addr constant [6 x i8] c"g_135\00", align 1
@_ZL5g_136 = internal global i8 -1, align 1
@.str19 = private unnamed_addr constant [6 x i8] c"g_136\00", align 1
@_ZL5g_138 = internal global i32 1083335064, align 4
@.str20 = private unnamed_addr constant [6 x i8] c"g_138\00", align 1
@_ZL5g_162 = internal global i16 17495, align 2
@.str21 = private unnamed_addr constant [6 x i8] c"g_162\00", align 1
@_ZL5g_168 = internal global i16 8, align 2
@.str22 = private unnamed_addr constant [6 x i8] c"g_168\00", align 1
@_ZL5g_170 = internal global i8 -109, align 1
@.str23 = private unnamed_addr constant [6 x i8] c"g_170\00", align 1
@_ZL5g_171 = internal global [8 x i8] c"\FF\FF\FF\FF\FF\FF\FF\FF", align 1
@.str24 = private unnamed_addr constant [9 x i8] c"g_171[i]\00", align 1
@.str25 = private unnamed_addr constant [14 x i8] c"index = [%d]\0A\00", align 1
@_ZL5g_172 = internal global i16 0, align 2
@.str26 = private unnamed_addr constant [6 x i8] c"g_172\00", align 1
@_ZL5g_257 = internal global i32 2067456055, align 4
@.str27 = private unnamed_addr constant [6 x i8] c"g_257\00", align 1
@_ZL5g_304 = internal global i8 1, align 1
@.str28 = private unnamed_addr constant [6 x i8] c"g_304\00", align 1
@_ZL5g_308 = internal global i16 -3, align 2
@.str29 = private unnamed_addr constant [6 x i8] c"g_308\00", align 1
@_ZL5g_361 = internal global i16 1, align 2
@.str30 = private unnamed_addr constant [6 x i8] c"g_361\00", align 1
@_ZL5g_400 = internal global i32 711639049, align 4
@.str31 = private unnamed_addr constant [6 x i8] c"g_400\00", align 1
@.str32 = private unnamed_addr constant [6 x i8] c"g_428\00", align 1
@_ZL5g_471 = internal global %struct.S0 { i16 0, i8 6, i32 1033957816 }, align 8
@.str33 = private unnamed_addr constant [9 x i8] c"g_471.f0\00", align 1
@.str34 = private unnamed_addr constant [9 x i8] c"g_471.f1\00", align 1
@.str35 = private unnamed_addr constant [9 x i8] c"g_471.f2\00", align 1
@_ZL5g_546 = internal global i32 1, align 4
@.str36 = private unnamed_addr constant [6 x i8] c"g_546\00", align 1
@.str37 = private unnamed_addr constant [6 x i8] c"g_687\00", align 1
@.str38 = private unnamed_addr constant [6 x i8] c"g_711\00", align 1
@_ZL5g_935 = internal unnamed_addr constant [10 x i32] [i32 -533036994, i32 -533036994, i32 1950933783, i32 -533036994, i32 -533036994, i32 1950933783, i32 -533036994, i32 -533036994, i32 1950933783, i32 -533036994], align 4
@.str39 = private unnamed_addr constant [9 x i8] c"g_935[i]\00", align 1
@_ZL6g_1010 = internal global i8 1, align 1
@.str40 = private unnamed_addr constant [7 x i8] c"g_1010\00", align 1
@_ZL6g_1025 = internal unnamed_addr global i8 -7, align 1
@.str41 = private unnamed_addr constant [7 x i8] c"g_1025\00", align 1
@_ZL6g_1136 = internal unnamed_addr global i8 -108, align 1
@.str42 = private unnamed_addr constant [7 x i8] c"g_1136\00", align 1
@.str43 = private unnamed_addr constant [7 x i8] c"g_1165\00", align 1
@.str44 = private unnamed_addr constant [7 x i8] c"g_1176\00", align 1
@_ZL6g_1198 = internal global i32 1, align 4
@.str45 = private unnamed_addr constant [7 x i8] c"g_1198\00", align 1
@_ZL6g_1442 = internal unnamed_addr constant [8 x i32] [i32 -3, i32 -1424736723, i32 -1424736723, i32 -3, i32 -1424736723, i32 -1424736723, i32 -3, i32 -1424736723], align 4
@.str46 = private unnamed_addr constant [10 x i8] c"g_1442[i]\00", align 1
@_ZL13crc32_context = internal unnamed_addr global i32 -1, align 4
@.str47 = private unnamed_addr constant [15 x i8] c"checksum = %X\0A\00", align 1
@_ZL4g_74 = internal global { i8, [3 x i8] } { i8 -4, [3 x i8] undef }, align 4
@.str48 = private unnamed_addr constant [36 x i8] c"...checksum after hashing %s : %lX\0A\00", align 1
@_ZL9crc32_tab = internal unnamed_addr global [256 x i32] zeroinitializer, align 4
@_ZZL6func_1vE6l_1011 = private unnamed_addr constant [7 x [1 x [7 x %struct.S0]]] [[1 x [7 x %struct.S0]] [[7 x %struct.S0] [%struct.S0 { i16 7185, i8 -3, i32 -2 }, %struct.S0 { i16 -25965, i8 -51, i32 7 }, %struct.S0 { i16 7185, i8 -3, i32 -2 }, %struct.S0 { i16 -4, i8 -5, i32 879602046 }, %struct.S0 { i16 32067, i8 -3, i32 -1554043524 }, %struct.S0 { i16 32067, i8 -3, i32 -1554043524 }, %struct.S0 { i16 -4, i8 -5, i32 879602046 }]], [1 x [7 x %struct.S0]] [[7 x %struct.S0] [%struct.S0 { i16 9338, i8 45, i32 -5 }, %struct.S0 { i16 -9, i8 50, i32 -865011421 }, %struct.S0 { i16 9338, i8 45, i32 -5 }, %struct.S0 { i16 10188, i8 44, i32 -40550910 }, %struct.S0 { i16 -15215, i8 -5, i32 -963383367 }, %struct.S0 { i16 -15215, i8 -5, i32 -963383367 }, %struct.S0 { i16 10188, i8 44, i32 -40550910 }]], [1 x [7 x %struct.S0]] [[7 x %struct.S0] [%struct.S0 { i16 7185, i8 -3, i32 -2 }, %struct.S0 { i16 -25965, i8 -51, i32 7 }, %struct.S0 { i16 7185, i8 -3, i32 -2 }, %struct.S0 { i16 -4, i8 -5, i32 879602046 }, %struct.S0 { i16 32067, i8 -3, i32 -1554043524 }, %struct.S0 { i16 32067, i8 -3, i32 -1554043524 }, %struct.S0 { i16 -4, i8 -5, i32 879602046 }]], [1 x [7 x %struct.S0]] [[7 x %struct.S0] [%struct.S0 { i16 9338, i8 45, i32 -5 }, %struct.S0 { i16 -9, i8 50, i32 -865011421 }, %struct.S0 { i16 9338, i8 45, i32 -5 }, %struct.S0 { i16 10188, i8 44, i32 -40550910 }, %struct.S0 { i16 -15215, i8 -5, i32 -963383367 }, %struct.S0 { i16 -15215, i8 -5, i32 -963383367 }, %struct.S0 { i16 10188, i8 44, i32 -40550910 }]], [1 x [7 x %struct.S0]] [[7 x %struct.S0] [%struct.S0 { i16 7185, i8 -3, i32 -2 }, %struct.S0 { i16 -25965, i8 -51, i32 7 }, %struct.S0 { i16 7185, i8 -3, i32 -2 }, %struct.S0 { i16 -4, i8 -5, i32 879602046 }, %struct.S0 { i16 32067, i8 -3, i32 -1554043524 }, %struct.S0 { i16 32067, i8 -3, i32 -1554043524 }, %struct.S0 { i16 -4, i8 -5, i32 879602046 }]], [1 x [7 x %struct.S0]] [[7 x %struct.S0] [%struct.S0 { i16 9338, i8 45, i32 -5 }, %struct.S0 { i16 -9, i8 50, i32 -865011421 }, %struct.S0 { i16 9338, i8 45, i32 -5 }, %struct.S0 { i16 10188, i8 44, i32 -40550910 }, %struct.S0 { i16 -15215, i8 -5, i32 -963383367 }, %struct.S0 { i16 -15215, i8 -5, i32 -963383367 }, %struct.S0 { i16 10188, i8 44, i32 -40550910 }]], [1 x [7 x %struct.S0]] [[7 x %struct.S0] [%struct.S0 { i16 7185, i8 -3, i32 -2 }, %struct.S0 { i16 -25965, i8 -51, i32 7 }, %struct.S0 { i16 7185, i8 -3, i32 -2 }, %struct.S0 { i16 -4, i8 -5, i32 879602046 }, %struct.S0 { i16 32067, i8 -3, i32 -1554043524 }, %struct.S0 { i16 -25965, i8 -51, i32 7 }, %struct.S0 { i16 32067, i8 -3, i32 -1554043524 }]]], align 8
@_ZL5g_984 = internal global i8** @_ZL5g_985, align 4
@_ZZL6func_1vE6l_1499 = private unnamed_addr constant [9 x i8] c"\98\98\98\98\98\98\98\98\98", align 1
@_ZZL6func_1vE6l_1006 = private unnamed_addr constant [10 x [7 x [3 x i32]]] [[7 x [3 x i32]] [[3 x i32] [i32 1841884517, i32 -1, i32 -1613798643], [3 x i32] [i32 2091444926, i32 -2138639918, i32 0], [3 x i32] [i32 283017736, i32 -7, i32 1698185546], [3 x i32] [i32 1628157269, i32 0, i32 1044216359], [3 x i32] [i32 1547065395, i32 -1, i32 -7], [3 x i32] [i32 8, i32 -1, i32 1], [3 x i32] [i32 1841884517, i32 0, i32 2]], [7 x [3 x i32]] [[3 x i32] [i32 7, i32 -7, i32 2087377514], [3 x i32] [i32 834421965, i32 -2138639918, i32 2], [3 x i32] [i32 1, i32 -1, i32 1044216359], [3 x i32] [i32 7, i32 -10, i32 -1], [3 x i32] [i32 7, i32 -1, i32 -328727838], [3 x i32] [i32 360433363, i32 -2138639918, i32 -1613798643], [3 x i32] [i32 1547065395, i32 -7, i32 -1]], [7 x [3 x i32]] [[3 x i32] [i32 0, i32 0, i32 -1129666350], [3 x i32] [i32 -1120699426, i32 -1, i32 -8], [3 x i32] [i32 2091444926, i32 -1, i32 2087377514], [3 x i32] [i32 7, i32 0, i32 -5], [3 x i32] [i32 679230240, i32 -7, i32 -5], [3 x i32] [i32 1, i32 -2138639918, i32 -7], [3 x i32] [i32 834421965, i32 -1, i32 -1129666350]], [7 x [3 x i32]] [[3 x i32] [i32 679230240, i32 -10, i32 -4], [3 x i32] [i32 -1, i32 -1, i32 0], [3 x i32] [i32 8, i32 -2138639918, i32 -328727838], [3 x i32] [i32 -1120699426, i32 -7, i32 -4], [3 x i32] [i32 1, i32 0, i32 -1], [3 x i32] [i32 283017736, i32 -1, i32 2], [3 x i32] [i32 360433363, i32 -1, i32 -5]], [7 x [3 x i32]] [[3 x i32] [i32 -1, i32 0, i32 0], [3 x i32] [i32 555482698, i32 -7, i32 1], [3 x i32] [i32 1, i32 -2138639918, i32 -8], [3 x i32] [i32 1, i32 -1, i32 -1], [3 x i32] [i32 555482698, i32 -10, i32 1698185546], [3 x i32] [i32 1841884517, i32 -1, i32 -1613798643], [3 x i32] [i32 2091444926, i32 -2138639918, i32 0]], [7 x [3 x i32]] [[3 x i32] [i32 283017736, i32 -7, i32 1698185546], [3 x i32] [i32 1628157269, i32 0, i32 1044216359], [3 x i32] [i32 1547065395, i32 -1, i32 -7], [3 x i32] [i32 8, i32 -1, i32 1], [3 x i32] [i32 1841884517, i32 0, i32 2], [3 x i32] [i32 7, i32 -7, i32 2087377514], [3 x i32] [i32 834421965, i32 -2138639918, i32 2]], [7 x [3 x i32]] [[3 x i32] [i32 1, i32 1023954582, i32 -1], [3 x i32] [i32 -1, i32 -1579985206, i32 8], [3 x i32] [i32 2, i32 1023954582, i32 -1425719182], [3 x i32] [i32 87909934, i32 0, i32 0], [3 x i32] [i32 0, i32 7, i32 8], [3 x i32] [i32 702414371, i32 0, i32 2], [3 x i32] [i32 -328727838, i32 -2, i32 -2]], [7 x [3 x i32]] [[3 x i32] [i32 -10, i32 -2, i32 96667756], [3 x i32] [i32 2, i32 0, i32 1924945160], [3 x i32] [i32 -1, i32 7, i32 -1402097775], [3 x i32] [i32 -1, i32 0, i32 7], [3 x i32] [i32 -4, i32 1023954582, i32 2], [3 x i32] [i32 -1, i32 -1579985206, i32 73780325], [3 x i32] [i32 0, i32 1023954582, i32 -1893771394]], [7 x [3 x i32]] [[3 x i32] [i32 4, i32 0, i32 -1425719182], [3 x i32] [i32 -328727838, i32 7, i32 73780325], [3 x i32] [i32 6, i32 0, i32 -2], [3 x i32] [i32 -1613798643, i32 -2, i32 -1986717165], [3 x i32] [i32 87909934, i32 -2, i32 -1402097775], [3 x i32] zeroinitializer, [3 x i32] [i32 320804302, i32 7, i32 -2139698281]], [7 x [3 x i32]] [[3 x i32] [i32 1698185546, i32 0, i32 -2], [3 x i32] [i32 -1, i32 1023954582, i32 -2], [3 x i32] [i32 320804302, i32 -1579985206, i32 -1878118873], [3 x i32] [i32 -5, i32 1023954582, i32 0], [3 x i32] [i32 -10, i32 0, i32 -1893771394], [3 x i32] [i32 -1613798643, i32 7, i32 -1878118873], [3 x i32] [i32 653753375, i32 0, i32 -1]]], align 4
@_ZL5g_983 = internal global i8*** @_ZL5g_984, align 4
@_ZZL6func_1vE6l_1324 = private unnamed_addr constant [7 x [3 x [10 x i8****]]] [[3 x [10 x i8****]] [[10 x i8****] [i8**** @_ZL5g_983, i8**** @_ZL5g_983, i8**** @_ZL5g_983, i8**** @_ZL5g_983, i8**** @_ZL5g_983, i8**** @_ZL5g_983, i8**** @_ZL5g_983, i8**** @_ZL5g_983, i8**** @_ZL5g_983, i8**** @_ZL5g_983], [10 x i8****] [i8**** @_ZL5g_983, i8**** @_ZL5g_983, i8**** @_ZL5g_983, i8**** @_ZL5g_983, i8**** @_ZL5g_983, i8**** @_ZL5g_983, i8**** @_ZL5g_983, i8**** @_ZL5g_983, i8**** @_ZL5g_983, i8**** @_ZL5g_983], [10 x i8****] [i8**** @_ZL5g_983, i8**** @_ZL5g_983, i8**** @_ZL5g_983, i8**** @_ZL5g_983, i8**** @_ZL5g_983, i8**** @_ZL5g_983, i8**** @_ZL5g_983, i8**** @_ZL5g_983, i8**** @_ZL5g_983, i8**** @_ZL5g_983]], [3 x [10 x i8****]] [[10 x i8****] [i8**** @_ZL5g_983, i8**** @_ZL5g_983, i8**** @_ZL5g_983, i8**** @_ZL5g_983, i8**** @_ZL5g_983, i8**** @_ZL5g_983, i8**** @_ZL5g_983, i8**** @_ZL5g_983, i8**** @_ZL5g_983, i8**** @_ZL5g_983], [10 x i8****] [i8**** @_ZL5g_983, i8**** @_ZL5g_983, i8**** @_ZL5g_983, i8**** @_ZL5g_983, i8**** @_ZL5g_983, i8**** @_ZL5g_983, i8**** @_ZL5g_983, i8**** @_ZL5g_983, i8**** @_ZL5g_983, i8**** @_ZL5g_983], [10 x i8****] [i8**** @_ZL5g_983, i8**** @_ZL5g_983, i8**** @_ZL5g_983, i8**** @_ZL5g_983, i8**** @_ZL5g_983, i8**** @_ZL5g_983, i8**** @_ZL5g_983, i8**** @_ZL5g_983, i8**** @_ZL5g_983, i8**** @_ZL5g_983]], [3 x [10 x i8****]] [[10 x i8****] [i8**** @_ZL5g_983, i8**** @_ZL5g_983, i8**** @_ZL5g_983, i8**** @_ZL5g_983, i8**** @_ZL5g_983, i8**** @_ZL5g_983, i8**** @_ZL5g_983, i8**** @_ZL5g_983, i8**** @_ZL5g_983, i8**** @_ZL5g_983], [10 x i8****] [i8**** @_ZL5g_983, i8**** @_ZL5g_983, i8**** @_ZL5g_983, i8**** @_ZL5g_983, i8**** @_ZL5g_983, i8**** @_ZL5g_983, i8**** @_ZL5g_983, i8**** @_ZL5g_983, i8**** @_ZL5g_983, i8**** @_ZL5g_983], [10 x i8****] [i8**** @_ZL5g_983, i8**** @_ZL5g_983, i8**** @_ZL5g_983, i8**** @_ZL5g_983, i8**** @_ZL5g_983, i8**** @_ZL5g_983, i8**** @_ZL5g_983, i8**** @_ZL5g_983, i8**** @_ZL5g_983, i8**** @_ZL5g_983]], [3 x [10 x i8****]] [[10 x i8****] [i8**** @_ZL5g_983, i8**** @_ZL5g_983, i8**** @_ZL5g_983, i8**** @_ZL5g_983, i8**** @_ZL5g_983, i8**** @_ZL5g_983, i8**** @_ZL5g_983, i8**** @_ZL5g_983, i8**** @_ZL5g_983, i8**** @_ZL5g_983], [10 x i8****] [i8**** @_ZL5g_983, i8**** @_ZL5g_983, i8**** @_ZL5g_983, i8**** @_ZL5g_983, i8**** @_ZL5g_983, i8**** @_ZL5g_983, i8**** @_ZL5g_983, i8**** @_ZL5g_983, i8**** @_ZL5g_983, i8**** @_ZL5g_983], [10 x i8****] [i8**** @_ZL5g_983, i8**** @_ZL5g_983, i8**** @_ZL5g_983, i8**** @_ZL5g_983, i8**** @_ZL5g_983, i8**** @_ZL5g_983, i8**** @_ZL5g_983, i8**** @_ZL5g_983, i8**** @_ZL5g_983, i8**** @_ZL5g_983]], [3 x [10 x i8****]] [[10 x i8****] [i8**** @_ZL5g_983, i8**** @_ZL5g_983, i8**** @_ZL5g_983, i8**** @_ZL5g_983, i8**** @_ZL5g_983, i8**** @_ZL5g_983, i8**** @_ZL5g_983, i8**** @_ZL5g_983, i8**** @_ZL5g_983, i8**** @_ZL5g_983], [10 x i8****] [i8**** @_ZL5g_983, i8**** @_ZL5g_983, i8**** @_ZL5g_983, i8**** @_ZL5g_983, i8**** @_ZL5g_983, i8**** @_ZL5g_983, i8**** @_ZL5g_983, i8**** @_ZL5g_983, i8**** @_ZL5g_983, i8**** @_ZL5g_983], [10 x i8****] [i8**** @_ZL5g_983, i8**** @_ZL5g_983, i8**** null, i8**** @_ZL5g_983, i8**** @_ZL5g_983, i8**** @_ZL5g_983, i8**** @_ZL5g_983, i8**** null, i8**** @_ZL5g_983, i8**** @_ZL5g_983]], [3 x [10 x i8****]] [[10 x i8****] [i8**** @_ZL5g_983, i8**** @_ZL5g_983, i8**** @_ZL5g_983, i8**** @_ZL5g_983, i8**** @_ZL5g_983, i8**** @_ZL5g_983, i8**** @_ZL5g_983, i8**** @_ZL5g_983, i8**** @_ZL5g_983, i8**** @_ZL5g_983], [10 x i8****] [i8**** @_ZL5g_983, i8**** @_ZL5g_983, i8**** @_ZL5g_983, i8**** @_ZL5g_983, i8**** @_ZL5g_983, i8**** @_ZL5g_983, i8**** @_ZL5g_983, i8**** @_ZL5g_983, i8**** @_ZL5g_983, i8**** @_ZL5g_983], [10 x i8****] [i8**** @_ZL5g_983, i8**** @_ZL5g_983, i8**** @_ZL5g_983, i8**** @_ZL5g_983, i8**** @_ZL5g_983, i8**** @_ZL5g_983, i8**** @_ZL5g_983, i8**** @_ZL5g_983, i8**** @_ZL5g_983, i8**** @_ZL5g_983]], [3 x [10 x i8****]] [[10 x i8****] [i8**** @_ZL5g_983, i8**** @_ZL5g_983, i8**** @_ZL5g_983, i8**** @_ZL5g_983, i8**** @_ZL5g_983, i8**** @_ZL5g_983, i8**** @_ZL5g_983, i8**** @_ZL5g_983, i8**** @_ZL5g_983, i8**** @_ZL5g_983], [10 x i8****] [i8**** @_ZL5g_983, i8**** @_ZL5g_983, i8**** null, i8**** @_ZL5g_983, i8**** @_ZL5g_983, i8**** @_ZL5g_983, i8**** @_ZL5g_983, i8**** null, i8**** @_ZL5g_983, i8**** @_ZL5g_983], [10 x i8****] [i8**** @_ZL5g_983, i8**** @_ZL5g_983, i8**** @_ZL5g_983, i8**** @_ZL5g_983, i8**** @_ZL5g_983, i8**** @_ZL5g_983, i8**** @_ZL5g_983, i8**** @_ZL5g_983, i8**** @_ZL5g_983, i8**** @_ZL5g_983]]], align 4
@_ZZL6func_1vE6l_1346 = private unnamed_addr constant [10 x i32] [i32 -2, i32 -2, i32 -2, i32 -2, i32 -2, i32 -2, i32 -2, i32 -2, i32 -2, i32 -2], align 4
@_ZZL6func_1vE6l_1519 = private unnamed_addr constant [10 x %struct.S0] [%struct.S0 { i16 1, i8 91, i32 1 }, %struct.S0 { i16 1, i8 91, i32 1 }, %struct.S0 { i16 1, i8 91, i32 1 }, %struct.S0 { i16 1, i8 91, i32 1 }, %struct.S0 { i16 1, i8 91, i32 1 }, %struct.S0 { i16 1, i8 91, i32 1 }, %struct.S0 { i16 1, i8 91, i32 1 }, %struct.S0 { i16 1, i8 91, i32 1 }, %struct.S0 { i16 1, i8 91, i32 1 }, %struct.S0 { i16 1, i8 91, i32 1 }], align 8
@_ZL5g_189 = internal constant %struct.S0* @_ZL4g_83, align 4
@_ZZL6func_1vE6l_1263 = private unnamed_addr constant [2 x [1 x [8 x i32]]] [[1 x [8 x i32]] [[8 x i32] [i32 -1, i32 -1, i32 -1, i32 -1, i32 -1, i32 -1, i32 -1, i32 -1]], [1 x [8 x i32]] [[8 x i32] [i32 -1, i32 -1, i32 -1, i32 -1, i32 -1, i32 -1, i32 -1, i32 -1]]], align 4
@_ZZL6func_1vE6l_1364 = private unnamed_addr constant %struct.S0 { i16 12857, i8 -1, i32 103472530 }, align 4
@_ZZL6func_1vE6l_1204 = private unnamed_addr constant [10 x i32*] [i32* @_ZL5g_138, i32* bitcast (i8* getelementptr (i8, i8* bitcast (%struct.S0* @_ZL5g_471 to i8*), i64 4) to i32*), i32* bitcast (i8* getelementptr (i8, i8* bitcast (%struct.S0* @_ZL5g_471 to i8*), i64 4) to i32*), i32* @_ZL5g_138, i32* bitcast (i8* getelementptr (i8, i8* bitcast (%struct.S0* @_ZL5g_471 to i8*), i64 4) to i32*), i32* bitcast (i8* getelementptr (i8, i8* bitcast (%struct.S0* @_ZL5g_471 to i8*), i64 4) to i32*), i32* @_ZL5g_138, i32* bitcast (i8* getelementptr (i8, i8* bitcast (%struct.S0* @_ZL5g_471 to i8*), i64 4) to i32*), i32* bitcast (i8* getelementptr (i8, i8* bitcast (%struct.S0* @_ZL5g_471 to i8*), i64 4) to i32*), i32* @_ZL5g_138], align 4
@_ZZL6func_1vE6l_1278 = private unnamed_addr constant [7 x [9 x [4 x i32]]] [[9 x [4 x i32]] [[4 x i32] [i32 0, i32 -9, i32 -608911817, i32 -1137618830], [4 x i32] [i32 -1673477626, i32 1178455578, i32 -1, i32 1], [4 x i32] [i32 1749634172, i32 -608911817, i32 -1750306944, i32 5], [4 x i32] [i32 -1, i32 -267173613, i32 1, i32 -267173613], [4 x i32] [i32 342924466, i32 -1137618830, i32 5, i32 0], [4 x i32] [i32 -1, i32 5, i32 -2032672910, i32 2], [4 x i32] [i32 -267173613, i32 1687884857, i32 -7, i32 0], [4 x i32] [i32 -267173613, i32 60247711, i32 -2032672910, i32 -829052586], [4 x i32] [i32 -1, i32 0, i32 5, i32 -9]], [9 x [4 x i32]] [[4 x i32] [i32 342924466, i32 6, i32 1, i32 -1750306944], [4 x i32] [i32 -1, i32 -2032672910, i32 -1750306944, i32 1], [4 x i32] [i32 1749634172, i32 -1, i32 -1, i32 1749634172], [4 x i32] [i32 -1673477626, i32 -920516504, i32 -608911817, i32 -5], [4 x i32] [i32 0, i32 -1, i32 1687884857, i32 0], [4 x i32] [i32 -829052586, i32 -1750306944, i32 1749634172, i32 0], [4 x i32] [i32 -1137618830, i32 -1, i32 342924466, i32 -5], [4 x i32] [i32 6, i32 -920516504, i32 -829052586, i32 1749634172], [4 x i32] [i32 1178455578, i32 -1, i32 1, i32 1]], [9 x [4 x i32]] [[4 x i32] [i32 0, i32 -2032672910, i32 -920516504, i32 -1750306944], [4 x i32] [i32 -852752877, i32 6, i32 -852752877, i32 -9], [4 x i32] [i32 1, i32 0, i32 6, i32 -829052586], [4 x i32] [i32 2, i32 60247711, i32 1, i32 0], [4 x i32] [i32 -608911817, i32 6, i32 -7, i32 -5], [4 x i32] [i32 -5, i32 0, i32 1749634172, i32 -1750306944], [4 x i32] [i32 -2032672910, i32 -1, i32 2, i32 -608911817], [4 x i32] [i32 2, i32 -608911817, i32 -1673477626, i32 0], [4 x i32] [i32 -267173613, i32 1, i32 -920516504, i32 -920516504]], [9 x [4 x i32]] [[4 x i32] [i32 -1692884230, i32 -1692884230, i32 1178455578, i32 -1], [4 x i32] [i32 1749634172, i32 1687884857, i32 0, i32 -1673477626], [4 x i32] [i32 -1, i32 -1750306944, i32 -1, i32 0], [4 x i32] [i32 1178455578, i32 -1750306944, i32 6, i32 -1673477626], [4 x i32] [i32 -1750306944, i32 1687884857, i32 1, i32 -1], [4 x i32] [i32 5, i32 -1692884230, i32 -1, i32 -920516504], [4 x i32] [i32 -1, i32 1, i32 1, i32 0], [4 x i32] [i32 -1, i32 -608911817, i32 -2032672910, i32 -608911817], [4 x i32] [i32 0, i32 -1, i32 0, i32 -1750306944]], [9 x [4 x i32]] [[4 x i32] [i32 -829052586, i32 0, i32 0, i32 -5], [4 x i32] [i32 -608911817, i32 6, i32 -1137618830, i32 -267173613], [4 x i32] [i32 -608911817, i32 -9, i32 0, i32 1178455578], [4 x i32] [i32 -829052586, i32 -267173613, i32 0, i32 1687884857], [4 x i32] [i32 0, i32 1749634172, i32 -2032672910, i32 1], [4 x i32] [i32 -1, i32 0, i32 1, i32 -7], [4 x i32] [i32 -1, i32 -1, i32 -1, i32 -1], [4 x i32] [i32 5, i32 -1673477626, i32 1, i32 0], [4 x i32] [i32 -1750306944, i32 1, i32 6, i32 342924466]], [9 x [4 x i32]] [[4 x i32] [i32 1178455578, i32 1, i32 -1, i32 342924466], [4 x i32] [i32 -1, i32 1, i32 0, i32 0], [4 x i32] [i32 1749634172, i32 -1673477626, i32 1178455578, i32 -1], [4 x i32] [i32 -1692884230, i32 -1, i32 -920516504, i32 -7], [4 x i32] [i32 -267173613, i32 0, i32 -1673477626, i32 1], [4 x i32] [i32 2, i32 1749634172, i32 2, i32 1687884857], [4 x i32] [i32 -2032672910, i32 -267173613, i32 1749634172, i32 1178455578], [4 x i32] [i32 -5, i32 -9, i32 -7, i32 -267173613], [4 x i32] [i32 1, i32 6, i32 -7, i32 -5]], [9 x [4 x i32]] [[4 x i32] [i32 -5, i32 0, i32 1749634172, i32 -1750306944], [4 x i32] [i32 -2032672910, i32 -1, i32 2, i32 -608911817], [4 x i32] [i32 2, i32 -608911817, i32 -1673477626, i32 0], [4 x i32] [i32 -267173613, i32 1, i32 -920516504, i32 -920516504], [4 x i32] [i32 -1692884230, i32 -1692884230, i32 1178455578, i32 -1], [4 x i32] [i32 1749634172, i32 1687884857, i32 0, i32 -1673477626], [4 x i32] [i32 -1, i32 -1750306944, i32 -1, i32 0], [4 x i32] [i32 1178455578, i32 -1750306944, i32 6, i32 -1673477626], [4 x i32] [i32 -1750306944, i32 1687884857, i32 1, i32 -1]]], align 4
@_ZZL6func_1vE6l_1365 = private unnamed_addr constant [8 x [3 x [5 x i16]]] [[3 x [5 x i16]] [[5 x i16] [i16 -1, i16 -10870, i16 20658, i16 0, i16 3], [5 x i16] [i16 22073, i16 24925, i16 -13292, i16 -10870, i16 -1459], [5 x i16] [i16 1, i16 138, i16 7, i16 -26288, i16 7]], [3 x [5 x i16]] [[5 x i16] [i16 1, i16 1, i16 7, i16 5, i16 24925], [5 x i16] [i16 -30784, i16 0, i16 -13292, i16 -1, i16 -26288], [5 x i16] [i16 1, i16 9699, i16 20658, i16 5708, i16 1]], [3 x [5 x i16]] [[5 x i16] [i16 22073, i16 1, i16 20658, i16 -13292, i16 7], [5 x i16] [i16 0, i16 -1459, i16 5708, i16 -1459, i16 0], [5 x i16] [i16 0, i16 22073, i16 2965, i16 1, i16 -1459]], [3 x [5 x i16]] [[5 x i16] [i16 22073, i16 5, i16 -30784, i16 2965, i16 5708], [5 x i16] [i16 2965, i16 -30784, i16 5, i16 22073, i16 -1459], [5 x i16] [i16 1, i16 2965, i16 22073, i16 0, i16 0]], [3 x [5 x i16]] [[5 x i16] [i16 -1459, i16 5708, i16 -1459, i16 0, i16 7], [5 x i16] [i16 -13292, i16 20658, i16 1, i16 22073, i16 1], [5 x i16] [i16 5708, i16 7, i16 -1, i16 2965, i16 1]], [3 x [5 x i16]] [[5 x i16] [i16 31974, i16 -10870, i16 1, i16 1, i16 5], [5 x i16] [i16 1, i16 9699, i16 -1459, i16 -1459, i16 9699], [5 x i16] [i16 1, i16 9699, i16 22073, i16 -13292, i16 3]], [3 x [5 x i16]] [[5 x i16] [i16 -30784, i16 -10870, i16 5, i16 5708, i16 138], [5 x i16] [i16 1, i16 7, i16 -30784, i16 31974, i16 -26288], [5 x i16] [i16 -30784, i16 20658, i16 2965, i16 1, i16 22073]], [3 x [5 x i16]] [[5 x i16] [i16 1, i16 5708, i16 5708, i16 1, i16 22073], [5 x i16] [i16 1, i16 2965, i16 20658, i16 -30784, i16 -26288], [5 x i16] [i16 31974, i16 -30784, i16 7, i16 1, i16 138]]], align 2
@_ZL5g_985 = internal global i8* @_ZL5g_304, align 4
@_ZZL6func_1vE6l_1320 = private unnamed_addr constant <{ <{ { i8, [3 x i8] }, { i8, [3 x i8] }, { i8, [3 x i8] }, { i8, [3 x i8] }, { i8, [3 x i8] }, { i8, [3 x i8] }, { i8, [3 x i8] }, { i8, [3 x i8] }, { i8, [3 x i8] } }>, <{ { i8, [3 x i8] }, { i8, [3 x i8] }, { i8, [3 x i8] }, { i8, [3 x i8] }, { i8, [3 x i8] }, { i8, [3 x i8] }, { i8, [3 x i8] }, { i8, [3 x i8] }, { i8, [3 x i8] } }>, <{ { i8, [3 x i8] }, { i8, [3 x i8] }, { i8, [3 x i8] }, { i8, [3 x i8] }, { i8, [3 x i8] }, { i8, [3 x i8] }, { i8, [3 x i8] }, { i8, [3 x i8] }, { i8, [3 x i8] } }>, <{ { i8, [3 x i8] }, { i8, [3 x i8] }, { i8, [3 x i8] }, { i8, [3 x i8] }, { i8, [3 x i8] }, { i8, [3 x i8] }, { i8, [3 x i8] }, { i8, [3 x i8] }, { i8, [3 x i8] } }>, <{ { i8, [3 x i8] }, { i8, [3 x i8] }, { i8, [3 x i8] }, { i8, [3 x i8] }, { i8, [3 x i8] }, { i8, [3 x i8] }, { i8, [3 x i8] }, { i8, [3 x i8] }, { i8, [3 x i8] } }>, <{ { i8, [3 x i8] }, { i8, [3 x i8] }, { i8, [3 x i8] }, { i8, [3 x i8] }, { i8, [3 x i8] }, { i8, [3 x i8] }, { i8, [3 x i8] }, { i8, [3 x i8] }, { i8, [3 x i8] } }>, <{ { i8, [3 x i8] }, { i8, [3 x i8] }, { i8, [3 x i8] }, { i8, [3 x i8] }, { i8, [3 x i8] }, { i8, [3 x i8] }, { i8, [3 x i8] }, { i8, [3 x i8] }, { i8, [3 x i8] } }> }> <{ <{ { i8, [3 x i8] }, { i8, [3 x i8] }, { i8, [3 x i8] }, { i8, [3 x i8] }, { i8, [3 x i8] }, { i8, [3 x i8] }, { i8, [3 x i8] }, { i8, [3 x i8] }, { i8, [3 x i8] } }> <{ { i8, [3 x i8] } { i8 -38, [3 x i8] undef }, { i8, [3 x i8] } { i8 -5, [3 x i8] undef }, { i8, [3 x i8] } { i8 -71, [3 x i8] undef }, { i8, [3 x i8] } { i8 19, [3 x i8] undef }, { i8, [3 x i8] } { i8 126, [3 x i8] undef }, { i8, [3 x i8] } { i8 -87, [3 x i8] undef }, { i8, [3 x i8] } { i8 1, [3 x i8] undef }, { i8, [3 x i8] } { i8 -4, [3 x i8] undef }, { i8, [3 x i8] } { i8 8, [3 x i8] undef } }>, <{ { i8, [3 x i8] }, { i8, [3 x i8] }, { i8, [3 x i8] }, { i8, [3 x i8] }, { i8, [3 x i8] }, { i8, [3 x i8] }, { i8, [3 x i8] }, { i8, [3 x i8] }, { i8, [3 x i8] } }> <{ { i8, [3 x i8] } { i8 -4, [3 x i8] undef }, { i8, [3 x i8] } { i8 -4, [3 x i8] undef }, { i8, [3 x i8] } { i8 -5, [3 x i8] undef }, { i8, [3 x i8] } { i8 8, [3 x i8] undef }, { i8, [3 x i8] } { i8 8, [3 x i8] undef }, { i8, [3 x i8] } { i8 -5, [3 x i8] undef }, { i8, [3 x i8] } { i8 -4, [3 x i8] undef }, { i8, [3 x i8] } { i8 -4, [3 x i8] undef }, { i8, [3 x i8] } { i8 -87, [3 x i8] undef } }>, <{ { i8, [3 x i8] }, { i8, [3 x i8] }, { i8, [3 x i8] }, { i8, [3 x i8] }, { i8, [3 x i8] }, { i8, [3 x i8] }, { i8, [3 x i8] }, { i8, [3 x i8] }, { i8, [3 x i8] } }> <{ { i8, [3 x i8] } { i8 3, [3 x i8] undef }, { i8, [3 x i8] } { i8 43, [3 x i8] undef }, { i8, [3 x i8] } { i8 -125, [3 x i8] undef }, { i8, [3 x i8] } { i8 1, [3 x i8] undef }, { i8, [3 x i8] } { i8 1, [3 x i8] undef }, { i8, [3 x i8] } { i8 19, [3 x i8] undef }, { i8, [3 x i8] } { i8 -87, [3 x i8] undef }, { i8, [3 x i8] } { i8 -4, [3 x i8] undef }, { i8, [3 x i8] } { i8 -1, [3 x i8] undef } }>, <{ { i8, [3 x i8] }, { i8, [3 x i8] }, { i8, [3 x i8] }, { i8, [3 x i8] }, { i8, [3 x i8] }, { i8, [3 x i8] }, { i8, [3 x i8] }, { i8, [3 x i8] }, { i8, [3 x i8] } }> <{ { i8, [3 x i8] } { i8 3, [3 x i8] undef }, { i8, [3 x i8] } { i8 1, [3 x i8] undef }, { i8, [3 x i8] } { i8 -21, [3 x i8] undef }, { i8, [3 x i8] } { i8 118, [3 x i8] undef }, { i8, [3 x i8] } { i8 1, [3 x i8] undef }, { i8, [3 x i8] } { i8 -4, [3 x i8] undef }, { i8, [3 x i8] } { i8 0, [3 x i8] undef }, { i8, [3 x i8] } { i8 -1, [3 x i8] undef }, { i8, [3 x i8] } { i8 -87, [3 x i8] undef } }>, <{ { i8, [3 x i8] }, { i8, [3 x i8] }, { i8, [3 x i8] }, { i8, [3 x i8] }, { i8, [3 x i8] }, { i8, [3 x i8] }, { i8, [3 x i8] }, { i8, [3 x i8] }, { i8, [3 x i8] } }> <{ { i8, [3 x i8] } { i8 -1, [3 x i8] undef }, { i8, [3 x i8] } { i8 8, [3 x i8] undef }, { i8, [3 x i8] } { i8 1, [3 x i8] undef }, { i8, [3 x i8] } { i8 3, [3 x i8] undef }, { i8, [3 x i8] } { i8 0, [3 x i8] undef }, { i8, [3 x i8] } { i8 0, [3 x i8] undef }, { i8, [3 x i8] } { i8 3, [3 x i8] undef }, { i8, [3 x i8] } { i8 1, [3 x i8] undef }, { i8, [3 x i8] } { i8 8, [3 x i8] undef } }>, <{ { i8, [3 x i8] }, { i8, [3 x i8] }, { i8, [3 x i8] }, { i8, [3 x i8] }, { i8, [3 x i8] }, { i8, [3 x i8] }, { i8, [3 x i8] }, { i8, [3 x i8] }, { i8, [3 x i8] } }> <{ { i8, [3 x i8] } { i8 -1, [3 x i8] undef }, { i8, [3 x i8] } { i8 -87, [3 x i8] undef }, { i8, [3 x i8] } { i8 -1, [3 x i8] undef }, { i8, [3 x i8] } { i8 0, [3 x i8] undef }, { i8, [3 x i8] } { i8 -4, [3 x i8] undef }, { i8, [3 x i8] } { i8 1, [3 x i8] undef }, { i8, [3 x i8] } { i8 118, [3 x i8] undef }, { i8, [3 x i8] } { i8 -21, [3 x i8] undef }, { i8, [3 x i8] } { i8 1, [3 x i8] undef } }>, <{ { i8, [3 x i8] }, { i8, [3 x i8] }, { i8, [3 x i8] }, { i8, [3 x i8] }, { i8, [3 x i8] }, { i8, [3 x i8] }, { i8, [3 x i8] }, { i8, [3 x i8] }, { i8, [3 x i8] } }> <{ { i8, [3 x i8] } { i8 3, [3 x i8] undef }, { i8, [3 x i8] } { i8 -1, [3 x i8] undef }, { i8, [3 x i8] } { i8 -4, [3 x i8] undef }, { i8, [3 x i8] } { i8 -87, [3 x i8] undef }, { i8, [3 x i8] } { i8 19, [3 x i8] undef }, { i8, [3 x i8] } { i8 1, [3 x i8] undef }, { i8, [3 x i8] } { i8 1, [3 x i8] undef }, { i8, [3 x i8] } { i8 -125, [3 x i8] undef }, { i8, [3 x i8] } { i8 43, [3 x i8] undef } }> }>, align 4
@_ZZL6func_1vE6l_1423 = private unnamed_addr constant %struct.S0 { i16 -14979, i8 -56, i32 1 }, align 4
@_ZZL6func_1vE6l_1460 = private unnamed_addr constant [5 x [10 x i32]] [[10 x i32] [i32 -1, i32 -1, i32 -2111769585, i32 -10, i32 3, i32 -1, i32 -7, i32 -1, i32 -1, i32 -7], [10 x i32] [i32 -88107511, i32 -1, i32 -10, i32 -10, i32 -1, i32 -88107511, i32 -392857583, i32 -1, i32 1, i32 9], [10 x i32] [i32 9, i32 -1, i32 -1, i32 1, i32 -2111769585, i32 1, i32 -88107511, i32 1, i32 -2111769585, i32 1], [10 x i32] [i32 9, i32 1, i32 9, i32 -2, i32 -7, i32 -88107511, i32 -88107511, i32 -10, i32 1, i32 -2], [10 x i32] [i32 -1, i32 -88107511, i32 -10, i32 1, i32 -2, i32 -2, i32 1, i32 -10, i32 -88107511, i32 -1]], align 4
@_ZL5g_197 = internal global [2 x [10 x i32*]] [[10 x i32*] [i32* @_ZL4g_93, i32* @_ZL4g_93, i32* @_ZL4g_93, i32* @_ZL4g_93, i32* @_ZL4g_93, i32* @_ZL4g_93, i32* @_ZL4g_93, i32* @_ZL4g_93, i32* @_ZL4g_93, i32* @_ZL4g_93], [10 x i32*] [i32* @_ZL4g_93, i32* @_ZL4g_93, i32* @_ZL4g_93, i32* @_ZL4g_93, i32* @_ZL4g_93, i32* @_ZL4g_93, i32* @_ZL4g_93, i32* @_ZL4g_93, i32* @_ZL4g_93, i32* @_ZL4g_93]], align 4
@_ZZL6func_1vE6l_1443 = private unnamed_addr constant [7 x [5 x i32]] [[5 x i32] [i32 520842546, i32 -856207067, i32 2, i32 -3, i32 -1686173722], [5 x i32] [i32 1184089122, i32 -1017155828, i32 -3, i32 -691016572, i32 -3], [5 x i32] [i32 -3, i32 -3, i32 0, i32 2, i32 8], [5 x i32] [i32 -3, i32 -10, i32 8, i32 9, i32 7], [5 x i32] [i32 1184089122, i32 -1176025092, i32 -1686173722, i32 -8, i32 -1], [5 x i32] [i32 520842546, i32 -10, i32 -10, i32 520842546, i32 1752169706], [5 x i32] [i32 -856207067, i32 -3, i32 -10, i32 8, i32 9]], align 4
@_ZZL6func_1vE6l_1461 = private unnamed_addr constant [10 x [1 x i32]] [[1 x i32] [i32 1], [1 x i32] [i32 -1], [1 x i32] [i32 1], [1 x i32] [i32 -1], [1 x i32] [i32 1], [1 x i32] [i32 -1], [1 x i32] [i32 1], [1 x i32] [i32 -1], [1 x i32] [i32 1], [1 x i32] [i32 -1]], align 4
@_ZZL6func_1vE6l_1470 = private unnamed_addr constant %struct.S0 { i16 -30104, i8 -1, i32 6 }, align 4
@_ZL6g_1353 = internal constant %struct.S0*** @_ZL6g_1354, align 4
@_ZL6g_1354 = internal global %struct.S0** @_ZL6g_1355, align 4
@_ZL6g_1355 = internal global %struct.S0* null, align 4
@_ZL6g_1393 = internal global i32** @_ZL6g_1394, align 4
@_ZL6g_1394 = internal global i32* @_ZL5g_546, align 4
@_ZL5g_931 = internal global i32* @_ZL4g_53, align 4
@_ZL6g_1162 = internal unnamed_addr global { i8, [3 x i8] } { i8 0, [3 x i8] undef }, align 4
@_ZZL7func_20iitE4l_60 = private unnamed_addr constant %struct.S0 { i16 26262, i8 73, i32 1210384164 }, align 4
@_ZZL7func_20iitE5l_757 = private unnamed_addr constant [1 x [9 x [4 x i16]]] [[9 x [4 x i16]] [[4 x i16] [i16 -1, i16 0, i16 0, i16 -1], [4 x i16] [i16 0, i16 -1, i16 0, i16 8], [4 x i16] [i16 0, i16 0, i16 -1, i16 0], [4 x i16] [i16 0, i16 8, i16 8, i16 0], [4 x i16] [i16 8, i16 0, i16 8, i16 8], [4 x i16] [i16 0, i16 0, i16 -1, i16 0], [4 x i16] [i16 0, i16 8, i16 8, i16 0], [4 x i16] [i16 8, i16 0, i16 8, i16 8], [4 x i16] [i16 0, i16 0, i16 -1, i16 0]]], align 2
@_ZZL7func_20iitE5l_876 = private unnamed_addr constant [10 x i16] [i16 5, i16 0, i16 0, i16 5, i16 -9, i16 5, i16 0, i16 0, i16 5, i16 -9], align 2
@_ZZL7func_20iitE5l_403 = private unnamed_addr constant [1 x [4 x i32*]] [[4 x i32*] [i32* @_ZL5g_135, i32* @_ZL5g_135, i32* @_ZL5g_135, i32* @_ZL5g_135]], align 4
@_ZZL7func_20iitE5l_422 = private unnamed_addr constant %struct.S0 { i16 8, i8 95, i32 -1317782521 }, align 4
@_ZZL7func_20iitE5l_516 = private unnamed_addr constant <{ { i8, [3 x i8] }, { i8, [3 x i8] }, { i8, [3 x i8] }, { i8, [3 x i8] }, { i8, [3 x i8] }, { i8, [3 x i8] }, { i8, [3 x i8] }, { i8, [3 x i8] }, { i8, [3 x i8] } }> <{ { i8, [3 x i8] } { i8 118, [3 x i8] undef }, { i8, [3 x i8] } { i8 118, [3 x i8] undef }, { i8, [3 x i8] } { i8 118, [3 x i8] undef }, { i8, [3 x i8] } { i8 118, [3 x i8] undef }, { i8, [3 x i8] } { i8 118, [3 x i8] undef }, { i8, [3 x i8] } { i8 118, [3 x i8] undef }, { i8, [3 x i8] } { i8 118, [3 x i8] undef }, { i8, [3 x i8] } { i8 118, [3 x i8] undef }, { i8, [3 x i8] } { i8 118, [3 x i8] undef } }>, align 4
@_ZZL7func_20iitE5l_519 = private unnamed_addr constant %struct.S0 { i16 -1, i8 9, i32 -1103229061 }, align 4
@_ZZL7func_20iitE5l_548 = private unnamed_addr constant [8 x [8 x i32]] [[8 x i32] [i32 6, i32 -1608903715, i32 -2, i32 -1608903715, i32 6, i32 -2, i32 2, i32 2], [8 x i32] [i32 3, i32 -1608903715, i32 -1, i32 -1, i32 -1608903715, i32 3, i32 7, i32 -1608903715], [8 x i32] [i32 2, i32 7, i32 -1, i32 2, i32 -1, i32 7, i32 2, i32 3], [8 x i32] [i32 -1608903715, i32 6, i32 -2, i32 2, i32 2, i32 -2, i32 6, i32 -1608903715], [8 x i32] [i32 3, i32 2, i32 7, i32 -1, i32 2, i32 -1, i32 7, i32 2], [8 x i32] [i32 -1608903715, i32 7, i32 3, i32 -1608903715, i32 -1, i32 -1, i32 -1608903715, i32 3], [8 x i32] [i32 2, i32 2, i32 -2, i32 6, i32 -1608903715, i32 -2, i32 -1608903715, i32 6], [8 x i32] [i32 3, i32 6, i32 3, i32 -1, i32 6, i32 7, i32 7, i32 6]], align 4
@_ZZL7func_20iitE5l_495 = private unnamed_addr constant %struct.S0 { i16 -5, i8 -1, i32 -768235975 }, align 4
@_ZZL7func_20iitE5l_467 = private unnamed_addr constant [6 x i32] [i32 1631231813, i32 1631231813, i32 1631231813, i32 1631231813, i32 1631231813, i32 1631231813], align 4
@_ZZL7func_20iitE5l_513 = private unnamed_addr constant [2 x [3 x [9 x i16*]]] [[3 x [9 x i16*]] [[9 x i16*] [i16* @_ZL4g_79, i16* @_ZL4g_79, i16* @_ZL5g_103, i16* @_ZL4g_77, i16* @_ZL5g_361, i16* @_ZL5g_172, i16* @_ZL4g_77, i16* @_ZL5g_172, i16* @_ZL5g_361], [9 x i16*] [i16* @_ZL5g_361, i16* @_ZL5g_172, i16* @_ZL5g_172, i16* @_ZL5g_361, i16* @_ZL4g_79, i16* @_ZL5g_103, i16* null, i16* @_ZL4g_77, i16* null], [9 x i16*] [i16* @_ZL4g_77, i16* null, i16* @_ZL5g_103, i16* @_ZL5g_103, i16* null, i16* @_ZL4g_77, i16* @_ZL5g_308, i16* @_ZL4g_79, i16* null]], [3 x [9 x i16*]] [[9 x i16*] [i16* @_ZL5g_308, i16* @_ZL5g_103, i16* @_ZL4g_77, i16* @_ZL4g_79, i16* @_ZL4g_79, i16* @_ZL4g_77, i16* @_ZL5g_103, i16* @_ZL5g_308, i16* @_ZL5g_172], [9 x i16*] [i16* null, i16* @_ZL5g_103, i16* @_ZL4g_82, i16* @_ZL5g_361, i16* null, i16* null, i16* @_ZL5g_361, i16* @_ZL4g_82, i16* @_ZL4g_79], [9 x i16*] [i16* @_ZL5g_172, i16* @_ZL5g_308, i16* @_ZL4g_77, i16* @_ZL5g_361, i16* null, i16* @_ZL5g_308, i16* @_ZL5g_308, i16* null, i16* @_ZL5g_361]]], align 4
@_ZZL7func_20iitE5l_589 = private unnamed_addr constant <{ { i8, [3 x i8] }, { i8, [3 x i8] }, { i8, [3 x i8] }, { i8, [3 x i8] }, { i8, [3 x i8] }, { i8, [3 x i8] } }> <{ { i8, [3 x i8] } { i8 -1, [3 x i8] undef }, { i8, [3 x i8] } { i8 -19, [3 x i8] undef }, { i8, [3 x i8] } { i8 -1, [3 x i8] undef }, { i8, [3 x i8] } { i8 -1, [3 x i8] undef }, { i8, [3 x i8] } { i8 -19, [3 x i8] undef }, { i8, [3 x i8] } { i8 -1, [3 x i8] undef } }>, align 4
@_ZZL7func_20iitE5l_598 = private unnamed_addr constant [2 x [10 x %struct.S0]] [[10 x %struct.S0] [%struct.S0 { i16 23086, i8 -45, i32 -648996750 }, %struct.S0 { i16 -6, i8 -105, i32 -1 }, %struct.S0 { i16 23086, i8 -45, i32 -648996750 }, %struct.S0 { i16 23086, i8 -45, i32 -648996750 }, %struct.S0 { i16 -6, i8 -105, i32 -1 }, %struct.S0 { i16 23086, i8 -45, i32 -648996750 }, %struct.S0 { i16 23086, i8 -45, i32 -648996750 }, %struct.S0 { i16 -6, i8 -105, i32 -1 }, %struct.S0 { i16 23086, i8 -45, i32 -648996750 }, %struct.S0 { i16 23086, i8 -45, i32 -648996750 }], [10 x %struct.S0] [%struct.S0 { i16 -6, i8 -105, i32 -1 }, %struct.S0 { i16 -6, i8 -105, i32 -1 }, %struct.S0 { i16 -25976, i8 0, i32 1 }, %struct.S0 { i16 -6, i8 -105, i32 -1 }, %struct.S0 { i16 -6, i8 -105, i32 -1 }, %struct.S0 { i16 -25976, i8 0, i32 1 }, %struct.S0 { i16 -6, i8 -105, i32 -1 }, %struct.S0 { i16 -6, i8 -105, i32 -1 }, %struct.S0 { i16 -25976, i8 0, i32 1 }, %struct.S0 { i16 -6, i8 -105, i32 -1 }]], align 4
@_ZZL7func_492S0E5l_178 = private unnamed_addr constant [3 x [5 x [9 x i16*]]] [[5 x [9 x i16*]] [[9 x i16*] [i16* getelementptr inbounds (%struct.S0, %struct.S0* @_ZL4g_83, i32 0, i32 0), i16* @_ZL5g_162, i16* getelementptr inbounds (%struct.S0, %struct.S0* @_ZL4g_83, i32 0, i32 0), i16* @_ZL5g_168, i16* @_ZL5g_168, i16* @_ZL5g_168, i16* @_ZL5g_168, i16* getelementptr inbounds (%struct.S0, %struct.S0* @_ZL4g_83, i32 0, i32 0), i16* @_ZL5g_162], [9 x i16*] [i16* null, i16* @_ZL5g_168, i16* getelementptr inbounds (%struct.S0, %struct.S0* @_ZL4g_83, i32 0, i32 0), i16* @_ZL5g_168, i16* getelementptr inbounds (%struct.S0, %struct.S0* @_ZL4g_83, i32 0, i32 0), i16* getelementptr inbounds (%struct.S0, %struct.S0* @_ZL4g_83, i32 0, i32 0), i16* @_ZL5g_162, i16* getelementptr inbounds (%struct.S0, %struct.S0* @_ZL4g_83, i32 0, i32 0), i16* null], [9 x i16*] [i16* @_ZL5g_162, i16* @_ZL5g_168, i16* null, i16* null, i16* getelementptr inbounds (%struct.S0, %struct.S0* @_ZL4g_83, i32 0, i32 0), i16* null, i16* null, i16* @_ZL5g_168, i16* getelementptr inbounds (%struct.S0, %struct.S0* @_ZL4g_83, i32 0, i32 0)], [9 x i16*] [i16* @_ZL5g_162, i16* @_ZL5g_168, i16* getelementptr inbounds (%struct.S0, %struct.S0* @_ZL4g_83, i32 0, i32 0), i16* @_ZL5g_162, i16* @_ZL5g_168, i16* @_ZL5g_162, i16* getelementptr inbounds (%struct.S0, %struct.S0* @_ZL4g_83, i32 0, i32 0), i16* @_ZL5g_162, i16* getelementptr inbounds (%struct.S0, %struct.S0* @_ZL4g_83, i32 0, i32 0)], [9 x i16*] [i16* null, i16* @_ZL5g_162, i16* null, i16* @_ZL5g_168, i16* @_ZL5g_162, i16* @_ZL5g_168, i16* getelementptr inbounds (%struct.S0, %struct.S0* @_ZL4g_83, i32 0, i32 0), i16* null, i16* getelementptr inbounds (%struct.S0, %struct.S0* @_ZL4g_83, i32 0, i32 0)]], [5 x [9 x i16*]] [[9 x i16*] [i16* null, i16* @_ZL5g_162, i16* null, i16* getelementptr inbounds (%struct.S0, %struct.S0* @_ZL4g_83, i32 0, i32 0), i16* @_ZL5g_168, i16* @_ZL5g_162, i16* @_ZL5g_168, i16* @_ZL5g_168, i16* @_ZL5g_168], [9 x i16*] [i16* null, i16* @_ZL5g_168, i16* getelementptr inbounds (%struct.S0, %struct.S0* @_ZL4g_83, i32 0, i32 0), i16* @_ZL5g_162, i16* getelementptr inbounds (%struct.S0, %struct.S0* @_ZL4g_83, i32 0, i32 0), i16* @_ZL5g_162, i16* @_ZL5g_162, i16* @_ZL5g_162, i16* @_ZL5g_168], [9 x i16*] [i16* null, i16* null, i16* getelementptr inbounds (%struct.S0, %struct.S0* @_ZL4g_83, i32 0, i32 0), i16* @_ZL5g_168, i16* @_ZL5g_168, i16* getelementptr inbounds (%struct.S0, %struct.S0* @_ZL4g_83, i32 0, i32 0), i16* null, i16* null, i16* null], [9 x i16*] [i16* @_ZL5g_162, i16* @_ZL5g_168, i16* null, i16* null, i16* @_ZL5g_162, i16* null, i16* @_ZL5g_168, i16* @_ZL5g_162, i16* @_ZL5g_168], [9 x i16*] [i16* @_ZL5g_162, i16* getelementptr inbounds (%struct.S0, %struct.S0* @_ZL4g_83, i32 0, i32 0), i16* getelementptr inbounds (%struct.S0, %struct.S0* @_ZL4g_83, i32 0, i32 0), i16* getelementptr inbounds (%struct.S0, %struct.S0* @_ZL4g_83, i32 0, i32 0), i16* @_ZL5g_168, i16* null, i16* getelementptr inbounds (%struct.S0, %struct.S0* @_ZL4g_83, i32 0, i32 0), i16* @_ZL5g_168, i16* null]], [5 x [9 x i16*]] [[9 x i16*] [i16* null, i16* @_ZL5g_168, i16* null, i16* getelementptr inbounds (%struct.S0, %struct.S0* @_ZL4g_83, i32 0, i32 0), i16* @_ZL5g_162, i16* null, i16* @_ZL5g_162, i16* @_ZL5g_162, i16* @_ZL5g_168], [9 x i16*] [i16* getelementptr inbounds (%struct.S0, %struct.S0* @_ZL4g_83, i32 0, i32 0), i16* getelementptr inbounds (%struct.S0, %struct.S0* @_ZL4g_83, i32 0, i32 0), i16* @_ZL5g_168, i16* @_ZL5g_168, i16* getelementptr inbounds (%struct.S0, %struct.S0* @_ZL4g_83, i32 0, i32 0), i16* null, i16* @_ZL5g_162, i16* @_ZL5g_168, i16* @_ZL5g_168], [9 x i16*] [i16* getelementptr inbounds (%struct.S0, %struct.S0* @_ZL4g_83, i32 0, i32 0), i16* null, i16* null, i16* @_ZL5g_168, i16* getelementptr inbounds (%struct.S0, %struct.S0* @_ZL4g_83, i32 0, i32 0), i16* null, i16* null, i16* getelementptr inbounds (%struct.S0, %struct.S0* @_ZL4g_83, i32 0, i32 0), i16* @_ZL5g_168], [9 x i16*] [i16* getelementptr inbounds (%struct.S0, %struct.S0* @_ZL4g_83, i32 0, i32 0), i16* null, i16* getelementptr inbounds (%struct.S0, %struct.S0* @_ZL4g_83, i32 0, i32 0), i16* getelementptr inbounds (%struct.S0, %struct.S0* @_ZL4g_83, i32 0, i32 0), i16* null, i16* @_ZL5g_168, i16* @_ZL5g_168, i16* getelementptr inbounds (%struct.S0, %struct.S0* @_ZL4g_83, i32 0, i32 0), i16* @_ZL5g_168], [9 x i16*] [i16* @_ZL5g_162, i16* @_ZL5g_168, i16* @_ZL5g_168, i16* @_ZL5g_168, i16* @_ZL5g_168, i16* @_ZL5g_162, i16* @_ZL5g_168, i16* @_ZL5g_168, i16* null]]], align 4
@_ZZL7func_492S0E5l_198 = private unnamed_addr constant [4 x [1 x i32**]] [[1 x i32**] [i32** bitcast (i8* getelementptr (i8, i8* bitcast ([2 x [10 x i32*]]* @_ZL5g_197 to i8*), i64 76) to i32**)], [1 x i32**] zeroinitializer, [1 x i32**] [i32** bitcast (i8* getelementptr (i8, i8* bitcast ([2 x [10 x i32*]]* @_ZL5g_197 to i8*), i64 76) to i32**)], [1 x i32**] zeroinitializer], align 4
@_ZZL7func_492S0E5l_119 = private unnamed_addr constant { i8, [3 x i8] } { i8 -3, [3 x i8] undef }, align 4
@_ZZL7func_492S0E5l_125 = private unnamed_addr constant [8 x [4 x [6 x i32]]] [[4 x [6 x i32]] [[6 x i32] [i32 1, i32 -9, i32 2, i32 585837050, i32 1, i32 9], [6 x i32] [i32 -9, i32 0, i32 -5, i32 9, i32 1, i32 585837050], [6 x i32] [i32 735221361, i32 -9, i32 -626661945, i32 0, i32 -875020938, i32 -9], [6 x i32] [i32 -875020938, i32 -1969890654, i32 -5, i32 -1, i32 -1, i32 -5]], [4 x [6 x i32]] [[6 x i32] [i32 -875020938, i32 -875020938, i32 2, i32 0, i32 0, i32 1], [6 x i32] [i32 735221361, i32 -626661945, i32 -1969890654, i32 9, i32 -1, i32 2], [6 x i32] [i32 -9, i32 735221361, i32 -1969890654, i32 585837050, i32 -875020938, i32 1], [6 x i32] [i32 1, i32 585837050, i32 2, i32 -9, i32 1, i32 -5]], [4 x [6 x i32]] [[6 x i32] [i32 -9, i32 1, i32 -5, i32 -5, i32 1, i32 -9], [6 x i32] [i32 735221361, i32 585837050, i32 -626661945, i32 1, i32 -875020938, i32 585837050], [6 x i32] [i32 -875020938, i32 735221361, i32 -5, i32 2, i32 -1, i32 9], [6 x i32] [i32 -875020938, i32 -626661945, i32 2, i32 1, i32 0, i32 0]], [4 x [6 x i32]] [[6 x i32] [i32 735221361, i32 0, i32 0, i32 2, i32 -875020938, i32 -875020938], [6 x i32] [i32 735221361, i32 0, i32 0, i32 735221361, i32 0, i32 -5], [6 x i32] [i32 9, i32 735221361, i32 -626661945, i32 -1969890654, i32 9, i32 -1], [6 x i32] [i32 735221361, i32 -5, i32 2, i32 -1, i32 9, i32 -1969890654]], [4 x [6 x i32]] [[6 x i32] [i32 1, i32 735221361, i32 459562963, i32 -5, i32 0, i32 735221361], [6 x i32] [i32 0, i32 0, i32 2, i32 -875020938, i32 -875020938, i32 2], [6 x i32] [i32 0, i32 0, i32 -626661945, i32 -5, i32 -9, i32 9], [6 x i32] [i32 1, i32 459562963, i32 0, i32 -1, i32 -875020938, i32 -626661945]], [4 x [6 x i32]] [[6 x i32] [i32 735221361, i32 1, i32 0, i32 -1969890654, i32 0, i32 9], [6 x i32] [i32 9, i32 -1969890654, i32 -626661945, i32 735221361, i32 9, i32 2], [6 x i32] [i32 735221361, i32 9, i32 2, i32 2, i32 9, i32 735221361], [6 x i32] [i32 1, i32 -1969890654, i32 459562963, i32 9, i32 0, i32 -1969890654]], [4 x [6 x i32]] [[6 x i32] [i32 0, i32 1, i32 2, i32 -626661945, i32 -875020938, i32 -1], [6 x i32] [i32 0, i32 459562963, i32 -626661945, i32 9, i32 -9, i32 -5], [6 x i32] [i32 1, i32 0, i32 0, i32 2, i32 -875020938, i32 -875020938], [6 x i32] [i32 735221361, i32 0, i32 0, i32 735221361, i32 0, i32 -5]], [4 x [6 x i32]] [[6 x i32] [i32 9, i32 735221361, i32 -626661945, i32 -1969890654, i32 9, i32 -1], [6 x i32] [i32 735221361, i32 -5, i32 2, i32 -1, i32 9, i32 -1969890654], [6 x i32] [i32 1, i32 735221361, i32 459562963, i32 -5, i32 0, i32 735221361], [6 x i32] [i32 0, i32 0, i32 2, i32 -875020938, i32 -875020938, i32 2]]], align 4
@_ZZL7func_492S0E5l_296 = private unnamed_addr constant [6 x [2 x [4 x i32]]] [[2 x [4 x i32]] [[4 x i32] [i32 -2, i32 5, i32 161729879, i32 884294967], [4 x i32] [i32 -1, i32 0, i32 -3, i32 884294967]], [2 x [4 x i32]] [[4 x i32] [i32 -1769297005, i32 5, i32 1, i32 0], [4 x i32] [i32 1136616794, i32 -1, i32 -1591181149, i32 -1]], [2 x [4 x i32]] [[4 x i32] [i32 5, i32 62548300, i32 -3, i32 -6], [4 x i32] [i32 59636063, i32 -2, i32 62548300, i32 59636063]], [2 x [4 x i32]] [[4 x i32] [i32 -2, i32 -1, i32 1, i32 1136616794], [4 x i32] [i32 -2, i32 -1769297005, i32 62548300, i32 884294967]], [2 x [4 x i32]] [[4 x i32] [i32 59636063, i32 1136616794, i32 -3, i32 -3], [4 x i32] [i32 5, i32 5, i32 -1591181149, i32 1136616794]], [2 x [4 x i32]] [[4 x i32] [i32 1136616794, i32 59636063, i32 1, i32 -1], [4 x i32] [i32 -1769297005, i32 -2, i32 -3, i32 1]]], align 4
@_ZZL7func_40iaE5l_359 = private unnamed_addr constant [2 x [6 x [10 x i32*]]] [[6 x [10 x i32*]] [[10 x i32*] [i32* @_ZL3g_2, i32* @_ZL3g_2, i32* @_ZL5g_135, i32* @_ZL4g_93, i32* @_ZL3g_2, i32* null, i32* @_ZL3g_2, i32* @_ZL5g_132, i32* @_ZL5g_132, i32* @_ZL3g_2], [10 x i32*] [i32* @_ZL5g_257, i32* @_ZL4g_93, i32* @_ZL3g_2, i32* @_ZL3g_2, i32* @_ZL4g_93, i32* @_ZL5g_257, i32* @_ZL5g_132, i32* null, i32* @_ZL3g_2, i32* @_ZL5g_132], [10 x i32*] [i32* @_ZL5g_135, i32* null, i32* null, i32* @_ZL5g_135, i32* @_ZL4g_93, i32* @_ZL3g_2, i32* @_ZL3g_2, i32* @_ZL3g_2, i32* @_ZL3g_2, i32* @_ZL5g_257], [10 x i32*] [i32* @_ZL5g_135, i32* @_ZL3g_2, i32* null, i32* @_ZL5g_135, i32* @_ZL4g_93, i32* @_ZL5g_257, i32* null, i32* null, i32* @_ZL5g_132, i32* @_ZL3g_2], [10 x i32*] [i32* null, i32* null, i32* null, i32* @_ZL5g_132, i32* @_ZL3g_2, i32* @_ZL3g_2, i32* @_ZL4g_93, i32* @_ZL3g_2, i32* @_ZL5g_132, i32* @_ZL5g_257], [10 x i32*] [i32* @_ZL5g_257, i32* @_ZL5g_132, i32* @_ZL3g_2, i32* @_ZL5g_132, i32* @_ZL3g_2, i32* @_ZL3g_2, i32* @_ZL4g_93, i32* @_ZL3g_2, i32* @_ZL3g_2, i32* @_ZL3g_2]], [6 x [10 x i32*]] [[10 x i32*] [i32* @_ZL4g_93, i32* null, i32* null, i32* @_ZL5g_135, i32* @_ZL5g_132, i32* @_ZL5g_132, i32* @_ZL5g_135, i32* null, i32* null, i32* @_ZL4g_93], [10 x i32*] [i32* @_ZL5g_257, i32* @_ZL5g_257, i32* @_ZL3g_2, i32* @_ZL5g_132, i32* @_ZL3g_2, i32* @_ZL3g_2, i32* @_ZL4g_93, i32* @_ZL5g_257, i32* null, i32* @_ZL5g_257], [10 x i32*] [i32* @_ZL5g_135, i32* @_ZL3g_2, i32* @_ZL3g_2, i32* @_ZL5g_257, i32* @_ZL3g_2, i32* @_ZL3g_2, i32* @_ZL5g_132, i32* @_ZL4g_93, i32* @_ZL4g_93, i32* @_ZL4g_93], [10 x i32*] [i32* @_ZL3g_2, i32* @_ZL4g_93, i32* @_ZL5g_132, i32* @_ZL5g_132, i32* @_ZL5g_132, i32* @_ZL4g_93, i32* @_ZL3g_2, i32* @_ZL5g_257, i32* @_ZL5g_257, i32* @_ZL3g_2], [10 x i32*] [i32* null, i32* @_ZL3g_2, i32* @_ZL3g_2, i32* @_ZL5g_132, i32* @_ZL3g_2, i32* @_ZL5g_257, i32* null, i32* @_ZL5g_135, i32* @_ZL3g_2, i32* @_ZL5g_257], [10 x i32*] [i32* @_ZL5g_132, i32* @_ZL3g_2, i32* @_ZL3g_2, i32* @_ZL4g_93, i32* @_ZL3g_2, i32* @_ZL3g_2, i32* @_ZL3g_2, i32* @_ZL3g_2, i32* @_ZL3g_2, i32* @_ZL3g_2]]], align 4
@_ZZL7func_32tiPaE5l_369 = private unnamed_addr constant %struct.S0 { i16 -4, i8 1, i32 -4 }, align 4
@_ZZL7func_32tiPaE5l_382 = private unnamed_addr constant [6 x [1 x i16*]] [[1 x i16*] [i16* @_ZL5g_308], [1 x i16*] zeroinitializer, [1 x i16*] zeroinitializer, [1 x i16*] [i16* @_ZL5g_308], [1 x i16*] zeroinitializer, [1 x i16*] zeroinitializer], align 4
@_ZZL7func_32tiPaE5l_387 = private unnamed_addr constant %struct.S0 { i16 16776, i8 55, i32 1410444512 }, align 4
@_ZZL7func_32tiPaE5l_392 = private unnamed_addr constant [10 x [8 x i8]] [[8 x i8] c"\06\83r\00r\83\06\00", [8 x i8] c"\06\C7r\00r\C7\06\00", [8 x i8] c"\06\83r\00r\83\06\00", [8 x i8] c"\06\C7r\00r\C7\06\00", [8 x i8] c"\06\83r\00r\83\06\00", [8 x i8] c"\06\C7r\00r\C7\06\00", [8 x i8] c"\06\83r\00r\83\06\00", [8 x i8] c"\06\C7r\00r\C7\06\00", [8 x i8] c"\06\83r\00r\83\06\00", [8 x i8] c"\06\C7r\00r\C7\06\00"], align 1
@_ZZL7func_26jPKaPaS1_iE5l_398 = private unnamed_addr constant [9 x [8 x i8]] [[8 x i8] c"c\9E\00\9Eco\00o", [8 x i8] c"co\00oc\9E\00\9E", [8 x i8] c"c\9E\00\9Eco\00o", [8 x i8] c"co\00oc\9E\00\9E", [8 x i8] c"c\9E\00\9Eco\00o", [8 x i8] c"co\00oc\9E\00\9E", [8 x i8] c"c\9E\00\9Eco\00o", [8 x i8] c"co\00oc\9E\00\9E", [8 x i8] c"c\9E\00\9Eco\00o"], align 1
@_ZZL6func_8ijPasS_E6l_1016 = private unnamed_addr constant [5 x [3 x i32*]] [[3 x i32*] [i32* @_ZL5g_257, i32* @_ZL4g_93, i32* @_ZL4g_93], [3 x i32*] [i32* @_ZL5g_257, i32* @_ZL4g_93, i32* @_ZL4g_93], [3 x i32*] [i32* @_ZL5g_257, i32* @_ZL4g_93, i32* @_ZL4g_93], [3 x i32*] [i32* @_ZL5g_257, i32* @_ZL4g_93, i32* @_ZL4g_93], [3 x i32*] [i32* @_ZL5g_257, i32* @_ZL4g_93, i32* @_ZL4g_93]], align 4
@_ZZL6func_5PahE6l_1024 = private unnamed_addr constant [6 x i32*] [i32* null, i32* @_ZL3g_2, i32* @_ZL3g_2, i32* null, i32* @_ZL3g_2, i32* @_ZL3g_2], align 4
@_gm_ = internal global %struct.malloc_state zeroinitializer, align 4
@mparams = internal global %struct.malloc_params zeroinitializer, align 4
@stderr = external constant %struct._IO_FILE*
@.str49 = private unnamed_addr constant [26 x i8] c"max system bytes = %10lu\0A\00", align 1
@.str150 = private unnamed_addr constant [26 x i8] c"system bytes     = %10lu\0A\00", align 1
@.str251 = private unnamed_addr constant [26 x i8] c"in use bytes     = %10lu\0A\00", align 1
@_ZSt7nothrow = external constant %"struct.std::nothrow_t"
@_ZL13__new_handler = internal global void ()* null, align 4

@_ZTVSt9bad_alloc = external unnamed_addr constant [5 x i8*]

@.str352 = private unnamed_addr constant [15 x i8] c"std::bad_alloc\00", align 1
@_ZTVSt20bad_array_new_length = external unnamed_addr constant [5 x i8*]

@.str1453 = private unnamed_addr constant [17 x i8] c"bad_array_length\00", align 1
@_ZTVSt16bad_array_length = external unnamed_addr constant [5 x i8*]
@.str2554 = private unnamed_addr constant [21 x i8] c"bad_array_new_length\00", align 1
@_ZTVN10__cxxabiv120__si_class_type_infoE = external global i8*
@_ZTSSt9bad_alloc = external constant [13 x i8]
@_ZTISt9exception = external constant i8*
@_ZTISt9bad_alloc = external unnamed_addr constant { i8*, i8*, i8* }
@_ZTSSt20bad_array_new_length = external constant [25 x i8]
@_ZTISt20bad_array_new_length = external unnamed_addr constant { i8*, i8*, i8* }
@_ZTSSt16bad_array_length = external constant [21 x i8]
@_ZTISt16bad_array_length = external unnamed_addr constant { i8*, i8*, i8* }
@.str655 = private unnamed_addr constant [9 x i8] c"infinity\00", align 1
@.str1756 = private unnamed_addr constant [4 x i8] c"nan\00", align 1
@decfloat.th = internal unnamed_addr constant [2 x i32] [i32 9007199, i32 254740991], align 4
@decfloat.p10s = internal unnamed_addr constant [8 x i32] [i32 10, i32 100, i32 1000, i32 10000, i32 100000, i32 1000000, i32 10000000, i32 100000000], align 4

declare i32 @strcmp(i8*, i8*)

; Function Attrs: nounwind
define i32 @main(i32 %argc, i8** nocapture %argv) #0 {
entry:
  %cmp = icmp eq i32 %argc, 2
  br i1 %cmp, label %land.lhs.true, label %if.end

land.lhs.true:                                    ; preds = %entry
  %arrayidx = getelementptr inbounds i8*, i8** %argv, i32 1
  %0 = load i8*, i8** %arrayidx, align 4
  %call = tail call i32 @strcmp(i8* %0, i8* getelementptr inbounds ([2 x i8], [2 x i8]* @.str, i32 0, i32 0))
  %cmp1 = icmp eq i32 %call, 0
  %. = zext i1 %cmp1 to i32
  br label %if.end

if.end:                                           ; preds = %land.lhs.true, %entry
  %print_hash_value.0 = phi i32 [ 0, %entry ], [ %., %land.lhs.true ]
  tail call fastcc void @_ZL12crc32_gentabv()
  tail call fastcc void @_ZL6func_1v()
  %1 = load i32, i32* @_ZL3g_2, align 4
  %conv = sext i32 %1 to i64
  tail call fastcc void @_ZL15transparent_crcyPci(i64 %conv, i8* getelementptr inbounds ([4 x i8], [4 x i8]* @.str1, i32 0, i32 0), i32 %print_hash_value.0)
  %tobool = icmp eq i32 %print_hash_value.0, 0
  br label %for.cond4.preheader

for.cond4.preheader:                              ; preds = %for.inc20, %if.end
  %i.075 = phi i32 [ 0, %if.end ], [ %inc21, %for.inc20 ]
  br label %for.body9

for.body9:                                        ; preds = %for.inc.5, %for.cond4.preheader
  %j.074 = phi i32 [ 0, %for.cond4.preheader ], [ %inc18, %for.inc.5 ]
  %arrayidx12 = getelementptr inbounds [4 x [6 x [6 x i8]]], [4 x [6 x [6 x i8]]]* @_ZL4g_52, i32 0, i32 %i.075, i32 %j.074, i32 0
  %2 = load i8, i8* %arrayidx12, align 1
  %conv13 = sext i8 %2 to i64
  tail call fastcc void @_ZL15transparent_crcyPci(i64 %conv13, i8* getelementptr inbounds ([14 x i8], [14 x i8]* @.str2, i32 0, i32 0), i32 %print_hash_value.0)
  br i1 %tobool, label %for.inc.1.critedge, label %if.then14

if.then14:                                        ; preds = %for.body9
  %call15 = tail call i32 (i8*, ...) @printf(i8* getelementptr inbounds ([22 x i8], [22 x i8]* @.str3, i32 0, i32 0), i32 %i.075, i32 %j.074, i32 0)
  %arrayidx12.1 = getelementptr inbounds [4 x [6 x [6 x i8]]], [4 x [6 x [6 x i8]]]* @_ZL4g_52, i32 0, i32 %i.075, i32 %j.074, i32 1
  %3 = load i8, i8* %arrayidx12.1, align 1
  %conv13.1 = sext i8 %3 to i64
  tail call fastcc void @_ZL15transparent_crcyPci(i64 %conv13.1, i8* getelementptr inbounds ([14 x i8], [14 x i8]* @.str2, i32 0, i32 0), i32 %print_hash_value.0)
  %call15.1 = tail call i32 (i8*, ...) @printf(i8* getelementptr inbounds ([22 x i8], [22 x i8]* @.str3, i32 0, i32 0), i32 %i.075, i32 %j.074, i32 1)
  br label %for.inc.1

for.inc20:                                        ; preds = %for.inc.5
  %inc21 = add nsw i32 %i.075, 1
  %exitcond76 = icmp eq i32 %inc21, 4
  br i1 %exitcond76, label %for.body45, label %for.cond4.preheader

for.body45:                                       ; preds = %for.inc20
  %4 = load i32, i32* @_ZL4g_53, align 4
  %conv23 = sext i32 %4 to i64
  tail call fastcc void @_ZL15transparent_crcyPci(i64 %conv23, i8* getelementptr inbounds ([5 x i8], [5 x i8]* @.str4, i32 0, i32 0), i32 %print_hash_value.0)
  %5 = load i8, i8* getelementptr inbounds ({ i8, [3 x i8] }, { i8, [3 x i8] }* @_ZL4g_74, i32 0, i32 0), align 4
  %conv24 = zext i8 %5 to i64
  tail call fastcc void @_ZL15transparent_crcyPci(i64 %conv24, i8* getelementptr inbounds ([8 x i8], [8 x i8]* @.str5, i32 0, i32 0), i32 %print_hash_value.0)
  %6 = load i8, i8* getelementptr inbounds ({ i8, [3 x i8] }, { i8, [3 x i8] }* @_ZL4g_74, i32 0, i32 0), align 4
  %conv25 = sext i8 %6 to i64
  tail call fastcc void @_ZL15transparent_crcyPci(i64 %conv25, i8* getelementptr inbounds ([8 x i8], [8 x i8]* @.str6, i32 0, i32 0), i32 %print_hash_value.0)
  %7 = load i16, i16* @_ZL4g_77, align 2
  %conv26 = zext i16 %7 to i64
  tail call fastcc void @_ZL15transparent_crcyPci(i64 %conv26, i8* getelementptr inbounds ([5 x i8], [5 x i8]* @.str7, i32 0, i32 0), i32 %print_hash_value.0)
  %8 = load i16, i16* @_ZL4g_79, align 2
  %conv27 = zext i16 %8 to i64
  tail call fastcc void @_ZL15transparent_crcyPci(i64 %conv27, i8* getelementptr inbounds ([5 x i8], [5 x i8]* @.str8, i32 0, i32 0), i32 %print_hash_value.0)
  %9 = load i16, i16* @_ZL4g_82, align 2
  %conv28 = zext i16 %9 to i64
  tail call fastcc void @_ZL15transparent_crcyPci(i64 %conv28, i8* getelementptr inbounds ([5 x i8], [5 x i8]* @.str9, i32 0, i32 0), i32 %print_hash_value.0)
  %10 = load i16, i16* getelementptr inbounds (%struct.S0, %struct.S0* @_ZL4g_83, i32 0, i32 0), align 8
  %conv29 = sext i16 %10 to i64
  tail call fastcc void @_ZL15transparent_crcyPci(i64 %conv29, i8* getelementptr inbounds ([8 x i8], [8 x i8]* @.str10, i32 0, i32 0), i32 %print_hash_value.0)
  %11 = load i8, i8* getelementptr inbounds (%struct.S0, %struct.S0* @_ZL4g_83, i32 0, i32 1), align 2
  %conv30 = sext i8 %11 to i64
  tail call fastcc void @_ZL15transparent_crcyPci(i64 %conv30, i8* getelementptr inbounds ([8 x i8], [8 x i8]* @.str11, i32 0, i32 0), i32 %print_hash_value.0)
  %12 = load i32, i32* getelementptr inbounds (%struct.S0, %struct.S0* @_ZL4g_83, i32 0, i32 2), align 4
  %conv31 = zext i32 %12 to i64
  tail call fastcc void @_ZL15transparent_crcyPci(i64 %conv31, i8* getelementptr inbounds ([8 x i8], [8 x i8]* @.str12, i32 0, i32 0), i32 %print_hash_value.0)
  %13 = load i32, i32* @_ZL4g_93, align 4
  %conv32 = sext i32 %13 to i64
  tail call fastcc void @_ZL15transparent_crcyPci(i64 %conv32, i8* getelementptr inbounds ([5 x i8], [5 x i8]* @.str13, i32 0, i32 0), i32 %print_hash_value.0)
  %14 = load i16, i16* @_ZL5g_103, align 2
  %conv33 = zext i16 %14 to i64
  tail call fastcc void @_ZL15transparent_crcyPci(i64 %conv33, i8* getelementptr inbounds ([6 x i8], [6 x i8]* @.str14, i32 0, i32 0), i32 %print_hash_value.0)
  %15 = load i8, i8* @_ZL5g_126, align 1
  %conv34 = sext i8 %15 to i64
  tail call fastcc void @_ZL15transparent_crcyPci(i64 %conv34, i8* getelementptr inbounds ([6 x i8], [6 x i8]* @.str15, i32 0, i32 0), i32 %print_hash_value.0)
  %16 = load i32, i32* @_ZL5g_132, align 4
  %conv35 = sext i32 %16 to i64
  tail call fastcc void @_ZL15transparent_crcyPci(i64 %conv35, i8* getelementptr inbounds ([6 x i8], [6 x i8]* @.str16, i32 0, i32 0), i32 %print_hash_value.0)
  %17 = load i8, i8* @_ZL5g_133, align 1
  %conv36 = sext i8 %17 to i64
  tail call fastcc void @_ZL15transparent_crcyPci(i64 %conv36, i8* getelementptr inbounds ([6 x i8], [6 x i8]* @.str17, i32 0, i32 0), i32 %print_hash_value.0)
  %18 = load i32, i32* @_ZL5g_135, align 4
  %conv37 = sext i32 %18 to i64
  tail call fastcc void @_ZL15transparent_crcyPci(i64 %conv37, i8* getelementptr inbounds ([6 x i8], [6 x i8]* @.str18, i32 0, i32 0), i32 %print_hash_value.0)
  %19 = load i8, i8* @_ZL5g_136, align 1
  %conv38 = sext i8 %19 to i64
  tail call fastcc void @_ZL15transparent_crcyPci(i64 %conv38, i8* getelementptr inbounds ([6 x i8], [6 x i8]* @.str19, i32 0, i32 0), i32 %print_hash_value.0)
  %20 = load i32, i32* @_ZL5g_138, align 4
  %conv39 = zext i32 %20 to i64
  tail call fastcc void @_ZL15transparent_crcyPci(i64 %conv39, i8* getelementptr inbounds ([6 x i8], [6 x i8]* @.str20, i32 0, i32 0), i32 %print_hash_value.0)
  %21 = load i16, i16* @_ZL5g_162, align 2
  %conv40 = sext i16 %21 to i64
  tail call fastcc void @_ZL15transparent_crcyPci(i64 %conv40, i8* getelementptr inbounds ([6 x i8], [6 x i8]* @.str21, i32 0, i32 0), i32 %print_hash_value.0)
  %22 = load i16, i16* @_ZL5g_168, align 2
  %conv41 = sext i16 %22 to i64
  tail call fastcc void @_ZL15transparent_crcyPci(i64 %conv41, i8* getelementptr inbounds ([6 x i8], [6 x i8]* @.str22, i32 0, i32 0), i32 %print_hash_value.0)
  %23 = load i8, i8* @_ZL5g_170, align 1
  %conv42 = zext i8 %23 to i64
  tail call fastcc void @_ZL15transparent_crcyPci(i64 %conv42, i8* getelementptr inbounds ([6 x i8], [6 x i8]* @.str23, i32 0, i32 0), i32 %print_hash_value.0)
  %tobool48 = icmp eq i32 %print_hash_value.0, 0
  %24 = load i8, i8* getelementptr inbounds ([8 x i8], [8 x i8]* @_ZL5g_171, i32 0, i32 0), align 1
  %conv47 = sext i8 %24 to i64
  tail call fastcc void @_ZL15transparent_crcyPci(i64 %conv47, i8* getelementptr inbounds ([9 x i8], [9 x i8]* @.str24, i32 0, i32 0), i32 %print_hash_value.0)
  br i1 %tobool48, label %for.inc52.6.thread, label %if.then49.7

for.inc52.6.thread:                               ; preds = %for.body45
  %25 = load i8, i8* getelementptr inbounds ([8 x i8], [8 x i8]* @_ZL5g_171, i32 0, i32 1), align 1
  %conv47.177 = sext i8 %25 to i64
  tail call fastcc void @_ZL15transparent_crcyPci(i64 %conv47.177, i8* getelementptr inbounds ([9 x i8], [9 x i8]* @.str24, i32 0, i32 0), i32 %print_hash_value.0)
  %26 = load i8, i8* getelementptr inbounds ([8 x i8], [8 x i8]* @_ZL5g_171, i32 0, i32 2), align 1
  %conv47.278 = sext i8 %26 to i64
  tail call fastcc void @_ZL15transparent_crcyPci(i64 %conv47.278, i8* getelementptr inbounds ([9 x i8], [9 x i8]* @.str24, i32 0, i32 0), i32 %print_hash_value.0)
  %27 = load i8, i8* getelementptr inbounds ([8 x i8], [8 x i8]* @_ZL5g_171, i32 0, i32 3), align 1
  %conv47.379 = sext i8 %27 to i64
  tail call fastcc void @_ZL15transparent_crcyPci(i64 %conv47.379, i8* getelementptr inbounds ([9 x i8], [9 x i8]* @.str24, i32 0, i32 0), i32 %print_hash_value.0)
  %28 = load i8, i8* getelementptr inbounds ([8 x i8], [8 x i8]* @_ZL5g_171, i32 0, i32 4), align 1
  %conv47.480 = sext i8 %28 to i64
  tail call fastcc void @_ZL15transparent_crcyPci(i64 %conv47.480, i8* getelementptr inbounds ([9 x i8], [9 x i8]* @.str24, i32 0, i32 0), i32 %print_hash_value.0)
  %29 = load i8, i8* getelementptr inbounds ([8 x i8], [8 x i8]* @_ZL5g_171, i32 0, i32 5), align 1
  %conv47.581 = sext i8 %29 to i64
  tail call fastcc void @_ZL15transparent_crcyPci(i64 %conv47.581, i8* getelementptr inbounds ([9 x i8], [9 x i8]* @.str24, i32 0, i32 0), i32 %print_hash_value.0)
  %30 = load i8, i8* getelementptr inbounds ([8 x i8], [8 x i8]* @_ZL5g_171, i32 0, i32 6), align 1
  %conv47.682 = sext i8 %30 to i64
  tail call fastcc void @_ZL15transparent_crcyPci(i64 %conv47.682, i8* getelementptr inbounds ([9 x i8], [9 x i8]* @.str24, i32 0, i32 0), i32 %print_hash_value.0)
  %31 = load i8, i8* getelementptr inbounds ([8 x i8], [8 x i8]* @_ZL5g_171, i32 0, i32 7), align 1
  %conv47.783 = sext i8 %31 to i64
  tail call fastcc void @_ZL15transparent_crcyPci(i64 %conv47.783, i8* getelementptr inbounds ([9 x i8], [9 x i8]* @.str24, i32 0, i32 0), i32 %print_hash_value.0)
  br label %for.body70

for.body70:                                       ; preds = %if.then49.7, %for.inc52.6.thread
  %32 = load i16, i16* @_ZL5g_172, align 2
  %conv55 = zext i16 %32 to i64
  tail call fastcc void @_ZL15transparent_crcyPci(i64 %conv55, i8* getelementptr inbounds ([6 x i8], [6 x i8]* @.str26, i32 0, i32 0), i32 %print_hash_value.0)
  %33 = load i32, i32* @_ZL5g_257, align 4
  %conv56 = sext i32 %33 to i64
  tail call fastcc void @_ZL15transparent_crcyPci(i64 %conv56, i8* getelementptr inbounds ([6 x i8], [6 x i8]* @.str27, i32 0, i32 0), i32 %print_hash_value.0)
  %34 = load i8, i8* @_ZL5g_304, align 1
  %conv57 = sext i8 %34 to i64
  tail call fastcc void @_ZL15transparent_crcyPci(i64 %conv57, i8* getelementptr inbounds ([6 x i8], [6 x i8]* @.str28, i32 0, i32 0), i32 %print_hash_value.0)
  %35 = load i16, i16* @_ZL5g_308, align 2
  %conv58 = zext i16 %35 to i64
  tail call fastcc void @_ZL15transparent_crcyPci(i64 %conv58, i8* getelementptr inbounds ([6 x i8], [6 x i8]* @.str29, i32 0, i32 0), i32 %print_hash_value.0)
  %36 = load i16, i16* @_ZL5g_361, align 2
  %conv59 = zext i16 %36 to i64
  tail call fastcc void @_ZL15transparent_crcyPci(i64 %conv59, i8* getelementptr inbounds ([6 x i8], [6 x i8]* @.str30, i32 0, i32 0), i32 %print_hash_value.0)
  %37 = load i32, i32* @_ZL5g_400, align 4
  %conv60 = sext i32 %37 to i64
  tail call fastcc void @_ZL15transparent_crcyPci(i64 %conv60, i8* getelementptr inbounds ([6 x i8], [6 x i8]* @.str31, i32 0, i32 0), i32 %print_hash_value.0)
  tail call fastcc void @_ZL15transparent_crcyPci(i64 -1, i8* getelementptr inbounds ([6 x i8], [6 x i8]* @.str32, i32 0, i32 0), i32 %print_hash_value.0)
  %38 = load i16, i16* getelementptr inbounds (%struct.S0, %struct.S0* @_ZL5g_471, i32 0, i32 0), align 8
  %conv62 = sext i16 %38 to i64
  tail call fastcc void @_ZL15transparent_crcyPci(i64 %conv62, i8* getelementptr inbounds ([9 x i8], [9 x i8]* @.str33, i32 0, i32 0), i32 %print_hash_value.0)
  %39 = load i8, i8* getelementptr inbounds (%struct.S0, %struct.S0* @_ZL5g_471, i32 0, i32 1), align 2
  %conv63 = sext i8 %39 to i64
  tail call fastcc void @_ZL15transparent_crcyPci(i64 %conv63, i8* getelementptr inbounds ([9 x i8], [9 x i8]* @.str34, i32 0, i32 0), i32 %print_hash_value.0)
  %40 = load i32, i32* getelementptr inbounds (%struct.S0, %struct.S0* @_ZL5g_471, i32 0, i32 2), align 4
  %conv64 = zext i32 %40 to i64
  tail call fastcc void @_ZL15transparent_crcyPci(i64 %conv64, i8* getelementptr inbounds ([9 x i8], [9 x i8]* @.str35, i32 0, i32 0), i32 %print_hash_value.0)
  %41 = load i32, i32* @_ZL5g_546, align 4
  %conv65 = sext i32 %41 to i64
  tail call fastcc void @_ZL15transparent_crcyPci(i64 %conv65, i8* getelementptr inbounds ([6 x i8], [6 x i8]* @.str36, i32 0, i32 0), i32 %print_hash_value.0)
  tail call fastcc void @_ZL15transparent_crcyPci(i64 2891502546, i8* getelementptr inbounds ([6 x i8], [6 x i8]* @.str37, i32 0, i32 0), i32 %print_hash_value.0)
  tail call fastcc void @_ZL15transparent_crcyPci(i64 255, i8* getelementptr inbounds ([6 x i8], [6 x i8]* @.str38, i32 0, i32 0), i32 %print_hash_value.0)
  %tobool73 = icmp eq i32 %print_hash_value.0, 0
  tail call fastcc void @_ZL15transparent_crcyPci(i64 3761930302, i8* getelementptr inbounds ([9 x i8], [9 x i8]* @.str39, i32 0, i32 0), i32 %print_hash_value.0)
  br i1 %tobool73, label %for.inc77.8.thread, label %if.then74.9

for.inc77.8.thread:                               ; preds = %for.body70
  tail call fastcc void @_ZL15transparent_crcyPci(i64 3761930302, i8* getelementptr inbounds ([9 x i8], [9 x i8]* @.str39, i32 0, i32 0), i32 %print_hash_value.0)
  tail call fastcc void @_ZL15transparent_crcyPci(i64 1950933783, i8* getelementptr inbounds ([9 x i8], [9 x i8]* @.str39, i32 0, i32 0), i32 %print_hash_value.0)
  tail call fastcc void @_ZL15transparent_crcyPci(i64 3761930302, i8* getelementptr inbounds ([9 x i8], [9 x i8]* @.str39, i32 0, i32 0), i32 %print_hash_value.0)
  tail call fastcc void @_ZL15transparent_crcyPci(i64 3761930302, i8* getelementptr inbounds ([9 x i8], [9 x i8]* @.str39, i32 0, i32 0), i32 %print_hash_value.0)
  tail call fastcc void @_ZL15transparent_crcyPci(i64 1950933783, i8* getelementptr inbounds ([9 x i8], [9 x i8]* @.str39, i32 0, i32 0), i32 %print_hash_value.0)
  tail call fastcc void @_ZL15transparent_crcyPci(i64 3761930302, i8* getelementptr inbounds ([9 x i8], [9 x i8]* @.str39, i32 0, i32 0), i32 %print_hash_value.0)
  tail call fastcc void @_ZL15transparent_crcyPci(i64 3761930302, i8* getelementptr inbounds ([9 x i8], [9 x i8]* @.str39, i32 0, i32 0), i32 %print_hash_value.0)
  tail call fastcc void @_ZL15transparent_crcyPci(i64 1950933783, i8* getelementptr inbounds ([9 x i8], [9 x i8]* @.str39, i32 0, i32 0), i32 %print_hash_value.0)
  tail call fastcc void @_ZL15transparent_crcyPci(i64 3761930302, i8* getelementptr inbounds ([9 x i8], [9 x i8]* @.str39, i32 0, i32 0), i32 %print_hash_value.0)
  br label %for.body88

for.body88:                                       ; preds = %if.then74.9, %for.inc77.8.thread
  %42 = load i8, i8* @_ZL6g_1010, align 1
  %conv80 = sext i8 %42 to i64
  tail call fastcc void @_ZL15transparent_crcyPci(i64 %conv80, i8* getelementptr inbounds ([7 x i8], [7 x i8]* @.str40, i32 0, i32 0), i32 %print_hash_value.0)
  %43 = load i8, i8* @_ZL6g_1025, align 1
  %conv81 = zext i8 %43 to i64
  tail call fastcc void @_ZL15transparent_crcyPci(i64 %conv81, i8* getelementptr inbounds ([7 x i8], [7 x i8]* @.str41, i32 0, i32 0), i32 %print_hash_value.0)
  %44 = load i8, i8* @_ZL6g_1136, align 1
  %conv82 = zext i8 %44 to i64
  tail call fastcc void @_ZL15transparent_crcyPci(i64 %conv82, i8* getelementptr inbounds ([7 x i8], [7 x i8]* @.str42, i32 0, i32 0), i32 %print_hash_value.0)
  tail call fastcc void @_ZL15transparent_crcyPci(i64 1, i8* getelementptr inbounds ([7 x i8], [7 x i8]* @.str43, i32 0, i32 0), i32 %print_hash_value.0)
  tail call fastcc void @_ZL15transparent_crcyPci(i64 7, i8* getelementptr inbounds ([7 x i8], [7 x i8]* @.str44, i32 0, i32 0), i32 %print_hash_value.0)
  %45 = load i32, i32* @_ZL6g_1198, align 4
  %conv85 = sext i32 %45 to i64
  tail call fastcc void @_ZL15transparent_crcyPci(i64 %conv85, i8* getelementptr inbounds ([7 x i8], [7 x i8]* @.str45, i32 0, i32 0), i32 %print_hash_value.0)
  %tobool91 = icmp eq i32 %print_hash_value.0, 0
  tail call fastcc void @_ZL15transparent_crcyPci(i64 4294967293, i8* getelementptr inbounds ([10 x i8], [10 x i8]* @.str46, i32 0, i32 0), i32 %print_hash_value.0)
  br i1 %tobool91, label %for.inc95.6.thread, label %if.then92.7

for.inc95.6.thread:                               ; preds = %for.body88
  tail call fastcc void @_ZL15transparent_crcyPci(i64 2870230573, i8* getelementptr inbounds ([10 x i8], [10 x i8]* @.str46, i32 0, i32 0), i32 %print_hash_value.0)
  tail call fastcc void @_ZL15transparent_crcyPci(i64 2870230573, i8* getelementptr inbounds ([10 x i8], [10 x i8]* @.str46, i32 0, i32 0), i32 %print_hash_value.0)
  tail call fastcc void @_ZL15transparent_crcyPci(i64 4294967293, i8* getelementptr inbounds ([10 x i8], [10 x i8]* @.str46, i32 0, i32 0), i32 %print_hash_value.0)
  tail call fastcc void @_ZL15transparent_crcyPci(i64 2870230573, i8* getelementptr inbounds ([10 x i8], [10 x i8]* @.str46, i32 0, i32 0), i32 %print_hash_value.0)
  tail call fastcc void @_ZL15transparent_crcyPci(i64 2870230573, i8* getelementptr inbounds ([10 x i8], [10 x i8]* @.str46, i32 0, i32 0), i32 %print_hash_value.0)
  tail call fastcc void @_ZL15transparent_crcyPci(i64 4294967293, i8* getelementptr inbounds ([10 x i8], [10 x i8]* @.str46, i32 0, i32 0), i32 %print_hash_value.0)
  tail call fastcc void @_ZL15transparent_crcyPci(i64 2870230573, i8* getelementptr inbounds ([10 x i8], [10 x i8]* @.str46, i32 0, i32 0), i32 %print_hash_value.0)
  br label %for.inc95.7

if.then92.7:                                      ; preds = %for.body88
  %call93 = tail call i32 (i8*, ...) @printf(i8* getelementptr inbounds ([14 x i8], [14 x i8]* @.str25, i32 0, i32 0), i32 0)
  tail call fastcc void @_ZL15transparent_crcyPci(i64 2870230573, i8* getelementptr inbounds ([10 x i8], [10 x i8]* @.str46, i32 0, i32 0), i32 %print_hash_value.0)
  %call93.1 = tail call i32 (i8*, ...) @printf(i8* getelementptr inbounds ([14 x i8], [14 x i8]* @.str25, i32 0, i32 0), i32 1)
  tail call fastcc void @_ZL15transparent_crcyPci(i64 2870230573, i8* getelementptr inbounds ([10 x i8], [10 x i8]* @.str46, i32 0, i32 0), i32 %print_hash_value.0)
  %call93.2 = tail call i32 (i8*, ...) @printf(i8* getelementptr inbounds ([14 x i8], [14 x i8]* @.str25, i32 0, i32 0), i32 2)
  tail call fastcc void @_ZL15transparent_crcyPci(i64 4294967293, i8* getelementptr inbounds ([10 x i8], [10 x i8]* @.str46, i32 0, i32 0), i32 %print_hash_value.0)
  %call93.3 = tail call i32 (i8*, ...) @printf(i8* getelementptr inbounds ([14 x i8], [14 x i8]* @.str25, i32 0, i32 0), i32 3)
  tail call fastcc void @_ZL15transparent_crcyPci(i64 2870230573, i8* getelementptr inbounds ([10 x i8], [10 x i8]* @.str46, i32 0, i32 0), i32 %print_hash_value.0)
  %call93.4 = tail call i32 (i8*, ...) @printf(i8* getelementptr inbounds ([14 x i8], [14 x i8]* @.str25, i32 0, i32 0), i32 4)
  tail call fastcc void @_ZL15transparent_crcyPci(i64 2870230573, i8* getelementptr inbounds ([10 x i8], [10 x i8]* @.str46, i32 0, i32 0), i32 %print_hash_value.0)
  %call93.5 = tail call i32 (i8*, ...) @printf(i8* getelementptr inbounds ([14 x i8], [14 x i8]* @.str25, i32 0, i32 0), i32 5)
  tail call fastcc void @_ZL15transparent_crcyPci(i64 4294967293, i8* getelementptr inbounds ([10 x i8], [10 x i8]* @.str46, i32 0, i32 0), i32 %print_hash_value.0)
  %call93.6 = tail call i32 (i8*, ...) @printf(i8* getelementptr inbounds ([14 x i8], [14 x i8]* @.str25, i32 0, i32 0), i32 6)
  tail call fastcc void @_ZL15transparent_crcyPci(i64 2870230573, i8* getelementptr inbounds ([10 x i8], [10 x i8]* @.str46, i32 0, i32 0), i32 %print_hash_value.0)
  %call93.7 = tail call i32 (i8*, ...) @printf(i8* getelementptr inbounds ([14 x i8], [14 x i8]* @.str25, i32 0, i32 0), i32 7)
  br label %for.inc95.7

for.inc95.7:                                      ; preds = %if.then92.7, %for.inc95.6.thread
  %46 = load i32, i32* @_ZL13crc32_context, align 4
  %xor = xor i32 %46, -1
  tail call fastcc void @_ZL17platform_main_endji(i32 %xor)
  ret i32 0

if.then74.9:                                      ; preds = %for.body70
  %call75 = tail call i32 (i8*, ...) @printf(i8* getelementptr inbounds ([14 x i8], [14 x i8]* @.str25, i32 0, i32 0), i32 0)
  tail call fastcc void @_ZL15transparent_crcyPci(i64 3761930302, i8* getelementptr inbounds ([9 x i8], [9 x i8]* @.str39, i32 0, i32 0), i32 %print_hash_value.0)
  %call75.1 = tail call i32 (i8*, ...) @printf(i8* getelementptr inbounds ([14 x i8], [14 x i8]* @.str25, i32 0, i32 0), i32 1)
  tail call fastcc void @_ZL15transparent_crcyPci(i64 1950933783, i8* getelementptr inbounds ([9 x i8], [9 x i8]* @.str39, i32 0, i32 0), i32 %print_hash_value.0)
  %call75.2 = tail call i32 (i8*, ...) @printf(i8* getelementptr inbounds ([14 x i8], [14 x i8]* @.str25, i32 0, i32 0), i32 2)
  tail call fastcc void @_ZL15transparent_crcyPci(i64 3761930302, i8* getelementptr inbounds ([9 x i8], [9 x i8]* @.str39, i32 0, i32 0), i32 %print_hash_value.0)
  %call75.3 = tail call i32 (i8*, ...) @printf(i8* getelementptr inbounds ([14 x i8], [14 x i8]* @.str25, i32 0, i32 0), i32 3)
  tail call fastcc void @_ZL15transparent_crcyPci(i64 3761930302, i8* getelementptr inbounds ([9 x i8], [9 x i8]* @.str39, i32 0, i32 0), i32 %print_hash_value.0)
  %call75.4 = tail call i32 (i8*, ...) @printf(i8* getelementptr inbounds ([14 x i8], [14 x i8]* @.str25, i32 0, i32 0), i32 4)
  tail call fastcc void @_ZL15transparent_crcyPci(i64 1950933783, i8* getelementptr inbounds ([9 x i8], [9 x i8]* @.str39, i32 0, i32 0), i32 %print_hash_value.0)
  %call75.5 = tail call i32 (i8*, ...) @printf(i8* getelementptr inbounds ([14 x i8], [14 x i8]* @.str25, i32 0, i32 0), i32 5)
  tail call fastcc void @_ZL15transparent_crcyPci(i64 3761930302, i8* getelementptr inbounds ([9 x i8], [9 x i8]* @.str39, i32 0, i32 0), i32 %print_hash_value.0)
  %call75.6 = tail call i32 (i8*, ...) @printf(i8* getelementptr inbounds ([14 x i8], [14 x i8]* @.str25, i32 0, i32 0), i32 6)
  tail call fastcc void @_ZL15transparent_crcyPci(i64 3761930302, i8* getelementptr inbounds ([9 x i8], [9 x i8]* @.str39, i32 0, i32 0), i32 %print_hash_value.0)
  %call75.7 = tail call i32 (i8*, ...) @printf(i8* getelementptr inbounds ([14 x i8], [14 x i8]* @.str25, i32 0, i32 0), i32 7)
  tail call fastcc void @_ZL15transparent_crcyPci(i64 1950933783, i8* getelementptr inbounds ([9 x i8], [9 x i8]* @.str39, i32 0, i32 0), i32 %print_hash_value.0)
  %call75.8 = tail call i32 (i8*, ...) @printf(i8* getelementptr inbounds ([14 x i8], [14 x i8]* @.str25, i32 0, i32 0), i32 8)
  tail call fastcc void @_ZL15transparent_crcyPci(i64 3761930302, i8* getelementptr inbounds ([9 x i8], [9 x i8]* @.str39, i32 0, i32 0), i32 %print_hash_value.0)
  %call75.9 = tail call i32 (i8*, ...) @printf(i8* getelementptr inbounds ([14 x i8], [14 x i8]* @.str25, i32 0, i32 0), i32 9)
  br label %for.body88

if.then49.7:                                      ; preds = %for.body45
  %call50 = tail call i32 (i8*, ...) @printf(i8* getelementptr inbounds ([14 x i8], [14 x i8]* @.str25, i32 0, i32 0), i32 0)
  %47 = load i8, i8* getelementptr inbounds ([8 x i8], [8 x i8]* @_ZL5g_171, i32 0, i32 1), align 1
  %conv47.1 = sext i8 %47 to i64
  tail call fastcc void @_ZL15transparent_crcyPci(i64 %conv47.1, i8* getelementptr inbounds ([9 x i8], [9 x i8]* @.str24, i32 0, i32 0), i32 %print_hash_value.0)
  %call50.1 = tail call i32 (i8*, ...) @printf(i8* getelementptr inbounds ([14 x i8], [14 x i8]* @.str25, i32 0, i32 0), i32 1)
  %48 = load i8, i8* getelementptr inbounds ([8 x i8], [8 x i8]* @_ZL5g_171, i32 0, i32 2), align 1
  %conv47.2 = sext i8 %48 to i64
  tail call fastcc void @_ZL15transparent_crcyPci(i64 %conv47.2, i8* getelementptr inbounds ([9 x i8], [9 x i8]* @.str24, i32 0, i32 0), i32 %print_hash_value.0)
  %call50.2 = tail call i32 (i8*, ...) @printf(i8* getelementptr inbounds ([14 x i8], [14 x i8]* @.str25, i32 0, i32 0), i32 2)
  %49 = load i8, i8* getelementptr inbounds ([8 x i8], [8 x i8]* @_ZL5g_171, i32 0, i32 3), align 1
  %conv47.3 = sext i8 %49 to i64
  tail call fastcc void @_ZL15transparent_crcyPci(i64 %conv47.3, i8* getelementptr inbounds ([9 x i8], [9 x i8]* @.str24, i32 0, i32 0), i32 %print_hash_value.0)
  %call50.3 = tail call i32 (i8*, ...) @printf(i8* getelementptr inbounds ([14 x i8], [14 x i8]* @.str25, i32 0, i32 0), i32 3)
  %50 = load i8, i8* getelementptr inbounds ([8 x i8], [8 x i8]* @_ZL5g_171, i32 0, i32 4), align 1
  %conv47.4 = sext i8 %50 to i64
  tail call fastcc void @_ZL15transparent_crcyPci(i64 %conv47.4, i8* getelementptr inbounds ([9 x i8], [9 x i8]* @.str24, i32 0, i32 0), i32 %print_hash_value.0)
  %call50.4 = tail call i32 (i8*, ...) @printf(i8* getelementptr inbounds ([14 x i8], [14 x i8]* @.str25, i32 0, i32 0), i32 4)
  %51 = load i8, i8* getelementptr inbounds ([8 x i8], [8 x i8]* @_ZL5g_171, i32 0, i32 5), align 1
  %conv47.5 = sext i8 %51 to i64
  tail call fastcc void @_ZL15transparent_crcyPci(i64 %conv47.5, i8* getelementptr inbounds ([9 x i8], [9 x i8]* @.str24, i32 0, i32 0), i32 %print_hash_value.0)
  %call50.5 = tail call i32 (i8*, ...) @printf(i8* getelementptr inbounds ([14 x i8], [14 x i8]* @.str25, i32 0, i32 0), i32 5)
  %52 = load i8, i8* getelementptr inbounds ([8 x i8], [8 x i8]* @_ZL5g_171, i32 0, i32 6), align 1
  %conv47.6 = sext i8 %52 to i64
  tail call fastcc void @_ZL15transparent_crcyPci(i64 %conv47.6, i8* getelementptr inbounds ([9 x i8], [9 x i8]* @.str24, i32 0, i32 0), i32 %print_hash_value.0)
  %call50.6 = tail call i32 (i8*, ...) @printf(i8* getelementptr inbounds ([14 x i8], [14 x i8]* @.str25, i32 0, i32 0), i32 6)
  %53 = load i8, i8* getelementptr inbounds ([8 x i8], [8 x i8]* @_ZL5g_171, i32 0, i32 7), align 1
  %conv47.7 = sext i8 %53 to i64
  tail call fastcc void @_ZL15transparent_crcyPci(i64 %conv47.7, i8* getelementptr inbounds ([9 x i8], [9 x i8]* @.str24, i32 0, i32 0), i32 %print_hash_value.0)
  %call50.7 = tail call i32 (i8*, ...) @printf(i8* getelementptr inbounds ([14 x i8], [14 x i8]* @.str25, i32 0, i32 0), i32 7)
  br label %for.body70

for.inc.1.critedge:                               ; preds = %for.body9
  %arrayidx12.1.c = getelementptr inbounds [4 x [6 x [6 x i8]]], [4 x [6 x [6 x i8]]]* @_ZL4g_52, i32 0, i32 %i.075, i32 %j.074, i32 1
  %54 = load i8, i8* %arrayidx12.1.c, align 1
  %conv13.1.c = sext i8 %54 to i64
  tail call fastcc void @_ZL15transparent_crcyPci(i64 %conv13.1.c, i8* getelementptr inbounds ([14 x i8], [14 x i8]* @.str2, i32 0, i32 0), i32 %print_hash_value.0)
  br label %for.inc.1

for.inc.1:                                        ; preds = %for.inc.1.critedge, %if.then14
  %arrayidx12.2 = getelementptr inbounds [4 x [6 x [6 x i8]]], [4 x [6 x [6 x i8]]]* @_ZL4g_52, i32 0, i32 %i.075, i32 %j.074, i32 2
  %55 = load i8, i8* %arrayidx12.2, align 1
  %conv13.2 = sext i8 %55 to i64
  tail call fastcc void @_ZL15transparent_crcyPci(i64 %conv13.2, i8* getelementptr inbounds ([14 x i8], [14 x i8]* @.str2, i32 0, i32 0), i32 %print_hash_value.0)
  br i1 %tobool, label %for.inc.3.critedge, label %if.then14.2

if.then14.2:                                      ; preds = %for.inc.1
  %call15.2 = tail call i32 (i8*, ...) @printf(i8* getelementptr inbounds ([22 x i8], [22 x i8]* @.str3, i32 0, i32 0), i32 %i.075, i32 %j.074, i32 2)
  %arrayidx12.3 = getelementptr inbounds [4 x [6 x [6 x i8]]], [4 x [6 x [6 x i8]]]* @_ZL4g_52, i32 0, i32 %i.075, i32 %j.074, i32 3
  %56 = load i8, i8* %arrayidx12.3, align 1
  %conv13.3 = sext i8 %56 to i64
  tail call fastcc void @_ZL15transparent_crcyPci(i64 %conv13.3, i8* getelementptr inbounds ([14 x i8], [14 x i8]* @.str2, i32 0, i32 0), i32 %print_hash_value.0)
  %call15.3 = tail call i32 (i8*, ...) @printf(i8* getelementptr inbounds ([22 x i8], [22 x i8]* @.str3, i32 0, i32 0), i32 %i.075, i32 %j.074, i32 3)
  br label %for.inc.3

for.inc.3.critedge:                               ; preds = %for.inc.1
  %arrayidx12.3.c = getelementptr inbounds [4 x [6 x [6 x i8]]], [4 x [6 x [6 x i8]]]* @_ZL4g_52, i32 0, i32 %i.075, i32 %j.074, i32 3
  %57 = load i8, i8* %arrayidx12.3.c, align 1
  %conv13.3.c = sext i8 %57 to i64
  tail call fastcc void @_ZL15transparent_crcyPci(i64 %conv13.3.c, i8* getelementptr inbounds ([14 x i8], [14 x i8]* @.str2, i32 0, i32 0), i32 %print_hash_value.0)
  br label %for.inc.3

for.inc.3:                                        ; preds = %for.inc.3.critedge, %if.then14.2
  %arrayidx12.4 = getelementptr inbounds [4 x [6 x [6 x i8]]], [4 x [6 x [6 x i8]]]* @_ZL4g_52, i32 0, i32 %i.075, i32 %j.074, i32 4
  %58 = load i8, i8* %arrayidx12.4, align 1
  %conv13.4 = sext i8 %58 to i64
  tail call fastcc void @_ZL15transparent_crcyPci(i64 %conv13.4, i8* getelementptr inbounds ([14 x i8], [14 x i8]* @.str2, i32 0, i32 0), i32 %print_hash_value.0)
  br i1 %tobool, label %for.inc.5.critedge, label %if.then14.4

if.then14.4:                                      ; preds = %for.inc.3
  %call15.4 = tail call i32 (i8*, ...) @printf(i8* getelementptr inbounds ([22 x i8], [22 x i8]* @.str3, i32 0, i32 0), i32 %i.075, i32 %j.074, i32 4)
  %arrayidx12.5 = getelementptr inbounds [4 x [6 x [6 x i8]]], [4 x [6 x [6 x i8]]]* @_ZL4g_52, i32 0, i32 %i.075, i32 %j.074, i32 5
  %59 = load i8, i8* %arrayidx12.5, align 1
  %conv13.5 = sext i8 %59 to i64
  tail call fastcc void @_ZL15transparent_crcyPci(i64 %conv13.5, i8* getelementptr inbounds ([14 x i8], [14 x i8]* @.str2, i32 0, i32 0), i32 %print_hash_value.0)
  %call15.5 = tail call i32 (i8*, ...) @printf(i8* getelementptr inbounds ([22 x i8], [22 x i8]* @.str3, i32 0, i32 0), i32 %i.075, i32 %j.074, i32 5)
  br label %for.inc.5

for.inc.5.critedge:                               ; preds = %for.inc.3
  %arrayidx12.5.c = getelementptr inbounds [4 x [6 x [6 x i8]]], [4 x [6 x [6 x i8]]]* @_ZL4g_52, i32 0, i32 %i.075, i32 %j.074, i32 5
  %60 = load i8, i8* %arrayidx12.5.c, align 1
  %conv13.5.c = sext i8 %60 to i64
  tail call fastcc void @_ZL15transparent_crcyPci(i64 %conv13.5.c, i8* getelementptr inbounds ([14 x i8], [14 x i8]* @.str2, i32 0, i32 0), i32 %print_hash_value.0)
  br label %for.inc.5

for.inc.5:                                        ; preds = %for.inc.5.critedge, %if.then14.4
  %inc18 = add nsw i32 %j.074, 1
  %exitcond = icmp eq i32 %inc18, 6
  br i1 %exitcond, label %for.inc20, label %for.body9
}

; Function Attrs: nounwind
define internal fastcc void @_ZL12crc32_gentabv() #0 {
entry:
  br label %for.body3

for.body3:                                        ; preds = %for.body3, %entry
  %i.08 = phi i32 [ 0, %entry ], [ %inc, %for.body3 ]
  %and = and i32 %i.08, 1
  %tobool = icmp eq i32 %and, 0
  %shr = lshr i32 %i.08, 1
  %xor = xor i32 %shr, -306674912
  %crc.1 = select i1 %tobool, i32 %shr, i32 %xor
  %and.1 = and i32 %crc.1, 1
  %tobool.1 = icmp eq i32 %and.1, 0
  %shr.1 = lshr i32 %crc.1, 1
  %xor.1 = xor i32 %shr.1, -306674912
  %crc.1.1 = select i1 %tobool.1, i32 %shr.1, i32 %xor.1
  %and.2 = and i32 %crc.1.1, 1
  %tobool.2 = icmp eq i32 %and.2, 0
  %shr.2 = lshr i32 %crc.1.1, 1
  %xor.2 = xor i32 %shr.2, -306674912
  %crc.1.2 = select i1 %tobool.2, i32 %shr.2, i32 %xor.2
  %and.3 = and i32 %crc.1.2, 1
  %tobool.3 = icmp eq i32 %and.3, 0
  %shr.3 = lshr i32 %crc.1.2, 1
  %xor.3 = xor i32 %shr.3, -306674912
  %crc.1.3 = select i1 %tobool.3, i32 %shr.3, i32 %xor.3
  %and.4 = and i32 %crc.1.3, 1
  %tobool.4 = icmp eq i32 %and.4, 0
  %shr.4 = lshr i32 %crc.1.3, 1
  %xor.4 = xor i32 %shr.4, -306674912
  %crc.1.4 = select i1 %tobool.4, i32 %shr.4, i32 %xor.4
  %and.5 = and i32 %crc.1.4, 1
  %tobool.5 = icmp eq i32 %and.5, 0
  %shr.5 = lshr i32 %crc.1.4, 1
  %xor.5 = xor i32 %shr.5, -306674912
  %crc.1.5 = select i1 %tobool.5, i32 %shr.5, i32 %xor.5
  %and.6 = and i32 %crc.1.5, 1
  %tobool.6 = icmp eq i32 %and.6, 0
  %shr.6 = lshr i32 %crc.1.5, 1
  %xor.6 = xor i32 %shr.6, -306674912
  %crc.1.6 = select i1 %tobool.6, i32 %shr.6, i32 %xor.6
  %and.7 = and i32 %crc.1.6, 1
  %tobool.7 = icmp eq i32 %and.7, 0
  %shr.7 = lshr i32 %crc.1.6, 1
  %xor.7 = xor i32 %shr.7, -306674912
  %crc.1.7 = select i1 %tobool.7, i32 %shr.7, i32 %xor.7
  %arrayidx = getelementptr inbounds [256 x i32], [256 x i32]* @_ZL9crc32_tab, i32 0, i32 %i.08
  store i32 %crc.1.7, i32* %arrayidx, align 4
  %inc = add nsw i32 %i.08, 1
  %exitcond = icmp eq i32 %inc, 256
  br i1 %exitcond, label %for.end6, label %for.body3

for.end6:                                         ; preds = %for.body3
  ret void
}

; Function Attrs: nounwind
define internal fastcc void @_ZL6func_1v() #0 {
for.end97:
  %agg.tmp = alloca i64, align 8
  %tmpcast = bitcast i64* %agg.tmp to %struct.S0*
  store i32 0, i32* @_ZL3g_2, align 4
  %call = call fastcc zeroext i8 @_ZL7func_20iit(i32 0, i16 zeroext -16644)
  %0 = load i32, i32* @_ZL3g_2, align 4
  %conv98 = trunc i32 %0 to i8
  %call105 = call fastcc zeroext i16 @_ZL26safe_mul_func_uint16_t_u_utt(i16 zeroext 7, i16 zeroext 1)
  %conv106 = zext i16 %call105 to i32
  %call118 = call fastcc zeroext i8 @_ZL25safe_mul_func_uint8_t_u_uhh(i8 zeroext 1, i8 zeroext 23)
  %conv119 = zext i8 %call118 to i32
  %cmp120 = icmp uge i32 %conv106, %conv119
  %conv121 = zext i1 %cmp120 to i32
  %call122 = call fastcc zeroext i8 @_ZL28safe_rshift_func_uint8_t_u_shi(i8 zeroext %conv98, i32 %conv121)
  %cmp124 = icmp ult i8 %call, %call122
  %conv125 = zext i1 %cmp124 to i8
  store i64 -21471878022, i64* %agg.tmp, align 8
  call fastcc void @_ZL7func_14aPaS_2S0j(i8 signext %conv125, %struct.S0* byval align 4 %tmpcast)
  call fastcc void @_ZL6func_5Pah()
  %1 = load i32, i32* @_ZL6g_1198, align 4
  %tobool = icmp eq i32 %1, 0
  br i1 %tobool, label %if.else1462, label %for.end311

for.end311:                                       ; preds = %for.end97
  store i8 25, i8* @_ZL6g_1136, align 1
  %bf.load = load i24, i24* bitcast ({ i8, [3 x i8] }* @_ZL6g_1162 to i24*), align 4
  %bf.clear = and i24 %bf.load, -262144
  %bf.set = or i24 %bf.clear, zext (i1 icmp slt (i32 zext (i1 icmp sge (i32 zext (i1 icmp eq (i8* getelementptr inbounds (%struct.S0, %struct.S0* @_ZL5g_471, i32 0, i32 1), i8* @_ZL6g_1010) to i32), i32 1) to i32), i32 710400751) to i24)
  store i24 %bf.set, i24* bitcast ({ i8, [3 x i8] }* @_ZL6g_1162 to i24*), align 4
  store i16 1, i16* @_ZL5g_162, align 2
  br label %cleanup1590

if.else1462:                                      ; preds = %for.end97
  %2 = load i8**, i8*** @_ZL5g_984, align 4
  %3 = load i8*, i8** %2, align 4
  store i8 0, i8* %3, align 1
  %call1515 = call fastcc signext i8 @_ZL24safe_div_func_int8_t_s_saa(i8 signext 0, i8 signext 1)
  %call1517 = call fastcc zeroext i8 @_ZL28safe_lshift_func_uint8_t_u_shi(i8 zeroext %call1515, i32 58)
  %conv1518 = zext i8 %call1517 to i16
  %call1519 = call fastcc zeroext i16 @_ZL29safe_lshift_func_uint16_t_u_utj(i16 zeroext %conv1518, i32 14)
  %cmp1522 = icmp eq i16 %call1519, 4
  %conv1523 = zext i1 %cmp1522 to i32
  %xor15271 = or i32 %conv1523, 4
  store i32 %xor15271, i32* @_ZL5g_135, align 4
  %4 = load i8, i8* @_ZL5g_136, align 1
  %5 = load i8, i8* @_ZL5g_133, align 1
  %and15422 = and i8 %5, %4
  %cmp1543 = icmp ne i8 %and15422, 1
  %conv1544 = zext i1 %cmp1543 to i8
  store i8 %conv1544, i8* @_ZL6g_1010, align 1
  %6 = load i32, i32* @_ZL5g_135, align 4
  %call1565 = call fastcc i32 @_ZL25safe_sub_func_int32_t_s_sii(i32 1, i32 %6)
  %conv1566 = trunc i32 %call1565 to i8
  %7 = load i8*, i8** @_ZL5g_985, align 4
  store i8 %conv1566, i8* %7, align 1
  br label %cleanup1590

cleanup1590:                                      ; preds = %if.else1462, %for.end311
  ret void
}

; Function Attrs: nounwind
define internal fastcc void @_ZL15transparent_crcyPci(i64 %val, i8* %vname, i32 %flag) #0 {
entry:
  tail call fastcc void @_ZL12crc32_8bytesy(i64 %val)
  %tobool = icmp eq i32 %flag, 0
  br i1 %tobool, label %if.end, label %if.then

if.then:                                          ; preds = %entry
  %0 = load i32, i32* @_ZL13crc32_context, align 4
  %xor = xor i32 %0, -1
  %call = tail call i32 (i8*, ...) @printf(i8* getelementptr inbounds ([36 x i8], [36 x i8]* @.str48, i32 0, i32 0), i8* %vname, i32 %xor)
  br label %if.end

if.end:                                           ; preds = %if.then, %entry
  ret void
}

; Function Attrs: nounwind
declare i32 @printf(i8* nocapture, ...) #0

; Function Attrs: nounwind
define internal fastcc void @_ZL17platform_main_endji(i32 %crc) #0 {
entry:
  %call = tail call i32 (i8*, ...) @printf(i8* getelementptr inbounds ([15 x i8], [15 x i8]* @.str47, i32 0, i32 0), i32 %crc)
  ret void
}

; Function Attrs: nounwind
define internal fastcc void @_ZL12crc32_8bytesy(i64 %val) #0 {
entry:
  %conv = trunc i64 %val to i8
  tail call fastcc void @_ZL10crc32_byteh(i8 zeroext %conv)
  %shr1 = lshr i64 %val, 8
  %conv3 = trunc i64 %shr1 to i8
  tail call fastcc void @_ZL10crc32_byteh(i8 zeroext %conv3)
  %shr4 = lshr i64 %val, 16
  %conv6 = trunc i64 %shr4 to i8
  tail call fastcc void @_ZL10crc32_byteh(i8 zeroext %conv6)
  %shr7 = lshr i64 %val, 24
  %conv9 = trunc i64 %shr7 to i8
  tail call fastcc void @_ZL10crc32_byteh(i8 zeroext %conv9)
  %shr10 = lshr i64 %val, 32
  %conv12 = trunc i64 %shr10 to i8
  tail call fastcc void @_ZL10crc32_byteh(i8 zeroext %conv12)
  %shr13 = lshr i64 %val, 40
  %conv15 = trunc i64 %shr13 to i8
  tail call fastcc void @_ZL10crc32_byteh(i8 zeroext %conv15)
  %shr16 = lshr i64 %val, 48
  %conv18 = trunc i64 %shr16 to i8
  tail call fastcc void @_ZL10crc32_byteh(i8 zeroext %conv18)
  %shr19 = lshr i64 %val, 56
  %conv21 = trunc i64 %shr19 to i8
  tail call fastcc void @_ZL10crc32_byteh(i8 zeroext %conv21)
  ret void
}

; Function Attrs: nounwind
define internal fastcc void @_ZL10crc32_byteh(i8 zeroext %b) #0 {
entry:
  %0 = load i32, i32* @_ZL13crc32_context, align 4
  %shr = lshr i32 %0, 8
  %conv = zext i8 %b to i32
  %.masked = and i32 %0, 255
  %and1 = xor i32 %.masked, %conv
  %arrayidx = getelementptr inbounds [256 x i32], [256 x i32]* @_ZL9crc32_tab, i32 0, i32 %and1
  %1 = load i32, i32* %arrayidx, align 4
  %xor2 = xor i32 %shr, %1
  store i32 %xor2, i32* @_ZL13crc32_context, align 4
  ret void
}

; Function Attrs: nounwind
declare void @llvm.memcpy.p0i8.p0i8.i32(i8* nocapture, i8* nocapture, i32, i32, i1) #1

; Function Attrs: nounwind
define internal fastcc void @_ZL6func_5Pah() #0 {
for.end14:
  %0 = load i8, i8* @_ZL6g_1025, align 1
  %inc15 = add i8 %0, 1
  store i8 %inc15, i8* @_ZL6g_1025, align 1
  %1 = load i32, i32* @_ZL5g_400, align 4
  %tobool = icmp eq i32 %1, 0
  br i1 %tobool, label %if.else, label %if.then

if.then:                                          ; preds = %for.end14
  %2 = load i64, i64* bitcast (%struct.S0* @_ZL4g_83 to i64*), align 8
  store i64 %2, i64* bitcast (%struct.S0* @_ZL5g_471 to i64*), align 8
  br label %if.end

if.else:                                          ; preds = %for.end14
  %and = and i32 %1, 23
  store i32 %and, i32* @_ZL5g_400, align 4
  br label %if.end

if.end:                                           ; preds = %if.else, %if.then
  ret void
}

; Function Attrs: nounwind readonly
define internal fastcc i8* @_ZL6func_8ijPasS_(i16 signext %p_12) #2 {
entry:
  %0 = load i8**, i8*** @_ZL5g_984, align 4
  %1 = load i8*, i8** %0, align 4
  ret i8* %1
}

; Function Attrs: nounwind
define internal fastcc void @_ZL7func_14aPaS_2S0j(i8 signext %p_15, %struct.S0* byval nocapture align 4 %p_18) #0 {
entry:
  store i16 0, i16* @_ZL5g_172, align 2
  %0 = load i32, i32* @_ZL4g_53, align 4
  %f0 = getelementptr inbounds %struct.S0, %struct.S0* %p_18, i32 0, i32 0
  %1 = load i16, i16* %f0, align 4
  %conv1 = sext i16 %1 to i32
  %f2 = getelementptr inbounds %struct.S0, %struct.S0* %p_18, i32 0, i32 2
  %2 = load i32, i32* %f2, align 4
  %3 = load i32, i32* @_ZL4g_93, align 4
  %cmp2 = icmp ne i32 %2, %3
  %conv3 = zext i1 %cmp2 to i32
  %cmp4 = icmp sgt i32 %conv1, %conv3
  %conv5 = zext i1 %cmp4 to i32
  %cmp6 = icmp sge i32 %0, %conv5
  %conv7 = zext i1 %cmp6 to i16
  %call = tail call fastcc zeroext i16 @_ZL29safe_rshift_func_uint16_t_u_sti(i16 zeroext %conv7, i32 10)
  %conv8 = zext i16 %call to i32
  store i32 %conv8, i32* @_ZL5g_132, align 4
  ret void
}

; Function Attrs: nounwind
define internal fastcc zeroext i8 @_ZL7func_20iit(i32 %p_22, i16 zeroext %p_23) #0 {
for.end7:
  %agg.tmp = alloca %union.U1, align 4
  %agg.tmp9 = alloca %struct.S0, align 4
  %0 = load i32, i32* @_ZL3g_2, align 4
  %conv = trunc i32 %0 to i16
  %conv11 = trunc i32 %p_22 to i8
  store i8 %conv11, i8* getelementptr inbounds ([4 x [6 x [6 x i8]]], [4 x [6 x [6 x i8]]]* @_ZL4g_52, i32 0, i32 1, i32 3, i32 1), align 1
  %dec = add i16 %p_23, -1
  %l_60.sroa.0.0.idx = getelementptr inbounds %struct.S0, %struct.S0* %agg.tmp9, i32 0, i32 0
  store i16 26262, i16* %l_60.sroa.0.0.idx, align 4
  %l_60.sroa.1.2.idx = getelementptr inbounds %struct.S0, %struct.S0* %agg.tmp9, i32 0, i32 1
  store i8 73, i8* %l_60.sroa.1.2.idx, align 2
  %l_60.sroa.2.3.raw_cast = bitcast %struct.S0* %agg.tmp9 to i8*
  %l_60.sroa.2.3.raw_idx = getelementptr inbounds i8, i8* %l_60.sroa.2.3.raw_cast, i32 3
  call void @llvm.memcpy.p0i8.p0i8.i32(i8* %l_60.sroa.2.3.raw_idx, i8* getelementptr ([5 x i8], [5 x i8]* bitcast (i8* getelementptr (i8, i8* bitcast (%struct.S0* @_ZZL7func_20iitE4l_60 to i8*), i32 3) to [5 x i8]*), i32 0, i32 0), i32 5, i32 1, i1 false)
  call fastcc void @_ZL7func_492S0(%union.U1* sret %agg.tmp, %struct.S0* byval align 4 %agg.tmp9)
  %.lobit = lshr i32 %0, 31
  %1 = trunc i32 %.lobit to i8
  %call33 = call fastcc signext i16 @_ZL7func_40ia(i8 signext %1)
  %cmp35 = icmp eq i16 %call33, 3880
  %conv36 = zext i1 %cmp35 to i32
  %2 = load i16, i16* @_ZL5g_361, align 2
  %conv37 = zext i16 %2 to i32
  %xor = xor i32 %conv37, %conv36
  %conv38 = trunc i32 %xor to i16
  store i16 %conv38, i16* @_ZL5g_361, align 2
  %call43 = call fastcc signext i8 @_ZL24safe_sub_func_int8_t_s_saa(i8 signext -1)
  %conv44 = sext i8 %call43 to i32
  %call45 = call fastcc signext i16 @_ZL7func_32tiPa(i16 zeroext %conv, i32 %conv44)
  %3 = load i32, i32* @_ZL5g_400, align 4
  %and53 = and i32 %3, -98
  store i32 %and53, i32* @_ZL5g_400, align 4
  %4 = load i8, i8* getelementptr inbounds ([4 x [6 x [6 x i8]]], [4 x [6 x [6 x i8]]]* @_ZL4g_52, i32 0, i32 0, i32 4, i32 5), align 1
  %call104 = call fastcc zeroext i8 @_ZL28safe_rshift_func_uint8_t_u_shi(i8 zeroext %4, i32 1)
  %call105 = call fastcc zeroext i8 @_ZL28safe_lshift_func_uint8_t_u_shi(i8 zeroext %call104, i32 1)
  %cmp124 = icmp ne i8 %call105, 0
  %conv125 = zext i1 %cmp124 to i32
  %5 = load i16, i16* @_ZL4g_77, align 2
  %conv571 = trunc i16 %5 to i8
  %6 = load i32, i32* @_ZL4g_53, align 4
  %7 = load i8, i8* getelementptr inbounds ([8 x i8], [8 x i8]* @_ZL5g_171, i32 0, i32 6), align 1
  %conv432 = sext i8 %7 to i32
  %xor434 = xor i32 %conv432, %6
  br label %lbl_496

lbl_496.loopexit:                                 ; preds = %for.body302
  store i16 %call312.lobit, i16* @_ZL5g_162, align 2
  store i32 %conv357, i32* @_ZL5g_400, align 4
  %phitmp38 = add i32 %l_404.0, -1
  br label %lbl_496

lbl_496:                                          ; preds = %lbl_496.loopexit, %for.end7
  %l_404.0 = phi i32 [ -1124763087, %for.end7 ], [ %phitmp38, %lbl_496.loopexit ]
  %p_23.addr.0 = phi i16 [ %dec, %for.end7 ], [ %conv332, %lbl_496.loopexit ]
  %p_22.addr.0 = phi i32 [ %p_22, %for.end7 ], [ %p_22.addr.235, %lbl_496.loopexit ]
  store i32 0, i32* getelementptr inbounds (%struct.S0, %struct.S0* @_ZL4g_83, i32 0, i32 2), align 4
  %tobool156 = icmp ne i32 %p_22.addr.0, 0
  %phitmp = zext i1 %tobool156 to i8
  %conv428 = trunc i32 %p_22.addr.0 to i8
  %8 = load i16, i16* getelementptr inbounds (%struct.S0, %struct.S0* @_ZL5g_471, i32 0, i32 0), align 8
  %conv438 = sext i16 %8 to i32
  %_ZL5g_400.promoted = load i32, i32* @_ZL5g_400, align 4
  %_ZL5g_138.promoted = load i32, i32* @_ZL5g_138, align 4
  br label %for.body59

for.body59:                                       ; preds = %lor.end440.3, %lbl_496
  %and12827 = phi i32 [ %_ZL5g_138.promoted, %lbl_496 ], [ %and128, %lor.end440.3 ]
  %9 = phi i32 [ %_ZL5g_400.promoted, %lbl_496 ], [ 0, %lor.end440.3 ]
  %cmp107 = icmp ult i32 %9, 255
  br i1 %cmp107, label %lor.end, label %lor.rhs

lor.rhs:                                          ; preds = %for.body59
  %conv117 = trunc i32 %9 to i8
  %call118 = call fastcc zeroext i8 @_ZL25safe_add_func_uint8_t_u_uhh(i8 zeroext -15, i8 zeroext %conv117)
  %conv119 = zext i8 %call118 to i16
  store i16 %conv119, i16* @_ZL5g_361, align 2
  br label %lor.end

lor.end:                                          ; preds = %lor.rhs, %for.body59
  %10 = load i32, i32* @_ZL4g_93, align 4
  %or127 = or i32 %9, %10
  %and128 = and i32 %and12827, %or127
  br i1 %tobool156, label %if.then, label %for.body191

if.then:                                          ; preds = %lor.end
  %call158 = call fastcc signext i8 @_ZL24safe_add_func_int8_t_s_saa(i8 signext -8, i8 signext -1)
  %conv159 = sext i8 %call158 to i16
  store i8 -1, i8* getelementptr inbounds ([4 x [6 x [6 x i8]]], [4 x [6 x [6 x i8]]]* @_ZL4g_52, i32 0, i32 1, i32 3, i32 1), align 1
  store i16 8, i16* @_ZL5g_361, align 2
  %call183 = call fastcc signext i16 @_ZL25safe_mul_func_int16_t_s_sss(i16 signext %conv159, i16 signext 1)
  %conv184 = sext i16 %call183 to i32
  %11 = load i32, i32* @_ZL4g_93, align 4
  %xor185 = xor i32 %11, %conv184
  store i32 %xor185, i32* @_ZL4g_93, align 4
  %tobool198 = icmp eq i32 %or127, 0
  br i1 %tobool198, label %for.body412, label %land.lhs.true

for.body191:                                      ; preds = %lor.end
  store i32 %or127, i32* @_ZL5g_400, align 4
  store i32 %and128, i32* @_ZL5g_138, align 4
  %conv192 = trunc i32 %or127 to i8
  br label %cleanup583

land.lhs.true:                                    ; preds = %if.then
  %12 = load i16, i16* @_ZL5g_361, align 2
  %conv201 = zext i16 %12 to i32
  %xor202 = xor i32 %conv201, 57244
  %conv203 = trunc i32 %xor202 to i16
  store i16 %conv203, i16* @_ZL5g_361, align 2
  %call204 = call fastcc zeroext i16 @_ZL26safe_mul_func_uint16_t_u_utt(i16 zeroext 0, i16 zeroext %conv203)
  %13 = load i16, i16* @_ZL5g_168, align 2
  %conv207 = sext i16 %13 to i32
  %cmp209 = icmp ne i16 %call204, 0
  %conv210 = zext i1 %cmp209 to i32
  %cmp212 = icmp slt i32 %conv210, %conv207
  %conv213 = zext i1 %cmp212 to i16
  store i16 %conv213, i16* @_ZL5g_168, align 2
  br i1 %cmp212, label %if.then214, label %for.body412

if.then214:                                       ; preds = %land.lhs.true
  store i32 %or127, i32* @_ZL5g_400, align 4
  store i32 %and128, i32* @_ZL5g_138, align 4
  %tobool295 = icmp eq i32 %or127, 0
  br i1 %tobool295, label %for.cond300.preheader, label %cleanup583

for.cond300.preheader:                            ; preds = %if.then214
  %14 = load i64, i64* bitcast (%struct.S0* @_ZL4g_83 to i64*), align 8
  %15 = load i16, i16* @_ZL5g_168, align 2
  %call312 = call fastcc signext i16 @_ZL28safe_lshift_func_int16_t_s_usj(i16 signext %15, i32 -1)
  %call312.lobit = lshr i16 %call312, 15
  %call331 = call fastcc signext i8 @_ZL24safe_div_func_int8_t_s_saa(i8 signext 1, i8 signext -7)
  %conv332 = sext i8 %call331 to i16
  %call354 = call fastcc signext i16 @_ZL28safe_lshift_func_int16_t_s_usj(i16 signext 1, i32 1631231813)
  %call356 = call fastcc signext i16 @_ZL25safe_mul_func_int16_t_s_sss(i16 signext %call354, i16 signext 0)
  %conv357 = sext i16 %call356 to i32
  %tobool358 = icmp eq i32 %l_404.0, 0
  br label %for.body302

for.cond300:                                      ; preds = %for.body302
  %sub = add nsw i32 %p_22.addr.235, -1
  %cmp301 = icmp sgt i32 %p_22.addr.235, 0
  br i1 %cmp301, label %for.body302, label %cleanup583.loopexit32

for.body302:                                      ; preds = %for.cond300, %for.cond300.preheader
  %p_22.addr.235 = phi i32 [ 3, %for.cond300.preheader ], [ %sub, %for.cond300 ]
  store i64 %14, i64* bitcast (%struct.S0* @_ZL5g_471 to i64*), align 8
  store i32 1, i32* getelementptr inbounds (%struct.S0, %struct.S0* @_ZL5g_471, i32 0, i32 2), align 4
  br i1 %tobool358, label %for.cond300, label %lbl_496.loopexit

for.body412:                                      ; preds = %land.lhs.true, %if.then
  %16 = load i16, i16* @_ZL5g_168, align 2
  %call568 = call fastcc i32 @_ZL26safe_mod_func_uint32_t_u_ujj(i32 0, i32 -13150355)
  %cmp569 = icmp ne i32 %call568, 0
  %conv570 = zext i1 %cmp569 to i8
  %call572 = call fastcc signext i8 @_ZL24safe_mul_func_int8_t_s_saa(i8 signext %conv570, i8 signext %conv571)
  %conv433 = sext i16 %16 to i32
  %xor435 = xor i32 %xor434, %conv433
  %cmp436 = icmp slt i32 %xor435, %p_22.addr.0
  %conv437 = zext i1 %cmp436 to i32
  %cmp439 = icmp sgt i32 %conv437, %conv438
  %_ZL5g_361.promoted = load i16, i16* @_ZL5g_361, align 2
  br i1 %tobool156, label %lor.end440.2.thread, label %lor.rhs421.3

lor.end440.2.thread:                              ; preds = %for.body412
  %conv44250 = zext i16 %_ZL5g_361.promoted to i32
  %xor443.257 = xor i32 %conv44250, 1
  br label %lor.end440.3

cleanup583.loopexit:                              ; preds = %lor.end440.3
  store i32 0, i32* @_ZL5g_400, align 4
  store i32 %and128, i32* @_ZL5g_138, align 4
  br label %cleanup583

cleanup583.loopexit32:                            ; preds = %for.cond300
  store i16 %call312.lobit, i16* @_ZL5g_162, align 2
  store i32 %conv357, i32* @_ZL5g_400, align 4
  br label %cleanup583

cleanup583:                                       ; preds = %cleanup583.loopexit32, %cleanup583.loopexit, %if.then214, %for.body191
  %cleanup.dest.slot.2 = phi i1 [ false, %for.body191 ], [ true, %cleanup583.loopexit ], [ false, %cleanup583.loopexit32 ], [ true, %if.then214 ]
  %retval.6 = phi i8 [ %conv192, %for.body191 ], [ undef, %cleanup583.loopexit ], [ -100, %cleanup583.loopexit32 ], [ undef, %if.then214 ]
  %17 = load i8, i8* @_ZL5g_170, align 1
  %.retval.6 = select i1 %cleanup.dest.slot.2, i8 %17, i8 %retval.6
  ret i8 %.retval.6

lor.rhs421.3:                                     ; preds = %for.body412
  %conv441 = zext i1 %cmp439 to i32
  %conv442 = zext i16 %_ZL5g_361.promoted to i32
  %xor443 = xor i32 %conv442, %conv441
  %conv441.1 = zext i1 %cmp439 to i32
  %xor533.1 = xor i32 %xor443, %conv441.1
  %conv441.2 = zext i1 %cmp439 to i32
  %xor443.2 = xor i32 %xor533.1, %conv441.2
  %call422.3 = call fastcc signext i16 @_ZL25safe_mul_func_int16_t_s_sss(i16 signext %16, i16 signext %p_23.addr.0)
  %tobool423.3 = icmp eq i16 %call422.3, 0
  %phitmp..3 = select i1 %tobool423.3, i8 %phitmp, i8 1
  %call429.3 = call fastcc zeroext i8 @_ZL25safe_sub_func_uint8_t_u_uhh(i8 zeroext %phitmp..3, i8 zeroext %conv428)
  %conv430.3 = zext i8 %call429.3 to i32
  %xor431.3 = xor i32 %conv430.3, %conv125
  store i32 %xor431.3, i32* @_ZL5g_546, align 4
  br label %lor.end440.3

lor.end440.3:                                     ; preds = %lor.rhs421.3, %lor.end440.2.thread
  %xor443.258 = phi i32 [ %xor443.2, %lor.rhs421.3 ], [ %xor443.257, %lor.end440.2.thread ]
  %18 = phi i1 [ %cmp439, %lor.rhs421.3 ], [ true, %lor.end440.2.thread ]
  %conv441.3 = zext i1 %18 to i32
  %xor533.3 = xor i32 %xor443.258, %conv441.3
  %conv534.3 = trunc i32 %xor533.3 to i16
  %conv573 = sext i8 %call572 to i32
  store i32 %conv573, i32* @_ZL4g_93, align 4
  store i16 %conv534.3, i16* @_ZL5g_361, align 2
  store i8 0, i8* getelementptr inbounds ({ i8, [3 x i8] }, { i8, [3 x i8] }* @_ZL4g_74, i32 0, i32 0), align 4
  store i16 %16, i16* getelementptr inbounds (%struct.S0, %struct.S0* @_ZL4g_83, i32 0, i32 0), align 8
  %19 = load i32, i32* getelementptr inbounds (%struct.S0, %struct.S0* @_ZL4g_83, i32 0, i32 2), align 4
  %add581 = add i32 %19, 1
  store i32 %add581, i32* getelementptr inbounds (%struct.S0, %struct.S0* @_ZL4g_83, i32 0, i32 2), align 4
  %cmp58 = icmp eq i32 %add581, 0
  br i1 %cmp58, label %for.body59, label %cleanup583.loopexit
}

; Function Attrs: nounwind readnone
define internal fastcc zeroext i8 @_ZL28safe_rshift_func_uint8_t_u_shi(i8 zeroext %left, i32 %right) #3 {
entry:
  %0 = icmp ugt i32 %right, 31
  %conv = zext i8 %left to i32
  %shr = select i1 %0, i32 0, i32 %right
  %conv.shr = lshr i32 %conv, %shr
  %conv3 = trunc i32 %conv.shr to i8
  ret i8 %conv3
}

; Function Attrs: nounwind readnone
define internal fastcc zeroext i16 @_ZL26safe_mul_func_uint16_t_u_utt(i16 zeroext %ui1, i16 zeroext %ui2) #3 {
entry:
  %conv = zext i16 %ui1 to i32
  %conv1 = zext i16 %ui2 to i32
  %mul = mul i32 %conv1, %conv
  %conv2 = trunc i32 %mul to i16
  ret i16 %conv2
}

; Function Attrs: nounwind readnone
define internal fastcc zeroext i8 @_ZL25safe_mul_func_uint8_t_u_uhh(i8 zeroext %ui1, i8 zeroext %ui2) #3 {
entry:
  %conv = zext i8 %ui1 to i32
  %conv1 = zext i8 %ui2 to i32
  %mul = mul i32 %conv1, %conv
  %conv2 = trunc i32 %mul to i8
  ret i8 %conv2
}

; Function Attrs: nounwind readnone
define internal fastcc zeroext i8 @_ZL25safe_sub_func_uint8_t_u_uhh(i8 zeroext %ui1, i8 zeroext %ui2) #3 {
entry:
  %conv = zext i8 %ui1 to i32
  %conv1 = zext i8 %ui2 to i32
  %sub = sub nsw i32 %conv, %conv1
  %conv2 = trunc i32 %sub to i8
  ret i8 %conv2
}

; Function Attrs: nounwind readnone
define internal fastcc i32 @_ZL26safe_div_func_uint32_t_u_ujj(i32 %ui1, i32 %ui2) #3 {
entry:
  %cmp = icmp eq i32 %ui2, 0
  br i1 %cmp, label %cond.end, label %cond.false

cond.false:                                       ; preds = %entry
  %div = udiv i32 %ui1, %ui2
  br label %cond.end

cond.end:                                         ; preds = %cond.false, %entry
  %cond = phi i32 [ %div, %cond.false ], [ %ui1, %entry ]
  ret i32 %cond
}

; Function Attrs: nounwind readnone
define internal fastcc zeroext i16 @_ZL26safe_mod_func_uint16_t_u_utt(i16 zeroext %ui1, i16 zeroext %ui2) #3 {
entry:
  %cmp = icmp eq i16 %ui2, 0
  %conv1 = zext i16 %ui1 to i32
  br i1 %cmp, label %cond.end, label %cond.false

cond.false:                                       ; preds = %entry
  %0 = urem i16 %ui1, %ui2
  %rem = zext i16 %0 to i32
  br label %cond.end

cond.end:                                         ; preds = %cond.false, %entry
  %cond = phi i32 [ %rem, %cond.false ], [ %conv1, %entry ]
  %conv4 = trunc i32 %cond to i16
  ret i16 %conv4
}

; Function Attrs: nounwind readnone
define internal fastcc zeroext i8 @_ZL28safe_lshift_func_uint8_t_u_shi(i8 zeroext %left, i32 %right) #3 {
entry:
  %0 = icmp ugt i32 %right, 31
  br i1 %0, label %cond.true, label %lor.lhs.false2

lor.lhs.false2:                                   ; preds = %entry
  %conv = zext i8 %left to i32
  %shr = lshr i32 255, %right
  %cmp3 = icmp sgt i32 %conv, %shr
  br i1 %cmp3, label %cond.true, label %cond.false

cond.true:                                        ; preds = %lor.lhs.false2, %entry
  %conv4 = zext i8 %left to i32
  br label %cond.end

cond.false:                                       ; preds = %lor.lhs.false2
  %shl = shl i32 %conv, %right
  br label %cond.end

cond.end:                                         ; preds = %cond.false, %cond.true
  %cond = phi i32 [ %conv4, %cond.true ], [ %shl, %cond.false ]
  %conv6 = trunc i32 %cond to i8
  ret i8 %conv6
}

; Function Attrs: nounwind readnone
define internal fastcc i32 @_ZL25safe_sub_func_int32_t_s_sii(i32 %si1, i32 %si2) #3 {
entry:
  %xor = xor i32 %si2, %si1
  %and = and i32 %xor, -2147483648
  %xor2 = xor i32 %and, %si1
  %sub = sub nsw i32 %xor2, %si2
  %xor3 = xor i32 %sub, %si2
  %and4 = and i32 %xor3, %xor
  %cmp = icmp slt i32 %and4, 0
  %sub5 = select i1 %cmp, i32 0, i32 %si2
  %si1.sub5 = sub nsw i32 %si1, %sub5
  ret i32 %si1.sub5
}

; Function Attrs: nounwind readnone
define internal fastcc signext i16 @_ZL25safe_mul_func_int16_t_s_sss(i16 signext %si1, i16 signext %si2) #3 {
entry:
  %conv = sext i16 %si1 to i32
  %conv1 = sext i16 %si2 to i32
  %mul = mul nsw i32 %conv1, %conv
  %conv2 = trunc i32 %mul to i16
  ret i16 %conv2
}

; Function Attrs: nounwind readnone
define internal fastcc zeroext i16 @_ZL29safe_lshift_func_uint16_t_u_utj(i16 zeroext %left, i32 %right) #3 {
entry:
  %cmp = icmp ugt i32 %right, 31
  br i1 %cmp, label %cond.true, label %lor.lhs.false

lor.lhs.false:                                    ; preds = %entry
  %conv = zext i16 %left to i32
  %shr = lshr i32 65535, %right
  %cmp1 = icmp sgt i32 %conv, %shr
  br i1 %cmp1, label %cond.true, label %cond.false

cond.true:                                        ; preds = %lor.lhs.false, %entry
  %conv2 = zext i16 %left to i32
  br label %cond.end

cond.false:                                       ; preds = %lor.lhs.false
  %shl = shl i32 %conv, %right
  br label %cond.end

cond.end:                                         ; preds = %cond.false, %cond.true
  %cond = phi i32 [ %conv2, %cond.true ], [ %shl, %cond.false ]
  %conv4 = trunc i32 %cond to i16
  ret i16 %conv4
}

; Function Attrs: nounwind readnone
define internal fastcc signext i16 @_ZL28safe_lshift_func_int16_t_s_usj(i16 signext %left, i32 %right) #3 {
entry:
  %conv = sext i16 %left to i32
  %cmp = icmp slt i16 %left, 0
  %cmp1 = icmp ugt i32 %right, 31
  %or.cond = or i1 %cmp, %cmp1
  %shr = lshr i32 32767, %right
  %cmp4 = icmp sgt i32 %conv, %shr
  %or.cond6 = or i1 %or.cond, %cmp4
  %shl = select i1 %or.cond6, i32 0, i32 %right
  %cond = shl i32 %conv, %shl
  %conv7 = trunc i32 %cond to i16
  ret i16 %conv7
}

; Function Attrs: nounwind readnone
define internal fastcc signext i16 @_ZL25safe_sub_func_int16_t_s_sss(i16 signext %si2) #3 {
entry:
  %conv11 = zext i16 %si2 to i32
  %sub = sub nsw i32 1, %conv11
  %conv2 = trunc i32 %sub to i16
  ret i16 %conv2
}

; Function Attrs: nounwind
define internal fastcc void @_ZL29safe_rshift_func_uint16_t_u_utj() #0 {
entry:
  unreachable
}

; Function Attrs: nounwind readnone
define internal fastcc signext i16 @_ZL25safe_add_func_int16_t_s_sss(i16 signext %si1, i16 signext %si2) #3 {
entry:
  %conv3 = zext i16 %si1 to i32
  %conv14 = zext i16 %si2 to i32
  %add = add nsw i32 %conv14, %conv3
  %conv2 = trunc i32 %add to i16
  ret i16 %conv2
}

; Function Attrs: nounwind
define internal fastcc void @_ZL26safe_sub_func_uint32_t_u_ujj() #0 {
entry:
  unreachable
}

; Function Attrs: nounwind readnone
define internal fastcc i32 @_ZL25safe_mod_func_int32_t_s_sii(i32 %si1, i32 %si2) #3 {
entry:
  %cmp = icmp eq i32 %si2, 0
  br i1 %cmp, label %cond.end, label %lor.lhs.false

lor.lhs.false:                                    ; preds = %entry
  %cmp1 = icmp eq i32 %si1, -2147483648
  %cmp2 = icmp eq i32 %si2, -1
  %or.cond = and i1 %cmp1, %cmp2
  br i1 %or.cond, label %cond.end, label %cond.false

cond.false:                                       ; preds = %lor.lhs.false
  %rem = srem i32 %si1, %si2
  br label %cond.end

cond.end:                                         ; preds = %cond.false, %lor.lhs.false, %entry
  %cond = phi i32 [ %rem, %cond.false ], [ %si1, %lor.lhs.false ], [ %si1, %entry ]
  ret i32 %cond
}

; Function Attrs: nounwind readnone
define internal fastcc i32 @_ZL25safe_add_func_int32_t_s_sii(i32 %si1) #3 {
entry:
  %cmp3 = icmp sgt i32 %si1, 1806657196
  %add = add nsw i32 %si1, 340826451
  %si1.add = select i1 %cmp3, i32 %si1, i32 %add
  ret i32 %si1.add
}

; Function Attrs: nounwind readnone
define internal fastcc zeroext i16 @_ZL29safe_rshift_func_uint16_t_u_sti(i16 zeroext %left, i32 %right) #3 {
entry:
  %0 = icmp ugt i32 %right, 31
  %conv = zext i16 %left to i32
  %shr = select i1 %0, i32 0, i32 %right
  %conv.shr = lshr i32 %conv, %shr
  %conv3 = trunc i32 %conv.shr to i16
  ret i16 %conv3
}

; Function Attrs: nounwind
define internal fastcc void @_ZL31safe_unary_minus_func_int16_t_ss() #0 {
entry:
  unreachable
}

; Function Attrs: nounwind readnone
define internal fastcc i32 @_ZL26safe_mod_func_uint32_t_u_ujj(i32 %ui1, i32 %ui2) #3 {
entry:
  %cmp = icmp eq i32 %ui2, 0
  br i1 %cmp, label %cond.end, label %cond.false

cond.false:                                       ; preds = %entry
  %rem = urem i32 %ui1, %ui2
  br label %cond.end

cond.end:                                         ; preds = %cond.false, %entry
  %cond = phi i32 [ %rem, %cond.false ], [ %ui1, %entry ]
  ret i32 %cond
}

; Function Attrs: nounwind readnone
define internal fastcc zeroext i16 @_ZL26safe_add_func_uint16_t_u_utt(i16 zeroext %ui1, i16 zeroext %ui2) #3 {
entry:
  %conv = zext i16 %ui1 to i32
  %conv1 = zext i16 %ui2 to i32
  %add = add nsw i32 %conv1, %conv
  %conv2 = trunc i32 %add to i16
  ret i16 %conv2
}

; Function Attrs: nounwind readnone
define internal fastcc zeroext i8 @_ZL25safe_add_func_uint8_t_u_uhh(i8 zeroext %ui1, i8 zeroext %ui2) #3 {
entry:
  %conv = zext i8 %ui1 to i32
  %conv1 = zext i8 %ui2 to i32
  %add = add nsw i32 %conv1, %conv
  %conv2 = trunc i32 %add to i8
  ret i8 %conv2
}

; Function Attrs: nounwind
define internal fastcc void @_ZL25safe_div_func_int32_t_s_sii() #0 {
entry:
  unreachable
}

; Function Attrs: nounwind readnone
define internal fastcc signext i8 @_ZL27safe_lshift_func_int8_t_s_sai(i32 %right) #3 {
entry:
  %0 = icmp ugt i32 %right, 31
  %shr = lshr i32 127, %right
  %cmp6 = icmp slt i32 %shr, 1
  %or.cond = or i1 %0, %cmp6
  br i1 %or.cond, label %cond.end, label %cond.false

cond.false:                                       ; preds = %entry
  %shl = shl i32 1, %right
  %phitmp = trunc i32 %shl to i8
  br label %cond.end

cond.end:                                         ; preds = %cond.false, %entry
  %cond = phi i8 [ %phitmp, %cond.false ], [ 1, %entry ]
  ret i8 %cond
}

; Function Attrs: nounwind readnone
define internal fastcc signext i8 @_ZL24safe_sub_func_int8_t_s_saa(i8 signext %si1) #3 {
entry:
  %conv1 = zext i8 %si1 to i32
  %sub = add nsw i32 %conv1, 183
  %conv2 = trunc i32 %sub to i8
  ret i8 %conv2
}

; Function Attrs: nounwind
define internal fastcc void @_ZL26safe_div_func_uint16_t_u_utt() #0 {
entry:
  unreachable
}

; Function Attrs: nounwind readnone
define internal fastcc signext i16 @_ZL28safe_rshift_func_int16_t_s_usj(i16 signext %left, i32 %right) #3 {
entry:
  %conv = sext i16 %left to i32
  %cmp = icmp slt i16 %left, 0
  %cmp1 = icmp ugt i32 %right, 31
  %or.cond = or i1 %cmp, %cmp1
  %shr = select i1 %or.cond, i32 0, i32 %right
  %cond = ashr i32 %conv, %shr
  %conv4 = trunc i32 %cond to i16
  ret i16 %conv4
}

; Function Attrs: nounwind
define internal fastcc void @_ZL28safe_lshift_func_uint8_t_u_uhj() #0 {
entry:
  unreachable
}

; Function Attrs: nounwind readnone
define internal fastcc signext i8 @_ZL24safe_mod_func_int8_t_s_saa(i8 signext %si1, i8 signext %si2) #3 {
entry:
  %conv = sext i8 %si2 to i32
  %cmp = icmp eq i8 %si2, 0
  br i1 %cmp, label %cond.true, label %lor.lhs.false

lor.lhs.false:                                    ; preds = %entry
  %cmp2 = icmp eq i8 %si1, -128
  %cmp4 = icmp eq i8 %si2, -1
  %or.cond = and i1 %cmp2, %cmp4
  br i1 %or.cond, label %cond.true, label %cond.false

cond.true:                                        ; preds = %lor.lhs.false, %entry
  %conv5 = sext i8 %si1 to i32
  br label %cond.end

cond.false:                                       ; preds = %lor.lhs.false
  %conv1 = sext i8 %si1 to i32
  %rem = srem i32 %conv1, %conv
  br label %cond.end

cond.end:                                         ; preds = %cond.false, %cond.true
  %cond = phi i32 [ %conv5, %cond.true ], [ %rem, %cond.false ]
  %conv8 = trunc i32 %cond to i8
  ret i8 %conv8
}

; Function Attrs: nounwind readnone
define internal fastcc signext i8 @_ZL24safe_div_func_int8_t_s_saa(i8 signext %si1, i8 signext %si2) #3 {
entry:
  %conv = sext i8 %si2 to i32
  %cmp = icmp eq i8 %si2, 0
  br i1 %cmp, label %cond.true, label %lor.lhs.false

lor.lhs.false:                                    ; preds = %entry
  %cmp2 = icmp eq i8 %si1, -128
  %cmp4 = icmp eq i8 %si2, -1
  %or.cond = and i1 %cmp2, %cmp4
  br i1 %or.cond, label %cond.true, label %cond.false

cond.true:                                        ; preds = %lor.lhs.false, %entry
  %conv5 = sext i8 %si1 to i32
  br label %cond.end

cond.false:                                       ; preds = %lor.lhs.false
  %conv1 = sext i8 %si1 to i32
  %div = sdiv i32 %conv1, %conv
  br label %cond.end

cond.end:                                         ; preds = %cond.false, %cond.true
  %cond = phi i32 [ %conv5, %cond.true ], [ %div, %cond.false ]
  %conv8 = trunc i32 %cond to i8
  ret i8 %conv8
}

; Function Attrs: nounwind readnone
define internal fastcc zeroext i16 @_ZL29safe_lshift_func_uint16_t_u_sti(i16 zeroext %left, i32 %right) #3 {
entry:
  %0 = icmp ugt i32 %right, 31
  br i1 %0, label %cond.true, label %lor.lhs.false2

lor.lhs.false2:                                   ; preds = %entry
  %conv = zext i16 %left to i32
  %shr = lshr i32 65535, %right
  %cmp3 = icmp sgt i32 %conv, %shr
  br i1 %cmp3, label %cond.true, label %cond.false

cond.true:                                        ; preds = %lor.lhs.false2, %entry
  %conv4 = zext i16 %left to i32
  br label %cond.end

cond.false:                                       ; preds = %lor.lhs.false2
  %shl = shl i32 %conv, %right
  br label %cond.end

cond.end:                                         ; preds = %cond.false, %cond.true
  %cond = phi i32 [ %conv4, %cond.true ], [ %shl, %cond.false ]
  %conv6 = trunc i32 %cond to i16
  ret i16 %conv6
}

; Function Attrs: nounwind
define internal fastcc signext i16 @_ZL7func_32tiPa(i16 zeroext %p_33, i32 %p_34) #0 {
return:
  store i32 1, i32* @_ZL5g_135, align 4
  %0 = load i8, i8* @_ZL5g_126, align 1
  %call8 = tail call fastcc signext i8 @_ZL24safe_mod_func_int8_t_s_saa(i8 signext %0, i8 signext 0)
  %conv9 = sext i8 %call8 to i32
  %1 = load i16, i16* @_ZL5g_168, align 2
  %conv10 = sext i16 %1 to i32
  %cmp11 = icmp eq i32 %conv9, %conv10
  %conv12 = zext i1 %cmp11 to i32
  %2 = load i8, i8* @_ZL5g_136, align 1
  %conv131 = zext i8 %2 to i32
  %or = or i32 %conv12, %conv131
  %conv14 = trunc i32 %or to i8
  store i8 %conv14, i8* @_ZL5g_136, align 1
  %3 = load i32, i32* @_ZL5g_132, align 4
  %or27 = or i32 %3, 1
  %call28 = tail call fastcc i32 @_ZL26safe_div_func_uint32_t_u_ujj(i32 -10, i32 %or27)
  %conv29 = trunc i32 %call28 to i16
  store i16 %conv29, i16* @_ZL4g_82, align 2
  %conv34 = zext i16 %p_33 to i32
  store i8 0, i8* @_ZL5g_133, align 1
  %4 = load i8, i8* getelementptr inbounds ({ i8, [3 x i8] }, { i8, [3 x i8] }* @_ZL4g_74, i32 0, i32 0), align 4
  %not.tobool68 = icmp ne i8 %4, 0
  %5 = zext i1 %not.tobool68 to i32
  %or82 = or i32 %5, %conv34
  %6 = load i8, i8* @_ZL5g_126, align 1
  %conv832 = zext i8 %6 to i32
  %xor = xor i32 %or82, %conv832
  %conv84 = trunc i32 %xor to i8
  store i8 %conv84, i8* @_ZL5g_126, align 1
  %lnot = icmp ne i8 %conv84, 0
  %xor87 = zext i1 %lnot to i32
  store i32 %xor87, i32* @_ZL5g_132, align 4
  ret i16 -20646
}

; Function Attrs: nounwind
define internal fastcc signext i16 @_ZL7func_40ia(i8 signext %p_42) #0 {
entry:
  %call = tail call fastcc signext i8 @_ZL24safe_mod_func_int8_t_s_saa(i8 signext 0, i8 signext 7)
  %conv2 = sext i8 %call to i32
  %0 = load i32, i32* @_ZL3g_2, align 4
  %conv3 = trunc i32 %0 to i8
  %call4 = tail call fastcc signext i8 @_ZL30safe_unary_minus_func_int8_t_sa(i8 signext %conv3)
  %conv5 = sext i8 %call4 to i16
  store i16 %conv5, i16* bitcast ({ i8, [3 x i8] }* @_ZL4g_74 to i16*), align 4
  %conv6 = sext i8 %call4 to i32
  %cmp8 = icmp sgt i32 %conv6, zext (i1 icmp ne (i8* getelementptr inbounds ([8 x i8], [8 x i8]* @_ZL5g_171, i32 0, i32 5), i8* @_ZL5g_304) to i32)
  %conv9 = zext i1 %cmp8 to i32
  %cmp10 = icmp ne i32 %conv2, %conv9
  %conv11 = zext i1 %cmp10 to i16
  %call12 = tail call fastcc signext i16 @_ZL28safe_lshift_func_int16_t_s_usj(i16 signext %conv11, i32 7)
  %conv13 = sext i16 %call12 to i32
  store i32 %conv13, i32* @_ZL5g_257, align 4
  %tobool = icmp eq i16 %call12, 0
  br i1 %tobool, label %land.end, label %land.rhs

land.rhs:                                         ; preds = %entry
  %1 = load i16, i16* @_ZL5g_308, align 2
  %conv17 = zext i16 %1 to i32
  %xor = xor i32 %conv17, %conv13
  %conv18 = trunc i32 %xor to i16
  store i16 %conv18, i16* @_ZL5g_308, align 2
  %lnot = icmp eq i16 %conv18, 0
  %conv20 = zext i1 %lnot to i32
  %2 = load i16, i16* @_ZL4g_79, align 2
  %conv21 = zext i16 %2 to i32
  %xor22 = xor i32 %conv20, %conv21
  %conv23 = trunc i32 %xor22 to i16
  store i16 %conv23, i16* @_ZL4g_79, align 2
  %tobool24 = icmp ne i16 %conv23, 0
  %phitmp = zext i1 %tobool24 to i16
  br label %land.end

land.end:                                         ; preds = %land.rhs, %entry
  %3 = phi i16 [ 0, %entry ], [ %phitmp, %land.rhs ]
  store i16 %3, i16* bitcast ({ i8, [3 x i8] }* @_ZL4g_74 to i16*), align 4
  %conv31 = sext i8 %p_42 to i16
  ret i16 %conv31
}

; Function Attrs: nounwind
define internal fastcc void @_ZL7func_492S0(%union.U1* noalias nocapture sret %agg.result, %struct.S0* byval nocapture align 4 %p_50) #0 {
entry:
  %l_131 = alloca i32, align 4
  %l_129 = alloca i32, align 4
  store i32 1179615507, i32* %l_131, align 4
  store i32 3, i32* @_ZL4g_53, align 4
  %f1 = getelementptr inbounds %struct.S0, %struct.S0* %p_50, i32 0, i32 1
  %f0 = getelementptr inbounds %struct.S0, %struct.S0* %p_50, i32 0, i32 0
  %f2 = getelementptr inbounds %struct.S0, %struct.S0* %p_50, i32 0, i32 2
  br label %for.end86

for.end86:                                        ; preds = %for.inc1370, %entry
  store i32 1795078696, i32* %l_129, align 4
  store i8 0, i8* %f1, align 2
  br label %for.body90

for.body90:                                       ; preds = %for.inc1329, %for.end86
  %0 = load i16, i16* %f0, align 4
  %conv110 = sext i16 %0 to i32
  %call111 = call fastcc i32 @_ZL26safe_div_func_uint32_t_u_ujj(i32 0, i32 %conv110)
  %1 = load i32, i32* @_ZL4g_53, align 4
  %call112 = call fastcc i32 @_ZL25safe_mod_func_int32_t_s_sii(i32 %call111, i32 %1)
  %cmp113 = icmp ult i32 %call112, -1508745334
  %conv114 = zext i1 %cmp113 to i32
  %2 = load i16, i16* @_ZL4g_77, align 2
  %conv116 = zext i16 %2 to i32
  %xor117 = xor i32 %conv116, %conv114
  %conv118 = trunc i32 %xor117 to i16
  store i16 %conv118, i16* @_ZL4g_77, align 2
  store i16 %conv118, i16* @_ZL4g_79, align 2
  %and120 = and i32 %xor117, 1
  %3 = load i32, i32* @_ZL4g_53, align 4
  %cmp121 = icmp eq i32 %and120, %3
  %conv122 = zext i1 %cmp121 to i16
  store i16 %conv122, i16* @_ZL4g_82, align 2
  %4 = load i32, i32* %f2, align 4
  %conv127 = trunc i32 %4 to i8
  %call128 = call fastcc zeroext i8 @_ZL25safe_sub_func_uint8_t_u_uhh(i8 zeroext -5, i8 zeroext %conv127)
  %tobool129 = icmp eq i8 %call128, 0
  br i1 %tobool129, label %cleanup1367, label %land.lhs.true

land.lhs.true:                                    ; preds = %for.body90
  %5 = load i8, i8* %f1, align 2
  %tobool131 = icmp eq i8 %5, 0
  br i1 %tobool131, label %cleanup1367, label %for.end139

for.end139:                                       ; preds = %land.lhs.true
  %6 = load i8, i8* getelementptr inbounds ([4 x [6 x [6 x i8]]], [4 x [6 x [6 x i8]]]* @_ZL4g_52, i32 0, i32 1, i32 3, i32 1), align 1
  %tobool140 = icmp eq i8 %6, 0
  br i1 %tobool140, label %for.end582, label %for.inc1370

for.end582:                                       ; preds = %for.end139
  %7 = load i8, i8* %f1, align 2
  %conv554 = sext i8 %7 to i32
  %add = add nsw i32 %conv554, 1
  %8 = load i32, i32* @_ZL4g_53, align 4
  %add555 = add nsw i32 %8, 1
  %arrayidx559 = getelementptr inbounds [4 x [6 x [6 x i8]]], [4 x [6 x [6 x i8]]]* @_ZL4g_52, i32 0, i32 %conv554, i32 %add555, i32 %add
  %9 = load i8, i8* %arrayidx559, align 1
  %conv560 = sext i8 %9 to i32
  %10 = load i32, i32* %f2, align 4
  %xor561 = xor i32 %conv560, %and120
  %or563 = or i32 %xor561, %10
  %xor561.1 = xor i32 %conv560, %or563
  %or563.1 = or i32 %xor561.1, %10
  %xor561.2 = xor i32 %conv560, %or563.1
  %or563.2 = or i32 %xor561.2, %10
  %xor561.3 = xor i32 %conv560, %or563.2
  %or563.3 = or i32 %xor561.3, %10
  store i32 %or563.3, i32* @_ZL4g_93, align 4
  store i16 0, i16* %f0, align 4
  %11 = load i32, i32* getelementptr inbounds (%struct.S0, %struct.S0* @_ZL4g_83, i32 0, i32 2), align 4
  %conv637 = trunc i32 %11 to i16
  %call638 = call fastcc signext i16 @_ZL25safe_sub_func_int16_t_s_sss(i16 signext %conv637)
  %tobool639 = icmp eq i16 %call638, 0
  br i1 %tobool639, label %if.else1214, label %if.then640

if.then640:                                       ; preds = %for.end582
  %12 = load i32, i32* @_ZL5g_138, align 4
  %inc733 = add i32 %12, 1
  store i32 %inc733, i32* @_ZL5g_138, align 4
  %13 = load i8, i8* getelementptr inbounds ([4 x [6 x [6 x i8]]], [4 x [6 x [6 x i8]]]* @_ZL4g_52, i32 0, i32 0, i32 1, i32 2), align 1
  %tobool734 = icmp eq i8 %13, 0
  br i1 %tobool734, label %if.end1219.loopexit, label %for.inc1329

if.else1214:                                      ; preds = %for.end582
  %14 = load i8, i8* %f1, align 2
  %tobool1216 = icmp eq i8 %14, 0
  br i1 %tobool1216, label %if.end1219, label %for.inc1370

if.end1219.loopexit:                              ; preds = %if.then640
  store i16 -28, i16* @_ZL4g_77, align 2
  br label %if.end1219

if.end1219:                                       ; preds = %if.end1219.loopexit, %if.else1214
  store i32 0, i32* %l_129, align 4
  store i32 1, i32* %l_131, align 4
  %15 = load i8, i8* %f1, align 2
  %tobool1257 = icmp eq i8 %15, 0
  br i1 %tobool1257, label %lor.lhs.false, label %for.end1334.loopexit742

lor.lhs.false:                                    ; preds = %if.end1219
  %16 = load i16, i16* %f0, align 4
  %tobool1259 = icmp eq i16 %16, 0
  br i1 %tobool1259, label %if.else1312, label %for.end1334.loopexit742

if.else1312:                                      ; preds = %lor.lhs.false
  store i32* %l_129, i32** getelementptr inbounds ([2 x [10 x i32*]], [2 x [10 x i32*]]* @_ZL5g_197, i32 0, i32 1, i32 9), align 4
  br label %for.inc1370

for.inc1329:                                      ; preds = %if.then640
  %17 = load i8, i8* %f1, align 2
  %conv1331700 = zext i8 %17 to i32
  %add1332 = add nsw i32 %conv1331700, 1
  %conv1333 = trunc i32 %add1332 to i8
  store i8 %conv1333, i8* %f1, align 2
  %cmp89 = icmp slt i8 %conv1333, 4
  br i1 %cmp89, label %for.body90, label %for.inc1370

for.end1334.loopexit742:                          ; preds = %lor.lhs.false, %if.end1219
  store i8 13, i8* @_ZL5g_170, align 1
  br label %for.inc1370

cleanup1367:                                      ; preds = %land.lhs.true, %for.body90
  %18 = load i32, i32* @_ZL4g_93, align 4
  %and635 = and i32 %18, -6
  store i32 %and635, i32* @_ZL4g_93, align 4
  %19 = load i8*, i8** bitcast ({ i8, [3 x i8] }* @_ZZL7func_492S0E5l_119 to i8**), align 4
  %20 = getelementptr inbounds %union.U1, %union.U1* %agg.result, i32 0, i32 0
  store i8* %19, i8** %20, align 4
  br label %cleanup1381

for.inc1370:                                      ; preds = %for.end1334.loopexit742, %for.inc1329, %if.else1312, %if.else1214, %for.end139
  store i32* %l_131, i32** getelementptr inbounds ([2 x [10 x i32*]], [2 x [10 x i32*]]* @_ZL5g_197, i32 0, i32 1, i32 7), align 4
  store i8 -1, i8* @_ZL5g_136, align 1
  %21 = load i32, i32* @_ZL4g_53, align 4
  %sub1371 = add nsw i32 %21, -1
  store i32 %sub1371, i32* @_ZL4g_53, align 4
  %cmp = icmp sgt i32 %21, 0
  br i1 %cmp, label %for.end86, label %for.end1372

for.end1372:                                      ; preds = %for.inc1370
  store i8 0, i8* getelementptr inbounds ([8 x i8], [8 x i8]* @_ZL5g_171, i32 0, i32 6), align 1
  %22 = load i8*, i8** bitcast ({ i8, [3 x i8] }* @_ZL4g_74 to i8**), align 4
  %23 = getelementptr inbounds %union.U1, %union.U1* %agg.result, i32 0, i32 0
  store i8* %22, i8** %23, align 4
  br label %cleanup1381

cleanup1381:                                      ; preds = %for.end1372, %cleanup1367
  ret void
}

; Function Attrs: nounwind readnone
define internal fastcc signext i8 @_ZL24safe_add_func_int8_t_s_saa(i8 signext %si1, i8 signext %si2) #3 {
entry:
  %conv3 = zext i8 %si1 to i32
  %conv14 = zext i8 %si2 to i32
  %add = add nsw i32 %conv14, %conv3
  %conv2 = trunc i32 %add to i8
  ret i8 %conv2
}

; Function Attrs: nounwind readnone
define internal fastcc signext i8 @_ZL24safe_mul_func_int8_t_s_saa(i8 signext %si1, i8 signext %si2) #3 {
entry:
  %conv = sext i8 %si1 to i32
  %conv1 = sext i8 %si2 to i32
  %mul = mul nsw i32 %conv1, %conv
  %conv2 = trunc i32 %mul to i8
  ret i8 %conv2
}

; Function Attrs: nounwind readnone
define internal fastcc signext i16 @_ZL28safe_rshift_func_int16_t_s_ssi(i16 signext %left) #3 {
entry:
  %conv = sext i16 %left to i32
  %left.lobit = lshr i16 %left, 15
  %0 = zext i16 %left.lobit to i32
  %.not = xor i32 %0, 1
  %cond = ashr i32 %conv, %.not
  %conv6 = trunc i32 %cond to i16
  ret i16 %conv6
}

; Function Attrs: nounwind readnone
define internal fastcc signext i8 @_ZL30safe_unary_minus_func_int8_t_sa(i8 signext %si) #3 {
entry:
  %conv2 = zext i8 %si to i32
  %sub = sub nsw i32 0, %conv2
  %conv1 = trunc i32 %sub to i8
  ret i8 %conv1
}

; Function Attrs: nounwind readnone
define internal fastcc i32 @_ZL31safe_unary_minus_func_int32_t_si(i32 %si) #3 {
entry:
  %sub = sub nsw i32 0, %si
  ret i32 %sub
}

; Function Attrs: nounwind readnone
define internal fastcc i32 @_ZL26safe_add_func_uint32_t_u_ujj(i32 %ui1, i32 %ui2) #3 {
entry:
  %add = add i32 %ui2, %ui1
  ret i32 %add
}

; Function Attrs: nounwind
define weak i8* @malloc(i32 %bytes) #0 {
entry:
  %cmp = icmp ult i32 %bytes, 245
  br i1 %cmp, label %if.then, label %if.else137

if.then:                                          ; preds = %entry
  %cmp1 = icmp ult i32 %bytes, 11
  br i1 %cmp1, label %cond.end, label %cond.false

cond.false:                                       ; preds = %if.then
  %add2 = add i32 %bytes, 11
  %and = and i32 %add2, -8
  br label %cond.end

cond.end:                                         ; preds = %cond.false, %if.then
  %cond = phi i32 [ %and, %cond.false ], [ 16, %if.then ]
  %shr = lshr exact i32 %cond, 3
  %0 = load i32, i32* getelementptr inbounds (%struct.malloc_state, %struct.malloc_state* @_gm_, i32 0, i32 0), align 4
  %shr3 = lshr i32 %0, %shr
  %and4 = and i32 %shr3, 3
  %cmp5 = icmp eq i32 %and4, 0
  br i1 %cmp5, label %if.else28, label %if.then6

if.then6:                                         ; preds = %cond.end
  %neg = and i32 %shr3, 1
  %and7 = xor i32 %neg, 1
  %add8 = add i32 %and7, %shr
  %shl = shl nsw i32 %add8, 1
  %arrayidx = getelementptr inbounds %struct.malloc_state, %struct.malloc_state* @_gm_, i32 0, i32 10, i32 %shl
  %1 = bitcast %struct.malloc_chunk** %arrayidx to %struct.malloc_chunk*
  %arrayidx.sum = add i32 %shl, 2
  %2 = getelementptr inbounds %struct.malloc_state, %struct.malloc_state* @_gm_, i32 0, i32 10, i32 %arrayidx.sum
  %3 = load %struct.malloc_chunk*, %struct.malloc_chunk** %2, align 4
  %fd9 = getelementptr inbounds %struct.malloc_chunk, %struct.malloc_chunk* %3, i32 0, i32 2
  %4 = load %struct.malloc_chunk*, %struct.malloc_chunk** %fd9, align 4
  %cmp10 = icmp eq %struct.malloc_chunk* %1, %4
  br i1 %cmp10, label %if.then11, label %if.else

if.then11:                                        ; preds = %if.then6
  %shl12 = shl i32 1, %add8
  %neg13 = xor i32 %shl12, -1
  %and14 = and i32 %0, %neg13
  store i32 %and14, i32* getelementptr inbounds (%struct.malloc_state, %struct.malloc_state* @_gm_, i32 0, i32 0), align 4
  br label %if.end21

if.else:                                          ; preds = %if.then6
  %5 = bitcast %struct.malloc_chunk* %4 to i8*
  %6 = load i8*, i8** getelementptr inbounds (%struct.malloc_state, %struct.malloc_state* @_gm_, i32 0, i32 4), align 4
  %cmp15 = icmp ult i8* %5, %6
  br i1 %cmp15, label %if.else20, label %land.rhs

land.rhs:                                         ; preds = %if.else
  %bk = getelementptr inbounds %struct.malloc_chunk, %struct.malloc_chunk* %4, i32 0, i32 3
  %7 = load %struct.malloc_chunk*, %struct.malloc_chunk** %bk, align 4
  %cmp16 = icmp eq %struct.malloc_chunk* %7, %3
  br i1 %cmp16, label %if.then17, label %if.else20

if.then17:                                        ; preds = %land.rhs
  store %struct.malloc_chunk* %1, %struct.malloc_chunk** %bk, align 4
  store %struct.malloc_chunk* %4, %struct.malloc_chunk** %2, align 4
  br label %if.end21

if.else20:                                        ; preds = %land.rhs, %if.else
  tail call void @abort() #6
  unreachable

if.end21:                                         ; preds = %if.then17, %if.then11
  %shl22 = shl i32 %add8, 3
  %or23 = or i32 %shl22, 3
  %head = getelementptr inbounds %struct.malloc_chunk, %struct.malloc_chunk* %3, i32 0, i32 1
  store i32 %or23, i32* %head, align 4
  %8 = bitcast %struct.malloc_chunk* %3 to i8*
  %add.ptr.sum104 = or i32 %shl22, 4
  %head25 = getelementptr inbounds i8, i8* %8, i32 %add.ptr.sum104
  %9 = bitcast i8* %head25 to i32*
  %10 = load i32, i32* %9, align 4
  %or26 = or i32 %10, 1
  store i32 %or26, i32* %9, align 4
  %11 = bitcast %struct.malloc_chunk** %fd9 to i8*
  br label %postaction

if.else28:                                        ; preds = %cond.end
  %12 = load i32, i32* getelementptr inbounds (%struct.malloc_state, %struct.malloc_state* @_gm_, i32 0, i32 2), align 4
  %cmp29 = icmp ugt i32 %cond, %12
  br i1 %cmp29, label %if.then30, label %if.end154

if.then30:                                        ; preds = %if.else28
  %cmp31 = icmp eq i32 %shr3, 0
  br i1 %cmp31, label %if.else127, label %if.then32

if.then32:                                        ; preds = %if.then30
  %shl35 = shl i32 %shr3, %shr
  %shl37 = shl i32 2, %shr
  %sub = sub i32 0, %shl37
  %or40 = or i32 %shl37, %sub
  %and41 = and i32 %shl35, %or40
  %sub42 = sub i32 0, %and41
  %and43 = and i32 %and41, %sub42
  %sub44 = add i32 %and43, -1
  %shr45 = lshr i32 %sub44, 12
  %and46 = and i32 %shr45, 16
  %shr47 = lshr i32 %sub44, %and46
  %shr48 = lshr i32 %shr47, 5
  %and49 = and i32 %shr48, 8
  %add50 = or i32 %and49, %and46
  %shr51 = lshr i32 %shr47, %and49
  %shr52 = lshr i32 %shr51, 2
  %and53 = and i32 %shr52, 4
  %add54 = or i32 %add50, %and53
  %shr55 = lshr i32 %shr51, %and53
  %shr56 = lshr i32 %shr55, 1
  %and57 = and i32 %shr56, 2
  %add58 = or i32 %add54, %and57
  %shr59 = lshr i32 %shr55, %and57
  %shr60 = lshr i32 %shr59, 1
  %and61 = and i32 %shr60, 1
  %add62 = or i32 %add58, %and61
  %shr63 = lshr i32 %shr59, %and61
  %add64 = add i32 %add62, %shr63
  %shl65 = shl i32 %add64, 1
  %arrayidx66 = getelementptr inbounds %struct.malloc_state, %struct.malloc_state* @_gm_, i32 0, i32 10, i32 %shl65
  %13 = bitcast %struct.malloc_chunk** %arrayidx66 to %struct.malloc_chunk*
  %arrayidx66.sum = add i32 %shl65, 2
  %14 = getelementptr inbounds %struct.malloc_state, %struct.malloc_state* @_gm_, i32 0, i32 10, i32 %arrayidx66.sum
  %15 = load %struct.malloc_chunk*, %struct.malloc_chunk** %14, align 4
  %fd69 = getelementptr inbounds %struct.malloc_chunk, %struct.malloc_chunk* %15, i32 0, i32 2
  %16 = load %struct.malloc_chunk*, %struct.malloc_chunk** %fd69, align 4
  %cmp70 = icmp eq %struct.malloc_chunk* %13, %16
  br i1 %cmp70, label %if.then71, label %if.else75

if.then71:                                        ; preds = %if.then32
  %shl72 = shl i32 1, %add64
  %neg73 = xor i32 %shl72, -1
  %and74 = and i32 %0, %neg73
  store i32 %and74, i32* getelementptr inbounds (%struct.malloc_state, %struct.malloc_state* @_gm_, i32 0, i32 0), align 4
  br label %if.end89

if.else75:                                        ; preds = %if.then32
  %17 = bitcast %struct.malloc_chunk* %16 to i8*
  %18 = load i8*, i8** getelementptr inbounds (%struct.malloc_state, %struct.malloc_state* @_gm_, i32 0, i32 4), align 4
  %cmp76 = icmp ult i8* %17, %18
  br i1 %cmp76, label %if.else87, label %land.rhs77

land.rhs77:                                       ; preds = %if.else75
  %bk78 = getelementptr inbounds %struct.malloc_chunk, %struct.malloc_chunk* %16, i32 0, i32 3
  %19 = load %struct.malloc_chunk*, %struct.malloc_chunk** %bk78, align 4
  %cmp79 = icmp eq %struct.malloc_chunk* %19, %15
  br i1 %cmp79, label %if.then84, label %if.else87

if.then84:                                        ; preds = %land.rhs77
  store %struct.malloc_chunk* %13, %struct.malloc_chunk** %bk78, align 4
  store %struct.malloc_chunk* %16, %struct.malloc_chunk** %14, align 4
  br label %if.end89

if.else87:                                        ; preds = %land.rhs77, %if.else75
  tail call void @abort() #6
  unreachable

if.end89:                                         ; preds = %if.then84, %if.then71
  %shl90 = shl i32 %add64, 3
  %sub91 = sub i32 %shl90, %cond
  %or93 = or i32 %cond, 3
  %head94 = getelementptr inbounds %struct.malloc_chunk, %struct.malloc_chunk* %15, i32 0, i32 1
  store i32 %or93, i32* %head94, align 4
  %20 = bitcast %struct.malloc_chunk* %15 to i8*
  %add.ptr95 = getelementptr inbounds i8, i8* %20, i32 %cond
  %21 = bitcast i8* %add.ptr95 to %struct.malloc_chunk*
  %or96 = or i32 %sub91, 1
  %add.ptr95.sum102 = or i32 %cond, 4
  %head97 = getelementptr inbounds i8, i8* %20, i32 %add.ptr95.sum102
  %22 = bitcast i8* %head97 to i32*
  store i32 %or96, i32* %22, align 4
  %add.ptr98 = getelementptr inbounds i8, i8* %20, i32 %shl90
  %prev_foot = bitcast i8* %add.ptr98 to i32*
  store i32 %sub91, i32* %prev_foot, align 4
  %23 = load i32, i32* getelementptr inbounds (%struct.malloc_state, %struct.malloc_state* @_gm_, i32 0, i32 2), align 4
  %cmp99 = icmp eq i32 %23, 0
  br i1 %cmp99, label %if.end125, label %if.then100

if.then100:                                       ; preds = %if.end89
  %24 = load %struct.malloc_chunk*, %struct.malloc_chunk** getelementptr inbounds (%struct.malloc_state, %struct.malloc_state* @_gm_, i32 0, i32 5), align 4
  %shr101 = lshr i32 %23, 3
  %shl102 = shl nuw nsw i32 %shr101, 1
  %arrayidx103 = getelementptr inbounds %struct.malloc_state, %struct.malloc_state* @_gm_, i32 0, i32 10, i32 %shl102
  %25 = bitcast %struct.malloc_chunk** %arrayidx103 to %struct.malloc_chunk*
  %26 = load i32, i32* getelementptr inbounds (%struct.malloc_state, %struct.malloc_state* @_gm_, i32 0, i32 0), align 4
  %shl105 = shl i32 1, %shr101
  %and106 = and i32 %26, %shl105
  %tobool107 = icmp eq i32 %and106, 0
  br i1 %tobool107, label %if.then108, label %if.else111

if.then108:                                       ; preds = %if.then100
  %or110 = or i32 %26, %shl105
  store i32 %or110, i32* getelementptr inbounds (%struct.malloc_state, %struct.malloc_state* @_gm_, i32 0, i32 0), align 4
  %arrayidx103.sum.pre = add i32 %shl102, 2
  %.pre = getelementptr inbounds %struct.malloc_state, %struct.malloc_state* @_gm_, i32 0, i32 10, i32 %arrayidx103.sum.pre
  br label %if.end120

if.else111:                                       ; preds = %if.then100
  %arrayidx103.sum103 = add i32 %shl102, 2
  %27 = getelementptr inbounds %struct.malloc_state, %struct.malloc_state* @_gm_, i32 0, i32 10, i32 %arrayidx103.sum103
  %28 = load %struct.malloc_chunk*, %struct.malloc_chunk** %27, align 4
  %29 = bitcast %struct.malloc_chunk* %28 to i8*
  %30 = load i8*, i8** getelementptr inbounds (%struct.malloc_state, %struct.malloc_state* @_gm_, i32 0, i32 4), align 4
  %cmp113 = icmp ult i8* %29, %30
  br i1 %cmp113, label %if.else118, label %if.end120

if.else118:                                       ; preds = %if.else111
  tail call void @abort() #6
  unreachable

if.end120:                                        ; preds = %if.else111, %if.then108
  %.pre-phi = phi %struct.malloc_chunk** [ %27, %if.else111 ], [ %.pre, %if.then108 ]
  %F104.0 = phi %struct.malloc_chunk* [ %28, %if.else111 ], [ %25, %if.then108 ]
  store %struct.malloc_chunk* %24, %struct.malloc_chunk** %.pre-phi, align 4
  %bk122 = getelementptr inbounds %struct.malloc_chunk, %struct.malloc_chunk* %F104.0, i32 0, i32 3
  store %struct.malloc_chunk* %24, %struct.malloc_chunk** %bk122, align 4
  %fd123 = getelementptr inbounds %struct.malloc_chunk, %struct.malloc_chunk* %24, i32 0, i32 2
  store %struct.malloc_chunk* %F104.0, %struct.malloc_chunk** %fd123, align 4
  %bk124 = getelementptr inbounds %struct.malloc_chunk, %struct.malloc_chunk* %24, i32 0, i32 3
  store %struct.malloc_chunk* %25, %struct.malloc_chunk** %bk124, align 4
  br label %if.end125

if.end125:                                        ; preds = %if.end120, %if.end89
  store i32 %sub91, i32* getelementptr inbounds (%struct.malloc_state, %struct.malloc_state* @_gm_, i32 0, i32 2), align 4
  store %struct.malloc_chunk* %21, %struct.malloc_chunk** getelementptr inbounds (%struct.malloc_state, %struct.malloc_state* @_gm_, i32 0, i32 5), align 4
  %31 = bitcast %struct.malloc_chunk** %fd69 to i8*
  br label %postaction

if.else127:                                       ; preds = %if.then30
  %32 = load i32, i32* getelementptr inbounds (%struct.malloc_state, %struct.malloc_state* @_gm_, i32 0, i32 1), align 4
  %cmp128 = icmp eq i32 %32, 0
  br i1 %cmp128, label %if.end154, label %land.lhs.true

land.lhs.true:                                    ; preds = %if.else127
  %sub.i = sub i32 0, %32
  %and.i = and i32 %32, %sub.i
  %sub2.i = add i32 %and.i, -1
  %shr.i = lshr i32 %sub2.i, 12
  %and3.i = and i32 %shr.i, 16
  %shr4.i = lshr i32 %sub2.i, %and3.i
  %shr5.i = lshr i32 %shr4.i, 5
  %and6.i = and i32 %shr5.i, 8
  %add.i = or i32 %and6.i, %and3.i
  %shr7.i = lshr i32 %shr4.i, %and6.i
  %shr8.i = lshr i32 %shr7.i, 2
  %and9.i = and i32 %shr8.i, 4
  %add10.i = or i32 %add.i, %and9.i
  %shr11.i = lshr i32 %shr7.i, %and9.i
  %shr12.i = lshr i32 %shr11.i, 1
  %and13.i = and i32 %shr12.i, 2
  %add14.i = or i32 %add10.i, %and13.i
  %shr15.i = lshr i32 %shr11.i, %and13.i
  %shr16.i = lshr i32 %shr15.i, 1
  %and17.i = and i32 %shr16.i, 1
  %add18.i = or i32 %add14.i, %and17.i
  %shr19.i = lshr i32 %shr15.i, %and17.i
  %add20.i = add i32 %add18.i, %shr19.i
  %arrayidx.i = getelementptr inbounds %struct.malloc_state, %struct.malloc_state* @_gm_, i32 0, i32 11, i32 %add20.i
  %33 = load %struct.malloc_tree_chunk*, %struct.malloc_tree_chunk** %arrayidx.i, align 4
  %head.i = getelementptr inbounds %struct.malloc_tree_chunk, %struct.malloc_tree_chunk* %33, i32 0, i32 1
  %34 = load i32, i32* %head.i, align 4
  %and21.i = and i32 %34, -8
  %sub22.i = sub i32 %and21.i, %cond
  br label %while.cond.i

while.cond.i:                                     ; preds = %while.body.i, %land.lhs.true
  %rsize.0.i = phi i32 [ %sub22.i, %land.lhs.true ], [ %sub31.rsize.0.i, %while.body.i ]
  %v.0.i = phi %struct.malloc_tree_chunk* [ %33, %land.lhs.true ], [ %cond.v.0.i, %while.body.i ]
  %t.0.i = phi %struct.malloc_tree_chunk* [ %33, %land.lhs.true ], [ %cond6.i, %while.body.i ]
  %arrayidx23.i = getelementptr inbounds %struct.malloc_tree_chunk, %struct.malloc_tree_chunk* %t.0.i, i32 0, i32 4, i32 0
  %35 = load %struct.malloc_tree_chunk*, %struct.malloc_tree_chunk** %arrayidx23.i, align 4
  %cmp.i = icmp eq %struct.malloc_tree_chunk* %35, null
  br i1 %cmp.i, label %cond.end.i, label %while.body.i

cond.end.i:                                       ; preds = %while.cond.i
  %arrayidx27.i = getelementptr inbounds %struct.malloc_tree_chunk, %struct.malloc_tree_chunk* %t.0.i, i32 0, i32 4, i32 1
  %36 = load %struct.malloc_tree_chunk*, %struct.malloc_tree_chunk** %arrayidx27.i, align 4
  %cmp28.i = icmp eq %struct.malloc_tree_chunk* %36, null
  br i1 %cmp28.i, label %while.end.i, label %while.body.i

while.body.i:                                     ; preds = %cond.end.i, %while.cond.i
  %cond6.i = phi %struct.malloc_tree_chunk* [ %36, %cond.end.i ], [ %35, %while.cond.i ]
  %head29.i = getelementptr inbounds %struct.malloc_tree_chunk, %struct.malloc_tree_chunk* %cond6.i, i32 0, i32 1
  %37 = load i32, i32* %head29.i, align 4
  %and30.i = and i32 %37, -8
  %sub31.i = sub i32 %and30.i, %cond
  %cmp32.i = icmp ult i32 %sub31.i, %rsize.0.i
  %sub31.rsize.0.i = select i1 %cmp32.i, i32 %sub31.i, i32 %rsize.0.i
  %cond.v.0.i = select i1 %cmp32.i, %struct.malloc_tree_chunk* %cond6.i, %struct.malloc_tree_chunk* %v.0.i
  br label %while.cond.i

while.end.i:                                      ; preds = %cond.end.i
  %38 = bitcast %struct.malloc_tree_chunk* %v.0.i to i8*
  %39 = load i8*, i8** getelementptr inbounds (%struct.malloc_state, %struct.malloc_state* @_gm_, i32 0, i32 4), align 4
  %cmp33.i = icmp ult i8* %38, %39
  br i1 %cmp33.i, label %if.end227.i, label %if.then34.i

if.then34.i:                                      ; preds = %while.end.i
  %add.ptr.i = getelementptr inbounds i8, i8* %38, i32 %cond
  %40 = bitcast i8* %add.ptr.i to %struct.malloc_chunk*
  %cmp35.i = icmp ult i8* %38, %add.ptr.i
  br i1 %cmp35.i, label %if.then39.i, label %if.end227.i

if.then39.i:                                      ; preds = %if.then34.i
  %parent.i = getelementptr inbounds %struct.malloc_tree_chunk, %struct.malloc_tree_chunk* %v.0.i, i32 0, i32 5
  %41 = load %struct.malloc_tree_chunk*, %struct.malloc_tree_chunk** %parent.i, align 4
  %bk.i = getelementptr inbounds %struct.malloc_tree_chunk, %struct.malloc_tree_chunk* %v.0.i, i32 0, i32 3
  %42 = load %struct.malloc_tree_chunk*, %struct.malloc_tree_chunk** %bk.i, align 4
  %cmp40.i = icmp eq %struct.malloc_tree_chunk* %42, %v.0.i
  br i1 %cmp40.i, label %if.else59.i, label %if.then42.i

if.then42.i:                                      ; preds = %if.then39.i
  %fd.i = getelementptr inbounds %struct.malloc_tree_chunk, %struct.malloc_tree_chunk* %v.0.i, i32 0, i32 2
  %43 = load %struct.malloc_tree_chunk*, %struct.malloc_tree_chunk** %fd.i, align 4
  %44 = bitcast %struct.malloc_tree_chunk* %43 to i8*
  %cmp45.i = icmp ult i8* %44, %39
  br i1 %cmp45.i, label %if.else.i, label %land.lhs.true.i

land.lhs.true.i:                                  ; preds = %if.then42.i
  %bk47.i = getelementptr inbounds %struct.malloc_tree_chunk, %struct.malloc_tree_chunk* %43, i32 0, i32 3
  %45 = load %struct.malloc_tree_chunk*, %struct.malloc_tree_chunk** %bk47.i, align 4
  %cmp48.i = icmp eq %struct.malloc_tree_chunk* %45, %v.0.i
  br i1 %cmp48.i, label %land.rhs.i, label %if.else.i

land.rhs.i:                                       ; preds = %land.lhs.true.i
  %fd50.i = getelementptr inbounds %struct.malloc_tree_chunk, %struct.malloc_tree_chunk* %42, i32 0, i32 2
  %46 = load %struct.malloc_tree_chunk*, %struct.malloc_tree_chunk** %fd50.i, align 4
  %cmp51.i = icmp eq %struct.malloc_tree_chunk* %46, %v.0.i
  br i1 %cmp51.i, label %if.then55.i, label %if.else.i

if.then55.i:                                      ; preds = %land.rhs.i
  store %struct.malloc_tree_chunk* %42, %struct.malloc_tree_chunk** %bk47.i, align 4
  store %struct.malloc_tree_chunk* %43, %struct.malloc_tree_chunk** %fd50.i, align 4
  br label %if.end89.i

if.else.i:                                        ; preds = %land.rhs.i, %land.lhs.true.i, %if.then42.i
  tail call void @abort() #6
  unreachable

if.else59.i:                                      ; preds = %if.then39.i
  %arrayidx61.i = getelementptr inbounds %struct.malloc_tree_chunk, %struct.malloc_tree_chunk* %v.0.i, i32 0, i32 4, i32 1
  %47 = load %struct.malloc_tree_chunk*, %struct.malloc_tree_chunk** %arrayidx61.i, align 4
  %cmp62.i = icmp eq %struct.malloc_tree_chunk* %47, null
  br i1 %cmp62.i, label %lor.lhs.false.i, label %while.cond69.i

lor.lhs.false.i:                                  ; preds = %if.else59.i
  %arrayidx65.i = getelementptr inbounds %struct.malloc_tree_chunk, %struct.malloc_tree_chunk* %v.0.i, i32 0, i32 4, i32 0
  %48 = load %struct.malloc_tree_chunk*, %struct.malloc_tree_chunk** %arrayidx65.i, align 4
  %cmp66.i = icmp eq %struct.malloc_tree_chunk* %48, null
  br i1 %cmp66.i, label %if.end89.i, label %while.cond69.i

while.cond69.i:                                   ; preds = %lor.rhs.i, %while.cond69.i, %lor.lhs.false.i, %if.else59.i
  %RP.0.i = phi %struct.malloc_tree_chunk** [ %arrayidx65.i, %lor.lhs.false.i ], [ %arrayidx61.i, %if.else59.i ], [ %arrayidx71.i, %while.cond69.i ], [ %arrayidx75.i, %lor.rhs.i ]
  %R.0.i = phi %struct.malloc_tree_chunk* [ %48, %lor.lhs.false.i ], [ %47, %if.else59.i ], [ %49, %while.cond69.i ], [ %50, %lor.rhs.i ]
  %arrayidx71.i = getelementptr inbounds %struct.malloc_tree_chunk, %struct.malloc_tree_chunk* %R.0.i, i32 0, i32 4, i32 1
  %49 = load %struct.malloc_tree_chunk*, %struct.malloc_tree_chunk** %arrayidx71.i, align 4
  %cmp72.i = icmp eq %struct.malloc_tree_chunk* %49, null
  br i1 %cmp72.i, label %lor.rhs.i, label %while.cond69.i

lor.rhs.i:                                        ; preds = %while.cond69.i
  %arrayidx75.i = getelementptr inbounds %struct.malloc_tree_chunk, %struct.malloc_tree_chunk* %R.0.i, i32 0, i32 4, i32 0
  %50 = load %struct.malloc_tree_chunk*, %struct.malloc_tree_chunk** %arrayidx75.i, align 4
  %cmp76.i = icmp eq %struct.malloc_tree_chunk* %50, null
  br i1 %cmp76.i, label %while.end79.i, label %while.cond69.i

while.end79.i:                                    ; preds = %lor.rhs.i
  %51 = bitcast %struct.malloc_tree_chunk** %RP.0.i to i8*
  %cmp81.i = icmp ult i8* %51, %39
  br i1 %cmp81.i, label %if.else86.i, label %if.then85.i

if.then85.i:                                      ; preds = %while.end79.i
  store %struct.malloc_tree_chunk* null, %struct.malloc_tree_chunk** %RP.0.i, align 4
  br label %if.end89.i

if.else86.i:                                      ; preds = %while.end79.i
  tail call void @abort() #6
  unreachable

if.end89.i:                                       ; preds = %if.then85.i, %lor.lhs.false.i, %if.then55.i
  %R.1.i = phi %struct.malloc_tree_chunk* [ %42, %if.then55.i ], [ %R.0.i, %if.then85.i ], [ null, %lor.lhs.false.i ]
  %cmp90.i = icmp eq %struct.malloc_tree_chunk* %41, null
  br i1 %cmp90.i, label %if.end173.i, label %if.then92.i

if.then92.i:                                      ; preds = %if.end89.i
  %index.i = getelementptr inbounds %struct.malloc_tree_chunk, %struct.malloc_tree_chunk* %v.0.i, i32 0, i32 6
  %52 = load i32, i32* %index.i, align 4
  %arrayidx94.i = getelementptr inbounds %struct.malloc_state, %struct.malloc_state* @_gm_, i32 0, i32 11, i32 %52
  %53 = load %struct.malloc_tree_chunk*, %struct.malloc_tree_chunk** %arrayidx94.i, align 4
  %cmp95.i = icmp eq %struct.malloc_tree_chunk* %v.0.i, %53
  br i1 %cmp95.i, label %if.then97.i, label %if.else105.i

if.then97.i:                                      ; preds = %if.then92.i
  store %struct.malloc_tree_chunk* %R.1.i, %struct.malloc_tree_chunk** %arrayidx94.i, align 4
  %cond4.i = icmp eq %struct.malloc_tree_chunk* %R.1.i, null
  br i1 %cond4.i, label %if.end125.thread.i, label %if.then128.i

if.end125.thread.i:                               ; preds = %if.then97.i
  %shl.i = shl i32 1, %52
  %neg.i = xor i32 %shl.i, -1
  %54 = load i32, i32* getelementptr inbounds (%struct.malloc_state, %struct.malloc_state* @_gm_, i32 0, i32 1), align 4
  %and103.i = and i32 %54, %neg.i
  store i32 %and103.i, i32* getelementptr inbounds (%struct.malloc_state, %struct.malloc_state* @_gm_, i32 0, i32 1), align 4
  br label %if.end173.i

if.else105.i:                                     ; preds = %if.then92.i
  %55 = bitcast %struct.malloc_tree_chunk* %41 to i8*
  %56 = load i8*, i8** getelementptr inbounds (%struct.malloc_state, %struct.malloc_state* @_gm_, i32 0, i32 4), align 4
  %cmp107.i = icmp ult i8* %55, %56
  br i1 %cmp107.i, label %if.else123.i, label %if.then111.i

if.then111.i:                                     ; preds = %if.else105.i
  %arrayidx113.i = getelementptr inbounds %struct.malloc_tree_chunk, %struct.malloc_tree_chunk* %41, i32 0, i32 4, i32 0
  %57 = load %struct.malloc_tree_chunk*, %struct.malloc_tree_chunk** %arrayidx113.i, align 4
  %cmp114.i = icmp eq %struct.malloc_tree_chunk* %57, %v.0.i
  br i1 %cmp114.i, label %if.then116.i, label %if.else119.i

if.then116.i:                                     ; preds = %if.then111.i
  store %struct.malloc_tree_chunk* %R.1.i, %struct.malloc_tree_chunk** %arrayidx113.i, align 4
  br label %if.end125.i

if.else119.i:                                     ; preds = %if.then111.i
  %arrayidx121.i = getelementptr inbounds %struct.malloc_tree_chunk, %struct.malloc_tree_chunk* %41, i32 0, i32 4, i32 1
  store %struct.malloc_tree_chunk* %R.1.i, %struct.malloc_tree_chunk** %arrayidx121.i, align 4
  br label %if.end125.i

if.else123.i:                                     ; preds = %if.else105.i
  tail call void @abort() #6
  unreachable

if.end125.i:                                      ; preds = %if.else119.i, %if.then116.i
  %cmp126.i = icmp eq %struct.malloc_tree_chunk* %R.1.i, null
  br i1 %cmp126.i, label %if.end173.i, label %if.then128.i

if.then128.i:                                     ; preds = %if.end125.i, %if.then97.i
  %58 = bitcast %struct.malloc_tree_chunk* %R.1.i to i8*
  %59 = load i8*, i8** getelementptr inbounds (%struct.malloc_state, %struct.malloc_state* @_gm_, i32 0, i32 4), align 4
  %cmp130.i = icmp ult i8* %58, %59
  br i1 %cmp130.i, label %if.else170.i, label %if.then134.i

if.then134.i:                                     ; preds = %if.then128.i
  %parent135.i = getelementptr inbounds %struct.malloc_tree_chunk, %struct.malloc_tree_chunk* %R.1.i, i32 0, i32 5
  store %struct.malloc_tree_chunk* %41, %struct.malloc_tree_chunk** %parent135.i, align 4
  %arrayidx137.i = getelementptr inbounds %struct.malloc_tree_chunk, %struct.malloc_tree_chunk* %v.0.i, i32 0, i32 4, i32 0
  %60 = load %struct.malloc_tree_chunk*, %struct.malloc_tree_chunk** %arrayidx137.i, align 4
  %cmp138.i = icmp eq %struct.malloc_tree_chunk* %60, null
  br i1 %cmp138.i, label %if.end152.i, label %if.then140.i

if.then140.i:                                     ; preds = %if.then134.i
  %61 = bitcast %struct.malloc_tree_chunk* %60 to i8*
  %62 = load i8*, i8** getelementptr inbounds (%struct.malloc_state, %struct.malloc_state* @_gm_, i32 0, i32 4), align 4
  %cmp142.i = icmp ult i8* %61, %62
  br i1 %cmp142.i, label %if.else150.i, label %if.then146.i

if.then146.i:                                     ; preds = %if.then140.i
  %arrayidx148.i = getelementptr inbounds %struct.malloc_tree_chunk, %struct.malloc_tree_chunk* %R.1.i, i32 0, i32 4, i32 0
  store %struct.malloc_tree_chunk* %60, %struct.malloc_tree_chunk** %arrayidx148.i, align 4
  %parent149.i = getelementptr inbounds %struct.malloc_tree_chunk, %struct.malloc_tree_chunk* %60, i32 0, i32 5
  store %struct.malloc_tree_chunk* %R.1.i, %struct.malloc_tree_chunk** %parent149.i, align 4
  br label %if.end152.i

if.else150.i:                                     ; preds = %if.then140.i
  tail call void @abort() #6
  unreachable

if.end152.i:                                      ; preds = %if.then146.i, %if.then134.i
  %arrayidx154.i = getelementptr inbounds %struct.malloc_tree_chunk, %struct.malloc_tree_chunk* %v.0.i, i32 0, i32 4, i32 1
  %63 = load %struct.malloc_tree_chunk*, %struct.malloc_tree_chunk** %arrayidx154.i, align 4
  %cmp155.i = icmp eq %struct.malloc_tree_chunk* %63, null
  br i1 %cmp155.i, label %if.end173.i, label %if.then157.i

if.then157.i:                                     ; preds = %if.end152.i
  %64 = bitcast %struct.malloc_tree_chunk* %63 to i8*
  %65 = load i8*, i8** getelementptr inbounds (%struct.malloc_state, %struct.malloc_state* @_gm_, i32 0, i32 4), align 4
  %cmp159.i = icmp ult i8* %64, %65
  br i1 %cmp159.i, label %if.else167.i, label %if.then163.i

if.then163.i:                                     ; preds = %if.then157.i
  %arrayidx165.i = getelementptr inbounds %struct.malloc_tree_chunk, %struct.malloc_tree_chunk* %R.1.i, i32 0, i32 4, i32 1
  store %struct.malloc_tree_chunk* %63, %struct.malloc_tree_chunk** %arrayidx165.i, align 4
  %parent166.i = getelementptr inbounds %struct.malloc_tree_chunk, %struct.malloc_tree_chunk* %63, i32 0, i32 5
  store %struct.malloc_tree_chunk* %R.1.i, %struct.malloc_tree_chunk** %parent166.i, align 4
  br label %if.end173.i

if.else167.i:                                     ; preds = %if.then157.i
  tail call void @abort() #6
  unreachable

if.else170.i:                                     ; preds = %if.then128.i
  tail call void @abort() #6
  unreachable

if.end173.i:                                      ; preds = %if.then163.i, %if.end152.i, %if.end125.i, %if.end125.thread.i, %if.end89.i
  %cmp174.i = icmp ult i32 %rsize.0.i, 16
  br i1 %cmp174.i, label %if.then176.i, label %if.else184.i

if.then176.i:                                     ; preds = %if.end173.i
  %add177.i = add i32 %rsize.0.i, %cond
  %or178.i = or i32 %add177.i, 3
  %head179.i = getelementptr inbounds %struct.malloc_tree_chunk, %struct.malloc_tree_chunk* %v.0.i, i32 0, i32 1
  store i32 %or178.i, i32* %head179.i, align 4
  %add.ptr181.sum.i = add i32 %add177.i, 4
  %head182.i = getelementptr inbounds i8, i8* %38, i32 %add.ptr181.sum.i
  %66 = bitcast i8* %head182.i to i32*
  %67 = load i32, i32* %66, align 4
  %or183.i = or i32 %67, 1
  store i32 %or183.i, i32* %66, align 4
  br label %tmalloc_small.exit

if.else184.i:                                     ; preds = %if.end173.i
  %or186.i = or i32 %cond, 3
  %head187.i = getelementptr inbounds %struct.malloc_tree_chunk, %struct.malloc_tree_chunk* %v.0.i, i32 0, i32 1
  store i32 %or186.i, i32* %head187.i, align 4
  %or188.i = or i32 %rsize.0.i, 1
  %add.ptr.sum.i173 = or i32 %cond, 4
  %head189.i = getelementptr inbounds i8, i8* %38, i32 %add.ptr.sum.i173
  %68 = bitcast i8* %head189.i to i32*
  store i32 %or188.i, i32* %68, align 4
  %add.ptr.sum1.i = add i32 %rsize.0.i, %cond
  %add.ptr190.i = getelementptr inbounds i8, i8* %38, i32 %add.ptr.sum1.i
  %prev_foot.i = bitcast i8* %add.ptr190.i to i32*
  store i32 %rsize.0.i, i32* %prev_foot.i, align 4
  %69 = load i32, i32* getelementptr inbounds (%struct.malloc_state, %struct.malloc_state* @_gm_, i32 0, i32 2), align 4
  %cmp191.i = icmp eq i32 %69, 0
  br i1 %cmp191.i, label %if.end221.i, label %if.then193.i

if.then193.i:                                     ; preds = %if.else184.i
  %70 = load %struct.malloc_chunk*, %struct.malloc_chunk** getelementptr inbounds (%struct.malloc_state, %struct.malloc_state* @_gm_, i32 0, i32 5), align 4
  %shr194.i = lshr i32 %69, 3
  %shl195.i = shl nuw nsw i32 %shr194.i, 1
  %arrayidx196.i = getelementptr inbounds %struct.malloc_state, %struct.malloc_state* @_gm_, i32 0, i32 10, i32 %shl195.i
  %71 = bitcast %struct.malloc_chunk** %arrayidx196.i to %struct.malloc_chunk*
  %72 = load i32, i32* getelementptr inbounds (%struct.malloc_state, %struct.malloc_state* @_gm_, i32 0, i32 0), align 4
  %shl198.i = shl i32 1, %shr194.i
  %and199.i = and i32 %72, %shl198.i
  %tobool200.i = icmp eq i32 %and199.i, 0
  br i1 %tobool200.i, label %if.then201.i, label %if.else205.i

if.then201.i:                                     ; preds = %if.then193.i
  %or204.i = or i32 %72, %shl198.i
  store i32 %or204.i, i32* getelementptr inbounds (%struct.malloc_state, %struct.malloc_state* @_gm_, i32 0, i32 0), align 4
  %arrayidx196.sum.pre.i = add i32 %shl195.i, 2
  %.pre.i = getelementptr inbounds %struct.malloc_state, %struct.malloc_state* @_gm_, i32 0, i32 10, i32 %arrayidx196.sum.pre.i
  br label %if.end216.i

if.else205.i:                                     ; preds = %if.then193.i
  %arrayidx196.sum2.i = add i32 %shl195.i, 2
  %73 = getelementptr inbounds %struct.malloc_state, %struct.malloc_state* @_gm_, i32 0, i32 10, i32 %arrayidx196.sum2.i
  %74 = load %struct.malloc_chunk*, %struct.malloc_chunk** %73, align 4
  %75 = bitcast %struct.malloc_chunk* %74 to i8*
  %76 = load i8*, i8** getelementptr inbounds (%struct.malloc_state, %struct.malloc_state* @_gm_, i32 0, i32 4), align 4
  %cmp208.i = icmp ult i8* %75, %76
  br i1 %cmp208.i, label %if.else214.i, label %if.end216.i

if.else214.i:                                     ; preds = %if.else205.i
  tail call void @abort() #6
  unreachable

if.end216.i:                                      ; preds = %if.else205.i, %if.then201.i
  %.pre-phi.i = phi %struct.malloc_chunk** [ %73, %if.else205.i ], [ %.pre.i, %if.then201.i ]
  %F197.0.i = phi %struct.malloc_chunk* [ %74, %if.else205.i ], [ %71, %if.then201.i ]
  store %struct.malloc_chunk* %70, %struct.malloc_chunk** %.pre-phi.i, align 4
  %bk218.i = getelementptr inbounds %struct.malloc_chunk, %struct.malloc_chunk* %F197.0.i, i32 0, i32 3
  store %struct.malloc_chunk* %70, %struct.malloc_chunk** %bk218.i, align 4
  %fd219.i = getelementptr inbounds %struct.malloc_chunk, %struct.malloc_chunk* %70, i32 0, i32 2
  store %struct.malloc_chunk* %F197.0.i, %struct.malloc_chunk** %fd219.i, align 4
  %bk220.i = getelementptr inbounds %struct.malloc_chunk, %struct.malloc_chunk* %70, i32 0, i32 3
  store %struct.malloc_chunk* %71, %struct.malloc_chunk** %bk220.i, align 4
  br label %if.end221.i

if.end221.i:                                      ; preds = %if.end216.i, %if.else184.i
  store i32 %rsize.0.i, i32* getelementptr inbounds (%struct.malloc_state, %struct.malloc_state* @_gm_, i32 0, i32 2), align 4
  store %struct.malloc_chunk* %40, %struct.malloc_chunk** getelementptr inbounds (%struct.malloc_state, %struct.malloc_state* @_gm_, i32 0, i32 5), align 4
  br label %tmalloc_small.exit

if.end227.i:                                      ; preds = %if.then34.i, %while.end.i
  tail call void @abort() #6
  unreachable

tmalloc_small.exit:                               ; preds = %if.end221.i, %if.then176.i
  %add.ptr225.i = getelementptr inbounds %struct.malloc_tree_chunk, %struct.malloc_tree_chunk* %v.0.i, i32 0, i32 2
  %77 = bitcast %struct.malloc_tree_chunk** %add.ptr225.i to i8*
  br label %postaction

if.else137:                                       ; preds = %entry
  %cmp138 = icmp ugt i32 %bytes, -65
  br i1 %cmp138, label %if.end154, label %if.else141

if.else141:                                       ; preds = %if.else137
  %add143 = add i32 %bytes, 11
  %and144 = and i32 %add143, -8
  %78 = load i32, i32* getelementptr inbounds (%struct.malloc_state, %struct.malloc_state* @_gm_, i32 0, i32 1), align 4
  %cmp145 = icmp eq i32 %78, 0
  br i1 %cmp145, label %if.end154, label %land.lhs.true147

land.lhs.true147:                                 ; preds = %if.else141
  %sub.i105 = sub i32 0, %and144
  %shr.i106 = lshr i32 %add143, 8
  %cmp.i107 = icmp eq i32 %shr.i106, 0
  br i1 %cmp.i107, label %if.end23.i, label %if.else.i108

if.else.i108:                                     ; preds = %land.lhs.true147
  %cmp1.i = icmp ugt i32 %and144, 16777215
  br i1 %cmp1.i, label %if.end23.i, label %if.else3.i

if.else3.i:                                       ; preds = %if.else.i108
  %sub4.i = add i32 %shr.i106, 1048320
  %shr5.i109 = lshr i32 %sub4.i, 16
  %and.i110 = and i32 %shr5.i109, 8
  %shl.i111 = shl i32 %shr.i106, %and.i110
  %sub6.i = add i32 %shl.i111, 520192
  %shr7.i112 = lshr i32 %sub6.i, 16
  %and8.i = and i32 %shr7.i112, 4
  %add.i113 = or i32 %and8.i, %and.i110
  %shl9.i = shl i32 %shl.i111, %and8.i
  %sub10.i = add i32 %shl9.i, 245760
  %shr11.i114 = lshr i32 %sub10.i, 16
  %and12.i = and i32 %shr11.i114, 2
  %add13.i = or i32 %add.i113, %and12.i
  %sub14.i = sub i32 14, %add13.i
  %shl15.i = shl i32 %shl9.i, %and12.i
  %shr16.i115 = lshr i32 %shl15.i, 15
  %add17.i = add i32 %sub14.i, %shr16.i115
  %shl18.i = shl nsw i32 %add17.i, 1
  %add19.i = add i32 %add17.i, 7
  %shr20.i = lshr i32 %and144, %add19.i
  %and21.i116 = and i32 %shr20.i, 1
  %add22.i = or i32 %and21.i116, %shl18.i
  br label %if.end23.i

if.end23.i:                                       ; preds = %if.else3.i, %if.else.i108, %land.lhs.true147
  %idx.0.i = phi i32 [ %add22.i, %if.else3.i ], [ 0, %land.lhs.true147 ], [ 31, %if.else.i108 ]
  %arrayidx.i117 = getelementptr inbounds %struct.malloc_state, %struct.malloc_state* @_gm_, i32 0, i32 11, i32 %idx.0.i
  %79 = load %struct.malloc_tree_chunk*, %struct.malloc_tree_chunk** %arrayidx.i117, align 4
  %cmp24.i = icmp eq %struct.malloc_tree_chunk* %79, null
  br i1 %cmp24.i, label %if.end53.i, label %if.then25.i

if.then25.i:                                      ; preds = %if.end23.i
  %cmp26.i = icmp eq i32 %idx.0.i, 31
  br i1 %cmp26.i, label %cond.end.i118, label %cond.false.i

cond.false.i:                                     ; preds = %if.then25.i
  %shr27.i = lshr i32 %idx.0.i, 1
  %sub30.i = sub i32 25, %shr27.i
  br label %cond.end.i118

cond.end.i118:                                    ; preds = %cond.false.i, %if.then25.i
  %cond.i = phi i32 [ %sub30.i, %cond.false.i ], [ 0, %if.then25.i ]
  %shl31.i = shl i32 %and144, %cond.i
  br label %for.cond.i

for.cond.i:                                       ; preds = %if.end39.i, %cond.end.i118
  %rst.0.i = phi %struct.malloc_tree_chunk* [ null, %cond.end.i118 ], [ %rst.1.i, %if.end39.i ]
  %sizebits.0.i = phi i32 [ %shl31.i, %cond.end.i118 ], [ %shl52.i, %if.end39.i ]
  %t.0.i119 = phi %struct.malloc_tree_chunk* [ %79, %cond.end.i118 ], [ %82, %if.end39.i ]
  %rsize.0.i120 = phi i32 [ %sub.i105, %cond.end.i118 ], [ %rsize.1.i, %if.end39.i ]
  %v.0.i121 = phi %struct.malloc_tree_chunk* [ null, %cond.end.i118 ], [ %v.1.i, %if.end39.i ]
  %head.i122 = getelementptr inbounds %struct.malloc_tree_chunk, %struct.malloc_tree_chunk* %t.0.i119, i32 0, i32 1
  %80 = load i32, i32* %head.i122, align 4
  %and32.i = and i32 %80, -8
  %sub33.i = sub i32 %and32.i, %and144
  %cmp34.i = icmp ult i32 %sub33.i, %rsize.0.i120
  br i1 %cmp34.i, label %if.then35.i, label %if.end39.i

if.then35.i:                                      ; preds = %for.cond.i
  %cmp36.i = icmp eq i32 %and32.i, %and144
  br i1 %cmp36.i, label %if.end53.i, label %if.end39.i

if.end39.i:                                       ; preds = %if.then35.i, %for.cond.i
  %rsize.1.i = phi i32 [ %sub33.i, %if.then35.i ], [ %rsize.0.i120, %for.cond.i ]
  %v.1.i = phi %struct.malloc_tree_chunk* [ %t.0.i119, %if.then35.i ], [ %v.0.i121, %for.cond.i ]
  %arrayidx40.i = getelementptr inbounds %struct.malloc_tree_chunk, %struct.malloc_tree_chunk* %t.0.i119, i32 0, i32 4, i32 1
  %81 = load %struct.malloc_tree_chunk*, %struct.malloc_tree_chunk** %arrayidx40.i, align 4
  %shr41.i = lshr i32 %sizebits.0.i, 31
  %arrayidx44.i = getelementptr inbounds %struct.malloc_tree_chunk, %struct.malloc_tree_chunk* %t.0.i119, i32 0, i32 4, i32 %shr41.i
  %82 = load %struct.malloc_tree_chunk*, %struct.malloc_tree_chunk** %arrayidx44.i, align 4
  %cmp45.i123 = icmp eq %struct.malloc_tree_chunk* %81, null
  %cmp46.i = icmp eq %struct.malloc_tree_chunk* %81, %82
  %or.cond.i = or i1 %cmp45.i123, %cmp46.i
  %rst.1.i = select i1 %or.cond.i, %struct.malloc_tree_chunk* %rst.0.i, %struct.malloc_tree_chunk* %81
  %cmp49.i = icmp eq %struct.malloc_tree_chunk* %82, null
  %shl52.i = shl i32 %sizebits.0.i, 1
  br i1 %cmp49.i, label %if.end53.i, label %for.cond.i

if.end53.i:                                       ; preds = %if.end39.i, %if.then35.i, %if.end23.i
  %t.1.i = phi %struct.malloc_tree_chunk* [ null, %if.end23.i ], [ %rst.1.i, %if.end39.i ], [ %t.0.i119, %if.then35.i ]
  %rsize.2.i = phi i32 [ %sub.i105, %if.end23.i ], [ %rsize.1.i, %if.end39.i ], [ %sub33.i, %if.then35.i ]
  %v.2.i = phi %struct.malloc_tree_chunk* [ null, %if.end23.i ], [ %v.1.i, %if.end39.i ], [ %t.0.i119, %if.then35.i ]
  %cmp54.i = icmp eq %struct.malloc_tree_chunk* %t.1.i, null
  %cmp56.i = icmp eq %struct.malloc_tree_chunk* %v.2.i, null
  %or.cond16.i = and i1 %cmp54.i, %cmp56.i
  br i1 %or.cond16.i, label %if.then57.i, label %while.cond.preheader.i

if.then57.i:                                      ; preds = %if.end53.i
  %shl59.i = shl i32 2, %idx.0.i
  %sub62.i = sub i32 0, %shl59.i
  %or.i = or i32 %shl59.i, %sub62.i
  %and63.i = and i32 %78, %or.i
  %cmp64.i = icmp eq i32 %and63.i, 0
  br i1 %cmp64.i, label %if.end154, label %if.then65.i

if.then65.i:                                      ; preds = %if.then57.i
  %sub66.i = sub i32 0, %and63.i
  %and67.i = and i32 %and63.i, %sub66.i
  %sub69.i = add i32 %and67.i, -1
  %shr71.i = lshr i32 %sub69.i, 12
  %and72.i = and i32 %shr71.i, 16
  %shr74.i = lshr i32 %sub69.i, %and72.i
  %shr75.i = lshr i32 %shr74.i, 5
  %and76.i = and i32 %shr75.i, 8
  %add77.i = or i32 %and76.i, %and72.i
  %shr78.i = lshr i32 %shr74.i, %and76.i
  %shr79.i = lshr i32 %shr78.i, 2
  %and80.i = and i32 %shr79.i, 4
  %add81.i = or i32 %add77.i, %and80.i
  %shr82.i = lshr i32 %shr78.i, %and80.i
  %shr83.i = lshr i32 %shr82.i, 1
  %and84.i = and i32 %shr83.i, 2
  %add85.i = or i32 %add81.i, %and84.i
  %shr86.i = lshr i32 %shr82.i, %and84.i
  %shr87.i = lshr i32 %shr86.i, 1
  %and88.i = and i32 %shr87.i, 1
  %add89.i = or i32 %add85.i, %and88.i
  %shr90.i = lshr i32 %shr86.i, %and88.i
  %add91.i = add i32 %add89.i, %shr90.i
  %arrayidx93.i = getelementptr inbounds %struct.malloc_state, %struct.malloc_state* @_gm_, i32 0, i32 11, i32 %add91.i
  %83 = load %struct.malloc_tree_chunk*, %struct.malloc_tree_chunk** %arrayidx93.i, align 4
  br label %while.cond.preheader.i

while.cond.preheader.i:                           ; preds = %if.then65.i, %if.end53.i
  %t.2.ph.i = phi %struct.malloc_tree_chunk* [ %t.1.i, %if.end53.i ], [ %83, %if.then65.i ]
  %cmp9626.i = icmp eq %struct.malloc_tree_chunk* %t.2.ph.i, null
  br i1 %cmp9626.i, label %while.end.i125, label %while.body.i124

while.body.i124:                                  ; preds = %while.cond.backedge.i, %while.body.i124, %while.cond.preheader.i
  %v.329.i = phi %struct.malloc_tree_chunk* [ %v.2.i, %while.cond.preheader.i ], [ %t.2.v.3.i, %while.body.i124 ], [ %t.2.v.3.i, %while.cond.backedge.i ]
  %rsize.328.i = phi i32 [ %rsize.2.i, %while.cond.preheader.i ], [ %sub100.rsize.3.i, %while.body.i124 ], [ %sub100.rsize.3.i, %while.cond.backedge.i ]
  %t.227.i = phi %struct.malloc_tree_chunk* [ %t.2.ph.i, %while.cond.preheader.i ], [ %85, %while.body.i124 ], [ %86, %while.cond.backedge.i ]
  %head98.i = getelementptr inbounds %struct.malloc_tree_chunk, %struct.malloc_tree_chunk* %t.227.i, i32 0, i32 1
  %84 = load i32, i32* %head98.i, align 4
  %and99.i = and i32 %84, -8
  %sub100.i = sub i32 %and99.i, %and144
  %cmp101.i = icmp ult i32 %sub100.i, %rsize.328.i
  %sub100.rsize.3.i = select i1 %cmp101.i, i32 %sub100.i, i32 %rsize.328.i
  %t.2.v.3.i = select i1 %cmp101.i, %struct.malloc_tree_chunk* %t.227.i, %struct.malloc_tree_chunk* %v.329.i
  %arrayidx105.i = getelementptr inbounds %struct.malloc_tree_chunk, %struct.malloc_tree_chunk* %t.227.i, i32 0, i32 4, i32 0
  %85 = load %struct.malloc_tree_chunk*, %struct.malloc_tree_chunk** %arrayidx105.i, align 4
  %cmp106.i = icmp eq %struct.malloc_tree_chunk* %85, null
  br i1 %cmp106.i, label %while.cond.backedge.i, label %while.body.i124

while.cond.backedge.i:                            ; preds = %while.body.i124
  %arrayidx112.i = getelementptr inbounds %struct.malloc_tree_chunk, %struct.malloc_tree_chunk* %t.227.i, i32 0, i32 4, i32 1
  %86 = load %struct.malloc_tree_chunk*, %struct.malloc_tree_chunk** %arrayidx112.i, align 4
  %cmp96.i = icmp eq %struct.malloc_tree_chunk* %86, null
  br i1 %cmp96.i, label %while.end.i125, label %while.body.i124

while.end.i125:                                   ; preds = %while.cond.backedge.i, %while.cond.preheader.i
  %v.3.lcssa.i = phi %struct.malloc_tree_chunk* [ %v.2.i, %while.cond.preheader.i ], [ %t.2.v.3.i, %while.cond.backedge.i ]
  %rsize.3.lcssa.i = phi i32 [ %rsize.2.i, %while.cond.preheader.i ], [ %sub100.rsize.3.i, %while.cond.backedge.i ]
  %cmp115.i = icmp eq %struct.malloc_tree_chunk* %v.3.lcssa.i, null
  br i1 %cmp115.i, label %if.end154, label %land.lhs.true116.i

land.lhs.true116.i:                               ; preds = %while.end.i125
  %87 = load i32, i32* getelementptr inbounds (%struct.malloc_state, %struct.malloc_state* @_gm_, i32 0, i32 2), align 4
  %sub117.i = sub i32 %87, %and144
  %cmp118.i = icmp ult i32 %rsize.3.lcssa.i, %sub117.i
  br i1 %cmp118.i, label %if.then119.i, label %if.end154

if.then119.i:                                     ; preds = %land.lhs.true116.i
  %88 = bitcast %struct.malloc_tree_chunk* %v.3.lcssa.i to i8*
  %89 = load i8*, i8** getelementptr inbounds (%struct.malloc_state, %struct.malloc_state* @_gm_, i32 0, i32 4), align 4
  %cmp120.i = icmp ult i8* %88, %89
  br i1 %cmp120.i, label %if.end438.i, label %if.then121.i

if.then121.i:                                     ; preds = %if.then119.i
  %add.ptr.i126 = getelementptr inbounds i8, i8* %88, i32 %and144
  %90 = bitcast i8* %add.ptr.i126 to %struct.malloc_chunk*
  %cmp122.i = icmp ult i8* %88, %add.ptr.i126
  br i1 %cmp122.i, label %if.then126.i, label %if.end438.i

if.then126.i:                                     ; preds = %if.then121.i
  %parent.i127 = getelementptr inbounds %struct.malloc_tree_chunk, %struct.malloc_tree_chunk* %v.3.lcssa.i, i32 0, i32 5
  %91 = load %struct.malloc_tree_chunk*, %struct.malloc_tree_chunk** %parent.i127, align 4
  %bk.i128 = getelementptr inbounds %struct.malloc_tree_chunk, %struct.malloc_tree_chunk* %v.3.lcssa.i, i32 0, i32 3
  %92 = load %struct.malloc_tree_chunk*, %struct.malloc_tree_chunk** %bk.i128, align 4
  %cmp127.i = icmp eq %struct.malloc_tree_chunk* %92, %v.3.lcssa.i
  br i1 %cmp127.i, label %if.else148.i, label %if.then129.i

if.then129.i:                                     ; preds = %if.then126.i
  %fd.i129 = getelementptr inbounds %struct.malloc_tree_chunk, %struct.malloc_tree_chunk* %v.3.lcssa.i, i32 0, i32 2
  %93 = load %struct.malloc_tree_chunk*, %struct.malloc_tree_chunk** %fd.i129, align 4
  %94 = bitcast %struct.malloc_tree_chunk* %93 to i8*
  %cmp132.i = icmp ult i8* %94, %89
  br i1 %cmp132.i, label %if.else146.i, label %land.lhs.true134.i

land.lhs.true134.i:                               ; preds = %if.then129.i
  %bk135.i = getelementptr inbounds %struct.malloc_tree_chunk, %struct.malloc_tree_chunk* %93, i32 0, i32 3
  %95 = load %struct.malloc_tree_chunk*, %struct.malloc_tree_chunk** %bk135.i, align 4
  %cmp136.i = icmp eq %struct.malloc_tree_chunk* %95, %v.3.lcssa.i
  br i1 %cmp136.i, label %land.rhs.i130, label %if.else146.i

land.rhs.i130:                                    ; preds = %land.lhs.true134.i
  %fd138.i = getelementptr inbounds %struct.malloc_tree_chunk, %struct.malloc_tree_chunk* %92, i32 0, i32 2
  %96 = load %struct.malloc_tree_chunk*, %struct.malloc_tree_chunk** %fd138.i, align 4
  %cmp139.i = icmp eq %struct.malloc_tree_chunk* %96, %v.3.lcssa.i
  br i1 %cmp139.i, label %if.then143.i, label %if.else146.i

if.then143.i:                                     ; preds = %land.rhs.i130
  store %struct.malloc_tree_chunk* %92, %struct.malloc_tree_chunk** %bk135.i, align 4
  store %struct.malloc_tree_chunk* %93, %struct.malloc_tree_chunk** %fd138.i, align 4
  br label %if.end178.i

if.else146.i:                                     ; preds = %land.rhs.i130, %land.lhs.true134.i, %if.then129.i
  tail call void @abort() #6
  unreachable

if.else148.i:                                     ; preds = %if.then126.i
  %arrayidx150.i = getelementptr inbounds %struct.malloc_tree_chunk, %struct.malloc_tree_chunk* %v.3.lcssa.i, i32 0, i32 4, i32 1
  %97 = load %struct.malloc_tree_chunk*, %struct.malloc_tree_chunk** %arrayidx150.i, align 4
  %cmp151.i = icmp eq %struct.malloc_tree_chunk* %97, null
  br i1 %cmp151.i, label %lor.lhs.false.i133, label %while.cond158.i

lor.lhs.false.i133:                               ; preds = %if.else148.i
  %arrayidx154.i131 = getelementptr inbounds %struct.malloc_tree_chunk, %struct.malloc_tree_chunk* %v.3.lcssa.i, i32 0, i32 4, i32 0
  %98 = load %struct.malloc_tree_chunk*, %struct.malloc_tree_chunk** %arrayidx154.i131, align 4
  %cmp155.i132 = icmp eq %struct.malloc_tree_chunk* %98, null
  br i1 %cmp155.i132, label %if.end178.i, label %while.cond158.i

while.cond158.i:                                  ; preds = %lor.rhs.i136, %while.cond158.i, %lor.lhs.false.i133, %if.else148.i
  %RP.0.i134 = phi %struct.malloc_tree_chunk** [ %arrayidx154.i131, %lor.lhs.false.i133 ], [ %arrayidx150.i, %if.else148.i ], [ %arrayidx160.i, %while.cond158.i ], [ %arrayidx164.i, %lor.rhs.i136 ]
  %R.0.i135 = phi %struct.malloc_tree_chunk* [ %98, %lor.lhs.false.i133 ], [ %97, %if.else148.i ], [ %99, %while.cond158.i ], [ %100, %lor.rhs.i136 ]
  %arrayidx160.i = getelementptr inbounds %struct.malloc_tree_chunk, %struct.malloc_tree_chunk* %R.0.i135, i32 0, i32 4, i32 1
  %99 = load %struct.malloc_tree_chunk*, %struct.malloc_tree_chunk** %arrayidx160.i, align 4
  %cmp161.i = icmp eq %struct.malloc_tree_chunk* %99, null
  br i1 %cmp161.i, label %lor.rhs.i136, label %while.cond158.i

lor.rhs.i136:                                     ; preds = %while.cond158.i
  %arrayidx164.i = getelementptr inbounds %struct.malloc_tree_chunk, %struct.malloc_tree_chunk* %R.0.i135, i32 0, i32 4, i32 0
  %100 = load %struct.malloc_tree_chunk*, %struct.malloc_tree_chunk** %arrayidx164.i, align 4
  %cmp165.i = icmp eq %struct.malloc_tree_chunk* %100, null
  br i1 %cmp165.i, label %while.end168.i, label %while.cond158.i

while.end168.i:                                   ; preds = %lor.rhs.i136
  %101 = bitcast %struct.malloc_tree_chunk** %RP.0.i134 to i8*
  %cmp170.i = icmp ult i8* %101, %89
  br i1 %cmp170.i, label %if.else175.i, label %if.then174.i

if.then174.i:                                     ; preds = %while.end168.i
  store %struct.malloc_tree_chunk* null, %struct.malloc_tree_chunk** %RP.0.i134, align 4
  br label %if.end178.i

if.else175.i:                                     ; preds = %while.end168.i
  tail call void @abort() #6
  unreachable

if.end178.i:                                      ; preds = %if.then174.i, %lor.lhs.false.i133, %if.then143.i
  %R.1.i137 = phi %struct.malloc_tree_chunk* [ %92, %if.then143.i ], [ %R.0.i135, %if.then174.i ], [ null, %lor.lhs.false.i133 ]
  %cmp179.i = icmp eq %struct.malloc_tree_chunk* %91, null
  br i1 %cmp179.i, label %if.end263.i, label %if.then181.i

if.then181.i:                                     ; preds = %if.end178.i
  %index.i138 = getelementptr inbounds %struct.malloc_tree_chunk, %struct.malloc_tree_chunk* %v.3.lcssa.i, i32 0, i32 6
  %102 = load i32, i32* %index.i138, align 4
  %arrayidx183.i = getelementptr inbounds %struct.malloc_state, %struct.malloc_state* @_gm_, i32 0, i32 11, i32 %102
  %103 = load %struct.malloc_tree_chunk*, %struct.malloc_tree_chunk** %arrayidx183.i, align 4
  %cmp184.i = icmp eq %struct.malloc_tree_chunk* %v.3.lcssa.i, %103
  br i1 %cmp184.i, label %if.then186.i, label %if.else195.i

if.then186.i:                                     ; preds = %if.then181.i
  store %struct.malloc_tree_chunk* %R.1.i137, %struct.malloc_tree_chunk** %arrayidx183.i, align 4
  %cond18.i = icmp eq %struct.malloc_tree_chunk* %R.1.i137, null
  br i1 %cond18.i, label %if.end215.thread.i, label %if.then218.i

if.end215.thread.i:                               ; preds = %if.then186.i
  %shl191.i = shl i32 1, %102
  %neg.i139 = xor i32 %shl191.i, -1
  %104 = load i32, i32* getelementptr inbounds (%struct.malloc_state, %struct.malloc_state* @_gm_, i32 0, i32 1), align 4
  %and193.i = and i32 %104, %neg.i139
  store i32 %and193.i, i32* getelementptr inbounds (%struct.malloc_state, %struct.malloc_state* @_gm_, i32 0, i32 1), align 4
  br label %if.end263.i

if.else195.i:                                     ; preds = %if.then181.i
  %105 = bitcast %struct.malloc_tree_chunk* %91 to i8*
  %106 = load i8*, i8** getelementptr inbounds (%struct.malloc_state, %struct.malloc_state* @_gm_, i32 0, i32 4), align 4
  %cmp197.i = icmp ult i8* %105, %106
  br i1 %cmp197.i, label %if.else213.i, label %if.then201.i140

if.then201.i140:                                  ; preds = %if.else195.i
  %arrayidx203.i = getelementptr inbounds %struct.malloc_tree_chunk, %struct.malloc_tree_chunk* %91, i32 0, i32 4, i32 0
  %107 = load %struct.malloc_tree_chunk*, %struct.malloc_tree_chunk** %arrayidx203.i, align 4
  %cmp204.i = icmp eq %struct.malloc_tree_chunk* %107, %v.3.lcssa.i
  br i1 %cmp204.i, label %if.then206.i, label %if.else209.i

if.then206.i:                                     ; preds = %if.then201.i140
  store %struct.malloc_tree_chunk* %R.1.i137, %struct.malloc_tree_chunk** %arrayidx203.i, align 4
  br label %if.end215.i

if.else209.i:                                     ; preds = %if.then201.i140
  %arrayidx211.i = getelementptr inbounds %struct.malloc_tree_chunk, %struct.malloc_tree_chunk* %91, i32 0, i32 4, i32 1
  store %struct.malloc_tree_chunk* %R.1.i137, %struct.malloc_tree_chunk** %arrayidx211.i, align 4
  br label %if.end215.i

if.else213.i:                                     ; preds = %if.else195.i
  tail call void @abort() #6
  unreachable

if.end215.i:                                      ; preds = %if.else209.i, %if.then206.i
  %cmp216.i = icmp eq %struct.malloc_tree_chunk* %R.1.i137, null
  br i1 %cmp216.i, label %if.end263.i, label %if.then218.i

if.then218.i:                                     ; preds = %if.end215.i, %if.then186.i
  %108 = bitcast %struct.malloc_tree_chunk* %R.1.i137 to i8*
  %109 = load i8*, i8** getelementptr inbounds (%struct.malloc_state, %struct.malloc_state* @_gm_, i32 0, i32 4), align 4
  %cmp220.i = icmp ult i8* %108, %109
  br i1 %cmp220.i, label %if.else260.i, label %if.then224.i

if.then224.i:                                     ; preds = %if.then218.i
  %parent225.i = getelementptr inbounds %struct.malloc_tree_chunk, %struct.malloc_tree_chunk* %R.1.i137, i32 0, i32 5
  store %struct.malloc_tree_chunk* %91, %struct.malloc_tree_chunk** %parent225.i, align 4
  %arrayidx227.i = getelementptr inbounds %struct.malloc_tree_chunk, %struct.malloc_tree_chunk* %v.3.lcssa.i, i32 0, i32 4, i32 0
  %110 = load %struct.malloc_tree_chunk*, %struct.malloc_tree_chunk** %arrayidx227.i, align 4
  %cmp228.i = icmp eq %struct.malloc_tree_chunk* %110, null
  br i1 %cmp228.i, label %if.end242.i, label %if.then230.i

if.then230.i:                                     ; preds = %if.then224.i
  %111 = bitcast %struct.malloc_tree_chunk* %110 to i8*
  %112 = load i8*, i8** getelementptr inbounds (%struct.malloc_state, %struct.malloc_state* @_gm_, i32 0, i32 4), align 4
  %cmp232.i = icmp ult i8* %111, %112
  br i1 %cmp232.i, label %if.else240.i, label %if.then236.i

if.then236.i:                                     ; preds = %if.then230.i
  %arrayidx238.i = getelementptr inbounds %struct.malloc_tree_chunk, %struct.malloc_tree_chunk* %R.1.i137, i32 0, i32 4, i32 0
  store %struct.malloc_tree_chunk* %110, %struct.malloc_tree_chunk** %arrayidx238.i, align 4
  %parent239.i = getelementptr inbounds %struct.malloc_tree_chunk, %struct.malloc_tree_chunk* %110, i32 0, i32 5
  store %struct.malloc_tree_chunk* %R.1.i137, %struct.malloc_tree_chunk** %parent239.i, align 4
  br label %if.end242.i

if.else240.i:                                     ; preds = %if.then230.i
  tail call void @abort() #6
  unreachable

if.end242.i:                                      ; preds = %if.then236.i, %if.then224.i
  %arrayidx244.i = getelementptr inbounds %struct.malloc_tree_chunk, %struct.malloc_tree_chunk* %v.3.lcssa.i, i32 0, i32 4, i32 1
  %113 = load %struct.malloc_tree_chunk*, %struct.malloc_tree_chunk** %arrayidx244.i, align 4
  %cmp245.i = icmp eq %struct.malloc_tree_chunk* %113, null
  br i1 %cmp245.i, label %if.end263.i, label %if.then247.i

if.then247.i:                                     ; preds = %if.end242.i
  %114 = bitcast %struct.malloc_tree_chunk* %113 to i8*
  %115 = load i8*, i8** getelementptr inbounds (%struct.malloc_state, %struct.malloc_state* @_gm_, i32 0, i32 4), align 4
  %cmp249.i = icmp ult i8* %114, %115
  br i1 %cmp249.i, label %if.else257.i, label %if.then253.i

if.then253.i:                                     ; preds = %if.then247.i
  %arrayidx255.i = getelementptr inbounds %struct.malloc_tree_chunk, %struct.malloc_tree_chunk* %R.1.i137, i32 0, i32 4, i32 1
  store %struct.malloc_tree_chunk* %113, %struct.malloc_tree_chunk** %arrayidx255.i, align 4
  %parent256.i = getelementptr inbounds %struct.malloc_tree_chunk, %struct.malloc_tree_chunk* %113, i32 0, i32 5
  store %struct.malloc_tree_chunk* %R.1.i137, %struct.malloc_tree_chunk** %parent256.i, align 4
  br label %if.end263.i

if.else257.i:                                     ; preds = %if.then247.i
  tail call void @abort() #6
  unreachable

if.else260.i:                                     ; preds = %if.then218.i
  tail call void @abort() #6
  unreachable

if.end263.i:                                      ; preds = %if.then253.i, %if.end242.i, %if.end215.i, %if.end215.thread.i, %if.end178.i
  %cmp264.i = icmp ult i32 %rsize.3.lcssa.i, 16
  br i1 %cmp264.i, label %if.then266.i, label %if.else275.i

if.then266.i:                                     ; preds = %if.end263.i
  %add267.i = add i32 %rsize.3.lcssa.i, %and144
  %or269.i = or i32 %add267.i, 3
  %head270.i = getelementptr inbounds %struct.malloc_tree_chunk, %struct.malloc_tree_chunk* %v.3.lcssa.i, i32 0, i32 1
  store i32 %or269.i, i32* %head270.i, align 4
  %add.ptr272.sum.i = add i32 %add267.i, 4
  %head273.i = getelementptr inbounds i8, i8* %88, i32 %add.ptr272.sum.i
  %116 = bitcast i8* %head273.i to i32*
  %117 = load i32, i32* %116, align 4
  %or274.i = or i32 %117, 1
  store i32 %or274.i, i32* %116, align 4
  br label %tmalloc_large.exit

if.else275.i:                                     ; preds = %if.end263.i
  %or277.i = or i32 %and144, 3
  %head278.i = getelementptr inbounds %struct.malloc_tree_chunk, %struct.malloc_tree_chunk* %v.3.lcssa.i, i32 0, i32 1
  store i32 %or277.i, i32* %head278.i, align 4
  %or279.i = or i32 %rsize.3.lcssa.i, 1
  %add.ptr.sum.i141172 = or i32 %and144, 4
  %head280.i = getelementptr inbounds i8, i8* %88, i32 %add.ptr.sum.i141172
  %118 = bitcast i8* %head280.i to i32*
  store i32 %or279.i, i32* %118, align 4
  %add.ptr.sum1.i142 = add i32 %rsize.3.lcssa.i, %and144
  %add.ptr281.i = getelementptr inbounds i8, i8* %88, i32 %add.ptr.sum1.i142
  %prev_foot.i143 = bitcast i8* %add.ptr281.i to i32*
  store i32 %rsize.3.lcssa.i, i32* %prev_foot.i143, align 4
  %shr282.i = lshr i32 %rsize.3.lcssa.i, 3
  %cmp283.i = icmp ult i32 %rsize.3.lcssa.i, 256
  br i1 %cmp283.i, label %if.then285.i, label %if.else313.i

if.then285.i:                                     ; preds = %if.else275.i
  %shl287.i = shl nuw nsw i32 %shr282.i, 1
  %arrayidx288.i = getelementptr inbounds %struct.malloc_state, %struct.malloc_state* @_gm_, i32 0, i32 10, i32 %shl287.i
  %119 = bitcast %struct.malloc_chunk** %arrayidx288.i to %struct.malloc_chunk*
  %120 = load i32, i32* getelementptr inbounds (%struct.malloc_state, %struct.malloc_state* @_gm_, i32 0, i32 0), align 4
  %shl290.i = shl i32 1, %shr282.i
  %and291.i = and i32 %120, %shl290.i
  %tobool292.i = icmp eq i32 %and291.i, 0
  br i1 %tobool292.i, label %if.then293.i, label %if.else297.i

if.then293.i:                                     ; preds = %if.then285.i
  %or296.i = or i32 %120, %shl290.i
  store i32 %or296.i, i32* getelementptr inbounds (%struct.malloc_state, %struct.malloc_state* @_gm_, i32 0, i32 0), align 4
  %arrayidx288.sum.pre.i = add i32 %shl287.i, 2
  %.pre.i144 = getelementptr inbounds %struct.malloc_state, %struct.malloc_state* @_gm_, i32 0, i32 10, i32 %arrayidx288.sum.pre.i
  br label %if.end308.i

if.else297.i:                                     ; preds = %if.then285.i
  %arrayidx288.sum15.i = add i32 %shl287.i, 2
  %121 = getelementptr inbounds %struct.malloc_state, %struct.malloc_state* @_gm_, i32 0, i32 10, i32 %arrayidx288.sum15.i
  %122 = load %struct.malloc_chunk*, %struct.malloc_chunk** %121, align 4
  %123 = bitcast %struct.malloc_chunk* %122 to i8*
  %124 = load i8*, i8** getelementptr inbounds (%struct.malloc_state, %struct.malloc_state* @_gm_, i32 0, i32 4), align 4
  %cmp300.i = icmp ult i8* %123, %124
  br i1 %cmp300.i, label %if.else306.i, label %if.end308.i

if.else306.i:                                     ; preds = %if.else297.i
  tail call void @abort() #6
  unreachable

if.end308.i:                                      ; preds = %if.else297.i, %if.then293.i
  %.pre-phi.i145 = phi %struct.malloc_chunk** [ %121, %if.else297.i ], [ %.pre.i144, %if.then293.i ]
  %F289.0.i = phi %struct.malloc_chunk* [ %122, %if.else297.i ], [ %119, %if.then293.i ]
  store %struct.malloc_chunk* %90, %struct.malloc_chunk** %.pre-phi.i145, align 4
  %bk310.i = getelementptr inbounds %struct.malloc_chunk, %struct.malloc_chunk* %F289.0.i, i32 0, i32 3
  store %struct.malloc_chunk* %90, %struct.malloc_chunk** %bk310.i, align 4
  %add.ptr.sum13.i = add i32 %and144, 8
  %fd311.i = getelementptr inbounds i8, i8* %88, i32 %add.ptr.sum13.i
  %125 = bitcast i8* %fd311.i to %struct.malloc_chunk**
  store %struct.malloc_chunk* %F289.0.i, %struct.malloc_chunk** %125, align 4
  %add.ptr.sum14.i = add i32 %and144, 12
  %bk312.i = getelementptr inbounds i8, i8* %88, i32 %add.ptr.sum14.i
  %126 = bitcast i8* %bk312.i to %struct.malloc_chunk**
  store %struct.malloc_chunk* %119, %struct.malloc_chunk** %126, align 4
  br label %tmalloc_large.exit

if.else313.i:                                     ; preds = %if.else275.i
  %127 = bitcast i8* %add.ptr.i126 to %struct.malloc_tree_chunk*
  %shr317.i = lshr i32 %rsize.3.lcssa.i, 8
  %cmp318.i = icmp eq i32 %shr317.i, 0
  br i1 %cmp318.i, label %if.end352.i, label %if.else321.i

if.else321.i:                                     ; preds = %if.else313.i
  %cmp322.i = icmp ugt i32 %rsize.3.lcssa.i, 16777215
  br i1 %cmp322.i, label %if.end352.i, label %if.else325.i

if.else325.i:                                     ; preds = %if.else321.i
  %sub328.i = add i32 %shr317.i, 1048320
  %shr329.i = lshr i32 %sub328.i, 16
  %and330.i = and i32 %shr329.i, 8
  %shl332.i = shl i32 %shr317.i, %and330.i
  %sub333.i = add i32 %shl332.i, 520192
  %shr334.i = lshr i32 %sub333.i, 16
  %and335.i = and i32 %shr334.i, 4
  %add336.i = or i32 %and335.i, %and330.i
  %shl337.i = shl i32 %shl332.i, %and335.i
  %sub338.i = add i32 %shl337.i, 245760
  %shr339.i = lshr i32 %sub338.i, 16
  %and340.i = and i32 %shr339.i, 2
  %add341.i = or i32 %add336.i, %and340.i
  %sub342.i = sub i32 14, %add341.i
  %shl343.i = shl i32 %shl337.i, %and340.i
  %shr344.i = lshr i32 %shl343.i, 15
  %add345.i = add i32 %sub342.i, %shr344.i
  %shl346.i = shl nsw i32 %add345.i, 1
  %add347.i = add i32 %add345.i, 7
  %shr348.i = lshr i32 %rsize.3.lcssa.i, %add347.i
  %and349.i = and i32 %shr348.i, 1
  %add350.i = or i32 %and349.i, %shl346.i
  br label %if.end352.i

if.end352.i:                                      ; preds = %if.else325.i, %if.else321.i, %if.else313.i
  %I315.0.i = phi i32 [ %add350.i, %if.else325.i ], [ 0, %if.else313.i ], [ 31, %if.else321.i ]
  %arrayidx354.i = getelementptr inbounds %struct.malloc_state, %struct.malloc_state* @_gm_, i32 0, i32 11, i32 %I315.0.i
  %add.ptr.sum2.i = add i32 %and144, 28
  %index355.i = getelementptr inbounds i8, i8* %88, i32 %add.ptr.sum2.i
  %128 = bitcast i8* %index355.i to i32*
  store i32 %I315.0.i, i32* %128, align 4
  %add.ptr.sum3.i = add i32 %and144, 16
  %child356.i = getelementptr inbounds i8, i8* %88, i32 %add.ptr.sum3.i
  %child356.sum.i = add i32 %and144, 20
  %arrayidx357.i = getelementptr inbounds i8, i8* %88, i32 %child356.sum.i
  %129 = bitcast i8* %arrayidx357.i to %struct.malloc_tree_chunk**
  store %struct.malloc_tree_chunk* null, %struct.malloc_tree_chunk** %129, align 4
  %arrayidx359.i = bitcast i8* %child356.i to %struct.malloc_tree_chunk**
  store %struct.malloc_tree_chunk* null, %struct.malloc_tree_chunk** %arrayidx359.i, align 4
  %130 = load i32, i32* getelementptr inbounds (%struct.malloc_state, %struct.malloc_state* @_gm_, i32 0, i32 1), align 4
  %shl361.i = shl i32 1, %I315.0.i
  %and362.i = and i32 %130, %shl361.i
  %tobool363.i = icmp eq i32 %and362.i, 0
  br i1 %tobool363.i, label %if.then364.i, label %if.else371.i

if.then364.i:                                     ; preds = %if.end352.i
  %or367.i = or i32 %130, %shl361.i
  store i32 %or367.i, i32* getelementptr inbounds (%struct.malloc_state, %struct.malloc_state* @_gm_, i32 0, i32 1), align 4
  store %struct.malloc_tree_chunk* %127, %struct.malloc_tree_chunk** %arrayidx354.i, align 4
  %131 = bitcast %struct.malloc_tree_chunk** %arrayidx354.i to %struct.malloc_tree_chunk*
  %add.ptr.sum4.i = add i32 %and144, 24
  %parent368.i = getelementptr inbounds i8, i8* %88, i32 %add.ptr.sum4.i
  %132 = bitcast i8* %parent368.i to %struct.malloc_tree_chunk**
  store %struct.malloc_tree_chunk* %131, %struct.malloc_tree_chunk** %132, align 4
  %add.ptr.sum5.i = add i32 %and144, 12
  %bk369.i = getelementptr inbounds i8, i8* %88, i32 %add.ptr.sum5.i
  %133 = bitcast i8* %bk369.i to %struct.malloc_tree_chunk**
  store %struct.malloc_tree_chunk* %127, %struct.malloc_tree_chunk** %133, align 4
  %add.ptr.sum6.i = add i32 %and144, 8
  %fd370.i = getelementptr inbounds i8, i8* %88, i32 %add.ptr.sum6.i
  %134 = bitcast i8* %fd370.i to %struct.malloc_tree_chunk**
  store %struct.malloc_tree_chunk* %127, %struct.malloc_tree_chunk** %134, align 4
  br label %tmalloc_large.exit

if.else371.i:                                     ; preds = %if.end352.i
  %135 = load %struct.malloc_tree_chunk*, %struct.malloc_tree_chunk** %arrayidx354.i, align 4
  %cmp373.i = icmp eq i32 %I315.0.i, 31
  br i1 %cmp373.i, label %cond.end381.i, label %cond.false376.i

cond.false376.i:                                  ; preds = %if.else371.i
  %shr377.i = lshr i32 %I315.0.i, 1
  %sub380.i = sub i32 25, %shr377.i
  br label %cond.end381.i

cond.end381.i:                                    ; preds = %cond.false376.i, %if.else371.i
  %cond382.i = phi i32 [ %sub380.i, %cond.false376.i ], [ 0, %if.else371.i ]
  %head38520.i = getelementptr inbounds %struct.malloc_tree_chunk, %struct.malloc_tree_chunk* %135, i32 0, i32 1
  %136 = load i32, i32* %head38520.i, align 4
  %and38621.i = and i32 %136, -8
  %cmp38722.i = icmp eq i32 %and38621.i, %rsize.3.lcssa.i
  br i1 %cmp38722.i, label %if.else410.i, label %if.then389.lr.ph.i

if.then389.lr.ph.i:                               ; preds = %cond.end381.i
  %shl383.i = shl i32 %rsize.3.lcssa.i, %cond382.i
  br label %if.then389.i

for.cond384.i:                                    ; preds = %if.then389.i
  %shl394.i = shl i32 %K372.024.i, 1
  %head385.i = getelementptr inbounds %struct.malloc_tree_chunk, %struct.malloc_tree_chunk* %138, i32 0, i32 1
  %137 = load i32, i32* %head385.i, align 4
  %and386.i = and i32 %137, -8
  %cmp387.i = icmp eq i32 %and386.i, %rsize.3.lcssa.i
  br i1 %cmp387.i, label %if.else410.i, label %if.then389.i

if.then389.i:                                     ; preds = %for.cond384.i, %if.then389.lr.ph.i
  %K372.024.i = phi i32 [ %shl383.i, %if.then389.lr.ph.i ], [ %shl394.i, %for.cond384.i ]
  %T.023.i = phi %struct.malloc_tree_chunk* [ %135, %if.then389.lr.ph.i ], [ %138, %for.cond384.i ]
  %shr390.i = lshr i32 %K372.024.i, 31
  %arrayidx393.i = getelementptr inbounds %struct.malloc_tree_chunk, %struct.malloc_tree_chunk* %T.023.i, i32 0, i32 4, i32 %shr390.i
  %138 = load %struct.malloc_tree_chunk*, %struct.malloc_tree_chunk** %arrayidx393.i, align 4
  %cmp395.i = icmp eq %struct.malloc_tree_chunk* %138, null
  br i1 %cmp395.i, label %if.else398.i, label %for.cond384.i

if.else398.i:                                     ; preds = %if.then389.i
  %139 = bitcast %struct.malloc_tree_chunk** %arrayidx393.i to i8*
  %140 = load i8*, i8** getelementptr inbounds (%struct.malloc_state, %struct.malloc_state* @_gm_, i32 0, i32 4), align 4
  %cmp400.i = icmp ult i8* %139, %140
  br i1 %cmp400.i, label %if.else408.i, label %if.then404.i

if.then404.i:                                     ; preds = %if.else398.i
  store %struct.malloc_tree_chunk* %127, %struct.malloc_tree_chunk** %arrayidx393.i, align 4
  %add.ptr.sum10.i = add i32 %and144, 24
  %parent405.i = getelementptr inbounds i8, i8* %88, i32 %add.ptr.sum10.i
  %141 = bitcast i8* %parent405.i to %struct.malloc_tree_chunk**
  store %struct.malloc_tree_chunk* %T.023.i, %struct.malloc_tree_chunk** %141, align 4
  %add.ptr.sum11.i = add i32 %and144, 12
  %bk406.i = getelementptr inbounds i8, i8* %88, i32 %add.ptr.sum11.i
  %142 = bitcast i8* %bk406.i to %struct.malloc_tree_chunk**
  store %struct.malloc_tree_chunk* %127, %struct.malloc_tree_chunk** %142, align 4
  %add.ptr.sum12.i = add i32 %and144, 8
  %fd407.i = getelementptr inbounds i8, i8* %88, i32 %add.ptr.sum12.i
  %143 = bitcast i8* %fd407.i to %struct.malloc_tree_chunk**
  store %struct.malloc_tree_chunk* %127, %struct.malloc_tree_chunk** %143, align 4
  br label %tmalloc_large.exit

if.else408.i:                                     ; preds = %if.else398.i
  tail call void @abort() #6
  unreachable

if.else410.i:                                     ; preds = %for.cond384.i, %cond.end381.i
  %T.0.lcssa.i = phi %struct.malloc_tree_chunk* [ %135, %cond.end381.i ], [ %138, %for.cond384.i ]
  %fd412.i = getelementptr inbounds %struct.malloc_tree_chunk, %struct.malloc_tree_chunk* %T.0.lcssa.i, i32 0, i32 2
  %144 = load %struct.malloc_tree_chunk*, %struct.malloc_tree_chunk** %fd412.i, align 4
  %145 = bitcast %struct.malloc_tree_chunk* %T.0.lcssa.i to i8*
  %146 = load i8*, i8** getelementptr inbounds (%struct.malloc_state, %struct.malloc_state* @_gm_, i32 0, i32 4), align 4
  %cmp414.i = icmp ult i8* %145, %146
  br i1 %cmp414.i, label %if.else430.i, label %land.rhs416.i

land.rhs416.i:                                    ; preds = %if.else410.i
  %147 = bitcast %struct.malloc_tree_chunk* %144 to i8*
  %cmp418.i = icmp ult i8* %147, %146
  br i1 %cmp418.i, label %if.else430.i, label %if.then424.i

if.then424.i:                                     ; preds = %land.rhs416.i
  %bk425.i = getelementptr inbounds %struct.malloc_tree_chunk, %struct.malloc_tree_chunk* %144, i32 0, i32 3
  store %struct.malloc_tree_chunk* %127, %struct.malloc_tree_chunk** %bk425.i, align 4
  store %struct.malloc_tree_chunk* %127, %struct.malloc_tree_chunk** %fd412.i, align 4
  %add.ptr.sum7.i = add i32 %and144, 8
  %fd427.i = getelementptr inbounds i8, i8* %88, i32 %add.ptr.sum7.i
  %148 = bitcast i8* %fd427.i to %struct.malloc_tree_chunk**
  store %struct.malloc_tree_chunk* %144, %struct.malloc_tree_chunk** %148, align 4
  %add.ptr.sum8.i = add i32 %and144, 12
  %bk428.i = getelementptr inbounds i8, i8* %88, i32 %add.ptr.sum8.i
  %149 = bitcast i8* %bk428.i to %struct.malloc_tree_chunk**
  store %struct.malloc_tree_chunk* %T.0.lcssa.i, %struct.malloc_tree_chunk** %149, align 4
  %add.ptr.sum9.i = add i32 %and144, 24
  %parent429.i = getelementptr inbounds i8, i8* %88, i32 %add.ptr.sum9.i
  %150 = bitcast i8* %parent429.i to %struct.malloc_tree_chunk**
  store %struct.malloc_tree_chunk* null, %struct.malloc_tree_chunk** %150, align 4
  br label %tmalloc_large.exit

if.else430.i:                                     ; preds = %land.rhs416.i, %if.else410.i
  tail call void @abort() #6
  unreachable

if.end438.i:                                      ; preds = %if.then121.i, %if.then119.i
  tail call void @abort() #6
  unreachable

tmalloc_large.exit:                               ; preds = %if.then424.i, %if.then404.i, %if.then364.i, %if.end308.i, %if.then266.i
  %add.ptr436.i = getelementptr inbounds %struct.malloc_tree_chunk, %struct.malloc_tree_chunk* %v.3.lcssa.i, i32 0, i32 2
  %151 = bitcast %struct.malloc_tree_chunk** %add.ptr436.i to i8*
  br label %postaction

if.end154:                                        ; preds = %land.lhs.true116.i, %while.end.i125, %if.then57.i, %if.else141, %if.else137, %if.else127, %if.else28
  %nb.0 = phi i32 [ %cond, %if.else127 ], [ %cond, %if.else28 ], [ -1, %if.else137 ], [ %and144, %if.else141 ], [ %and144, %while.end.i125 ], [ %and144, %land.lhs.true116.i ], [ %and144, %if.then57.i ]
  %152 = load i32, i32* getelementptr inbounds (%struct.malloc_state, %struct.malloc_state* @_gm_, i32 0, i32 2), align 4
  %cmp155 = icmp ugt i32 %nb.0, %152
  br i1 %cmp155, label %if.else182, label %if.then157

if.then157:                                       ; preds = %if.end154
  %sub159 = sub i32 %152, %nb.0
  %153 = load %struct.malloc_chunk*, %struct.malloc_chunk** getelementptr inbounds (%struct.malloc_state, %struct.malloc_state* @_gm_, i32 0, i32 5), align 4
  %cmp161 = icmp ugt i32 %sub159, 15
  br i1 %cmp161, label %if.then163, label %if.else173

if.then163:                                       ; preds = %if.then157
  %154 = bitcast %struct.malloc_chunk* %153 to i8*
  %add.ptr165 = getelementptr inbounds i8, i8* %154, i32 %nb.0
  %155 = bitcast i8* %add.ptr165 to %struct.malloc_chunk*
  store %struct.malloc_chunk* %155, %struct.malloc_chunk** getelementptr inbounds (%struct.malloc_state, %struct.malloc_state* @_gm_, i32 0, i32 5), align 4
  store i32 %sub159, i32* getelementptr inbounds (%struct.malloc_state, %struct.malloc_state* @_gm_, i32 0, i32 2), align 4
  %or166 = or i32 %sub159, 1
  %add.ptr165.sum = add i32 %nb.0, 4
  %head167 = getelementptr inbounds i8, i8* %154, i32 %add.ptr165.sum
  %156 = bitcast i8* %head167 to i32*
  store i32 %or166, i32* %156, align 4
  %add.ptr168 = getelementptr inbounds i8, i8* %154, i32 %152
  %prev_foot169 = bitcast i8* %add.ptr168 to i32*
  store i32 %sub159, i32* %prev_foot169, align 4
  %or171 = or i32 %nb.0, 3
  %head172 = getelementptr inbounds %struct.malloc_chunk, %struct.malloc_chunk* %153, i32 0, i32 1
  store i32 %or171, i32* %head172, align 4
  br label %if.end180

if.else173:                                       ; preds = %if.then157
  store i32 0, i32* getelementptr inbounds (%struct.malloc_state, %struct.malloc_state* @_gm_, i32 0, i32 2), align 4
  store %struct.malloc_chunk* null, %struct.malloc_chunk** getelementptr inbounds (%struct.malloc_state, %struct.malloc_state* @_gm_, i32 0, i32 5), align 4
  %or175 = or i32 %152, 3
  %head176 = getelementptr inbounds %struct.malloc_chunk, %struct.malloc_chunk* %153, i32 0, i32 1
  store i32 %or175, i32* %head176, align 4
  %157 = bitcast %struct.malloc_chunk* %153 to i8*
  %add.ptr177.sum = add i32 %152, 4
  %head178 = getelementptr inbounds i8, i8* %157, i32 %add.ptr177.sum
  %158 = bitcast i8* %head178 to i32*
  %159 = load i32, i32* %158, align 4
  %or179 = or i32 %159, 1
  store i32 %or179, i32* %158, align 4
  br label %if.end180

if.end180:                                        ; preds = %if.else173, %if.then163
  %add.ptr181 = getelementptr inbounds %struct.malloc_chunk, %struct.malloc_chunk* %153, i32 0, i32 2
  %160 = bitcast %struct.malloc_chunk** %add.ptr181 to i8*
  br label %postaction

if.else182:                                       ; preds = %if.end154
  %161 = load i32, i32* getelementptr inbounds (%struct.malloc_state, %struct.malloc_state* @_gm_, i32 0, i32 3), align 4
  %cmp183 = icmp ult i32 %nb.0, %161
  br i1 %cmp183, label %if.then185, label %if.end198

if.then185:                                       ; preds = %if.else182
  %sub187 = sub i32 %161, %nb.0
  store i32 %sub187, i32* getelementptr inbounds (%struct.malloc_state, %struct.malloc_state* @_gm_, i32 0, i32 3), align 4
  %162 = load %struct.malloc_chunk*, %struct.malloc_chunk** getelementptr inbounds (%struct.malloc_state, %struct.malloc_state* @_gm_, i32 0, i32 6), align 4
  %163 = bitcast %struct.malloc_chunk* %162 to i8*
  %add.ptr190 = getelementptr inbounds i8, i8* %163, i32 %nb.0
  %164 = bitcast i8* %add.ptr190 to %struct.malloc_chunk*
  store %struct.malloc_chunk* %164, %struct.malloc_chunk** getelementptr inbounds (%struct.malloc_state, %struct.malloc_state* @_gm_, i32 0, i32 6), align 4
  %or191 = or i32 %sub187, 1
  %add.ptr190.sum = add i32 %nb.0, 4
  %head192 = getelementptr inbounds i8, i8* %163, i32 %add.ptr190.sum
  %165 = bitcast i8* %head192 to i32*
  store i32 %or191, i32* %165, align 4
  %or194 = or i32 %nb.0, 3
  %head195 = getelementptr inbounds %struct.malloc_chunk, %struct.malloc_chunk* %162, i32 0, i32 1
  store i32 %or194, i32* %head195, align 4
  %add.ptr196 = getelementptr inbounds %struct.malloc_chunk, %struct.malloc_chunk* %162, i32 0, i32 2
  %166 = bitcast %struct.malloc_chunk** %add.ptr196 to i8*
  br label %postaction

if.end198:                                        ; preds = %if.else182
  %167 = load i32, i32* getelementptr inbounds (%struct.malloc_params, %struct.malloc_params* @mparams, i32 0, i32 0), align 4
  %cmp.i146 = icmp eq i32 %167, 0
  br i1 %cmp.i146, label %if.then.i.i, label %if.end8.i

if.then.i.i:                                      ; preds = %if.end198
  %call.i.i = tail call i32 @sysconf(i32 30) #1
  %sub.i.i = add i32 %call.i.i, -1
  %and.i.i = and i32 %sub.i.i, %call.i.i
  %cmp1.i.i = icmp eq i32 %and.i.i, 0
  br i1 %cmp1.i.i, label %init_mparams.exit.i, label %if.then5.i.i

if.then5.i.i:                                     ; preds = %if.then.i.i
  tail call void @abort() #6
  unreachable

init_mparams.exit.i:                              ; preds = %if.then.i.i
  store i32 %call.i.i, i32* getelementptr inbounds (%struct.malloc_params, %struct.malloc_params* @mparams, i32 0, i32 2), align 4
  store i32 %call.i.i, i32* getelementptr inbounds (%struct.malloc_params, %struct.malloc_params* @mparams, i32 0, i32 1), align 4
  store i32 -1, i32* getelementptr inbounds (%struct.malloc_params, %struct.malloc_params* @mparams, i32 0, i32 3), align 4
  store i32 -1, i32* getelementptr inbounds (%struct.malloc_params, %struct.malloc_params* @mparams, i32 0, i32 4), align 4
  store i32 0, i32* getelementptr inbounds (%struct.malloc_params, %struct.malloc_params* @mparams, i32 0, i32 5), align 4
  store i32 0, i32* getelementptr inbounds (%struct.malloc_state, %struct.malloc_state* @_gm_, i32 0, i32 15), align 4
  %call6.i.i = tail call i32 @time(i32* null) #1
  %xor.i.i = and i32 %call6.i.i, -16
  %and7.i.i = xor i32 %xor.i.i, 1431655768
  store volatile i32 %and7.i.i, i32* getelementptr inbounds (%struct.malloc_params, %struct.malloc_params* @mparams, i32 0, i32 0), align 4
  br label %if.end8.i

if.end8.i:                                        ; preds = %init_mparams.exit.i, %if.end198
  %add.i147 = add i32 %nb.0, 48
  %168 = load i32, i32* getelementptr inbounds (%struct.malloc_params, %struct.malloc_params* @mparams, i32 0, i32 2), align 4
  %sub.i148 = add i32 %nb.0, 47
  %add9.i = add i32 %168, %sub.i148
  %neg.i149 = sub i32 0, %168
  %and11.i = and i32 %add9.i, %neg.i149
  %cmp12.i = icmp ugt i32 %and11.i, %nb.0
  br i1 %cmp12.i, label %if.end14.i, label %postaction

if.end14.i:                                       ; preds = %if.end8.i
  %169 = load i32, i32* getelementptr inbounds (%struct.malloc_state, %struct.malloc_state* @_gm_, i32 0, i32 14), align 4
  %cmp15.i = icmp eq i32 %169, 0
  br i1 %cmp15.i, label %if.end24.i, label %if.then16.i

if.then16.i:                                      ; preds = %if.end14.i
  %170 = load i32, i32* getelementptr inbounds (%struct.malloc_state, %struct.malloc_state* @_gm_, i32 0, i32 12), align 4
  %add17.i150 = add i32 %170, %and11.i
  %cmp19.i = icmp ule i32 %add17.i150, %170
  %cmp21.i = icmp ugt i32 %add17.i150, %169
  %or.cond1.i = or i1 %cmp19.i, %cmp21.i
  br i1 %or.cond1.i, label %postaction, label %if.end24.i

if.end24.i:                                       ; preds = %if.then16.i, %if.end14.i
  %171 = load i32, i32* getelementptr inbounds (%struct.malloc_state, %struct.malloc_state* @_gm_, i32 0, i32 15), align 4
  %and26.i = and i32 %171, 4
  %tobool27.i = icmp eq i32 %and26.i, 0
  br i1 %tobool27.i, label %if.then28.i, label %if.end121.i

if.then28.i:                                      ; preds = %if.end24.i
  %172 = load %struct.malloc_chunk*, %struct.malloc_chunk** getelementptr inbounds (%struct.malloc_state, %struct.malloc_state* @_gm_, i32 0, i32 6), align 4
  %cmp29.i = icmp eq %struct.malloc_chunk* %172, null
  br i1 %cmp29.i, label %if.then33.i, label %cond.false.i151

cond.false.i151:                                  ; preds = %if.then28.i
  %173 = bitcast %struct.malloc_chunk* %172 to i8*
  br label %for.cond.i.i

for.cond.i.i:                                     ; preds = %if.end.i10.i, %cond.false.i151
  %sp.0.i.i = phi %struct.malloc_segment* [ getelementptr inbounds (%struct.malloc_state, %struct.malloc_state* @_gm_, i32 0, i32 16), %cond.false.i151 ], [ %176, %if.end.i10.i ]
  %base.i.i = getelementptr inbounds %struct.malloc_segment, %struct.malloc_segment* %sp.0.i.i, i32 0, i32 0
  %174 = load i8*, i8** %base.i.i, align 4
  %cmp.i9.i = icmp ugt i8* %174, %173
  br i1 %cmp.i9.i, label %if.end.i10.i, label %land.lhs.true.i.i

land.lhs.true.i.i:                                ; preds = %for.cond.i.i
  %size.i.i = getelementptr inbounds %struct.malloc_segment, %struct.malloc_segment* %sp.0.i.i, i32 0, i32 1
  %175 = load i32, i32* %size.i.i, align 4
  %add.ptr.i.i = getelementptr inbounds i8, i8* %174, i32 %175
  %cmp2.i.i = icmp ugt i8* %add.ptr.i.i, %173
  br i1 %cmp2.i.i, label %cond.end.i153, label %if.end.i10.i

if.end.i10.i:                                     ; preds = %land.lhs.true.i.i, %for.cond.i.i
  %next.i.i = getelementptr inbounds %struct.malloc_segment, %struct.malloc_segment* %sp.0.i.i, i32 0, i32 2
  %176 = load %struct.malloc_segment*, %struct.malloc_segment** %next.i.i, align 4
  %cmp3.i.i = icmp eq %struct.malloc_segment* %176, null
  br i1 %cmp3.i.i, label %if.then33.i, label %for.cond.i.i

cond.end.i153:                                    ; preds = %land.lhs.true.i.i
  %cmp32.i152 = icmp eq %struct.malloc_segment* %sp.0.i.i, null
  br i1 %cmp32.i152, label %if.then33.i, label %if.else.i159

if.then33.i:                                      ; preds = %cond.end.i153, %if.end.i10.i, %if.then28.i
  %call34.i = tail call i8* @sbrk(i32 0) #1
  %cmp35.i154 = icmp eq i8* %call34.i, inttoptr (i32 -1 to i8*)
  br i1 %cmp35.i154, label %if.else117.i, label %if.then36.i

if.then36.i:                                      ; preds = %if.then33.i
  %177 = ptrtoint i8* %call34.i to i32
  %178 = load i32, i32* getelementptr inbounds (%struct.malloc_params, %struct.malloc_params* @mparams, i32 0, i32 1), align 4
  %sub38.i = add i32 %178, -1
  %and39.i = and i32 %sub38.i, %177
  %cmp40.i155 = icmp eq i32 %and39.i, 0
  br i1 %cmp40.i155, label %if.end49.i, label %if.then41.i

if.then41.i:                                      ; preds = %if.then36.i
  %add43.i = add i32 %sub38.i, %177
  %neg45.i = sub i32 0, %178
  %and46.i = and i32 %add43.i, %neg45.i
  %sub47.i = sub i32 %and11.i, %177
  %add48.i = add i32 %sub47.i, %and46.i
  br label %if.end49.i

if.end49.i:                                       ; preds = %if.then41.i, %if.then36.i
  %ssize.0.i = phi i32 [ %and11.i, %if.then36.i ], [ %add48.i, %if.then41.i ]
  %179 = load i32, i32* getelementptr inbounds (%struct.malloc_state, %struct.malloc_state* @_gm_, i32 0, i32 12), align 4
  %add51.i = add i32 %179, %ssize.0.i
  %cmp52.i = icmp ugt i32 %ssize.0.i, %nb.0
  %cmp54.i156 = icmp ult i32 %ssize.0.i, 2147483647
  %or.cond.i157 = and i1 %cmp52.i, %cmp54.i156
  br i1 %or.cond.i157, label %land.lhs.true55.i, label %if.else117.i

land.lhs.true55.i:                                ; preds = %if.end49.i
  %180 = load i32, i32* getelementptr inbounds (%struct.malloc_state, %struct.malloc_state* @_gm_, i32 0, i32 14), align 4
  %cmp57.i = icmp eq i32 %180, 0
  br i1 %cmp57.i, label %land.lhs.true64.i, label %lor.lhs.false58.i

lor.lhs.false58.i:                                ; preds = %land.lhs.true55.i
  %cmp60.i = icmp ule i32 %add51.i, %179
  %cmp63.i = icmp ugt i32 %add51.i, %180
  %or.cond2.i = or i1 %cmp60.i, %cmp63.i
  br i1 %or.cond2.i, label %if.else117.i, label %land.lhs.true64.i

land.lhs.true64.i:                                ; preds = %lor.lhs.false58.i, %land.lhs.true55.i
  %call65.i = tail call i8* @sbrk(i32 %ssize.0.i) #1
  %cmp66.i158 = icmp eq i8* %call65.i, %call34.i
  %ssize.0..i = select i1 %cmp66.i158, i32 %ssize.0.i, i32 0
  %call34..i = select i1 %cmp66.i158, i8* %call34.i, i8* inttoptr (i32 -1 to i8*)
  br label %if.end85.i

if.else.i159:                                     ; preds = %cond.end.i153
  %181 = load i32, i32* getelementptr inbounds (%struct.malloc_state, %struct.malloc_state* @_gm_, i32 0, i32 3), align 4
  %add74.i = sub i32 %add9.i, %181
  %and77.i = and i32 %add74.i, %neg.i149
  %cmp78.i = icmp ult i32 %and77.i, 2147483647
  br i1 %cmp78.i, label %land.lhs.true79.i, label %if.else117.i

land.lhs.true79.i:                                ; preds = %if.else.i159
  %call80.i = tail call i8* @sbrk(i32 %and77.i) #1
  %182 = load i8*, i8** %base.i.i, align 4
  %183 = load i32, i32* %size.i.i, align 4
  %add.ptr.i160 = getelementptr inbounds i8, i8* %182, i32 %183
  %cmp82.i = icmp eq i8* %call80.i, %add.ptr.i160
  %and77..i = select i1 %cmp82.i, i32 %and77.i, i32 0
  %call80..i = select i1 %cmp82.i, i8* %call80.i, i8* inttoptr (i32 -1 to i8*)
  br label %if.end85.i

if.end85.i:                                       ; preds = %land.lhs.true79.i, %land.lhs.true64.i
  %ssize.1.i = phi i32 [ %ssize.0.i, %land.lhs.true64.i ], [ %and77.i, %land.lhs.true79.i ]
  %br.0.i = phi i8* [ %call65.i, %land.lhs.true64.i ], [ %call80.i, %land.lhs.true79.i ]
  %tsize.0.i = phi i32 [ %ssize.0..i, %land.lhs.true64.i ], [ %and77..i, %land.lhs.true79.i ]
  %tbase.0.i = phi i8* [ %call34..i, %land.lhs.true64.i ], [ %call80..i, %land.lhs.true79.i ]
  %sub109.i = sub i32 0, %ssize.1.i
  %cmp86.i = icmp eq i8* %tbase.0.i, inttoptr (i32 -1 to i8*)
  br i1 %cmp86.i, label %if.then87.i, label %if.then145.i

if.then87.i:                                      ; preds = %if.end85.i
  %cmp88.i = icmp ne i8* %br.0.i, inttoptr (i32 -1 to i8*)
  %cmp90.i161 = icmp ult i32 %ssize.1.i, 2147483647
  %or.cond3.i = and i1 %cmp88.i, %cmp90.i161
  %cmp93.i = icmp ult i32 %ssize.1.i, %add.i147
  %or.cond4.i = and i1 %or.cond3.i, %cmp93.i
  br i1 %or.cond4.i, label %if.then94.i, label %if.end114.i

if.then94.i:                                      ; preds = %if.then87.i
  %184 = load i32, i32* getelementptr inbounds (%struct.malloc_params, %struct.malloc_params* @mparams, i32 0, i32 2), align 4
  %sub96.i = sub i32 %sub.i148, %ssize.1.i
  %add98.i = add i32 %sub96.i, %184
  %neg100.i = sub i32 0, %184
  %and101.i = and i32 %add98.i, %neg100.i
  %cmp102.i = icmp ult i32 %and101.i, 2147483647
  br i1 %cmp102.i, label %if.then103.i, label %if.end114.i

if.then103.i:                                     ; preds = %if.then94.i
  %call104.i = tail call i8* @sbrk(i32 %and101.i) #1
  %cmp105.i = icmp eq i8* %call104.i, inttoptr (i32 -1 to i8*)
  br i1 %cmp105.i, label %if.else108.i, label %if.then106.i

if.then106.i:                                     ; preds = %if.then103.i
  %add107.i = add i32 %and101.i, %ssize.1.i
  br label %if.end114.i

if.else108.i:                                     ; preds = %if.then103.i
  %call110.i = tail call i8* @sbrk(i32 %sub109.i) #1
  br label %if.else117.i

if.end114.i:                                      ; preds = %if.then106.i, %if.then94.i, %if.then87.i
  %ssize.2.i = phi i32 [ %add107.i, %if.then106.i ], [ %ssize.1.i, %if.then94.i ], [ %ssize.1.i, %if.then87.i ]
  %cmp115.i162 = icmp eq i8* %br.0.i, inttoptr (i32 -1 to i8*)
  br i1 %cmp115.i162, label %if.else117.i, label %if.then145.i

if.else117.i:                                     ; preds = %if.end114.i, %if.else108.i, %if.else.i159, %lor.lhs.false58.i, %if.end49.i, %if.then33.i
  %tsize.0748284.i = phi i32 [ %tsize.0.i, %if.else108.i ], [ 0, %if.else.i159 ], [ 0, %if.then33.i ], [ 0, %if.end49.i ], [ 0, %lor.lhs.false58.i ], [ %tsize.0.i, %if.end114.i ]
  %185 = load i32, i32* getelementptr inbounds (%struct.malloc_state, %struct.malloc_state* @_gm_, i32 0, i32 15), align 4
  %or.i163 = or i32 %185, 4
  store i32 %or.i163, i32* getelementptr inbounds (%struct.malloc_state, %struct.malloc_state* @_gm_, i32 0, i32 15), align 4
  br label %if.end121.i

if.end121.i:                                      ; preds = %if.else117.i, %if.end24.i
  %tsize.1.i = phi i32 [ 0, %if.end24.i ], [ %tsize.0748284.i, %if.else117.i ]
  %cmp124.i = icmp ult i32 %and11.i, 2147483647
  br i1 %cmp124.i, label %if.then125.i, label %if.end264.i

if.then125.i:                                     ; preds = %if.end121.i
  %call128.i = tail call i8* @sbrk(i32 %and11.i) #1
  %call129.i = tail call i8* @sbrk(i32 0) #1
  %notlhs.i = icmp ne i8* %call128.i, inttoptr (i32 -1 to i8*)
  %notrhs.i = icmp ne i8* %call129.i, inttoptr (i32 -1 to i8*)
  %or.cond6.not.i = and i1 %notrhs.i, %notlhs.i
  %cmp134.i = icmp ult i8* %call128.i, %call129.i
  %or.cond7.i = and i1 %or.cond6.not.i, %cmp134.i
  br i1 %or.cond7.i, label %if.end143.i, label %if.end264.i

if.end143.i:                                      ; preds = %if.then125.i
  %sub.ptr.lhs.cast.i = ptrtoint i8* %call129.i to i32
  %sub.ptr.rhs.cast.i = ptrtoint i8* %call128.i to i32
  %sub.ptr.sub.i = sub i32 %sub.ptr.lhs.cast.i, %sub.ptr.rhs.cast.i
  %add137.i = add i32 %nb.0, 40
  %cmp138.i164 = icmp ugt i32 %sub.ptr.sub.i, %add137.i
  %sub.ptr.sub.tsize.1.i = select i1 %cmp138.i164, i32 %sub.ptr.sub.i, i32 %tsize.1.i
  br i1 %cmp138.i164, label %if.then145.i, label %if.end264.i

if.then145.i:                                     ; preds = %if.end143.i, %if.end114.i, %if.end85.i
  %tbase.291.i = phi i8* [ %tbase.0.i, %if.end85.i ], [ %br.0.i, %if.end114.i ], [ %call128.i, %if.end143.i ]
  %tsize.290.i = phi i32 [ %tsize.0.i, %if.end85.i ], [ %ssize.2.i, %if.end114.i ], [ %sub.ptr.sub.tsize.1.i, %if.end143.i ]
  %186 = load i32, i32* getelementptr inbounds (%struct.malloc_state, %struct.malloc_state* @_gm_, i32 0, i32 12), align 4
  %add147.i = add i32 %186, %tsize.290.i
  store i32 %add147.i, i32* getelementptr inbounds (%struct.malloc_state, %struct.malloc_state* @_gm_, i32 0, i32 12), align 4
  %187 = load i32, i32* getelementptr inbounds (%struct.malloc_state, %struct.malloc_state* @_gm_, i32 0, i32 13), align 4
  %cmp148.i = icmp ugt i32 %add147.i, %187
  br i1 %cmp148.i, label %if.then149.i, label %if.end152.i165

if.then149.i:                                     ; preds = %if.then145.i
  store i32 %add147.i, i32* getelementptr inbounds (%struct.malloc_state, %struct.malloc_state* @_gm_, i32 0, i32 13), align 4
  br label %if.end152.i165

if.end152.i165:                                   ; preds = %if.then149.i, %if.then145.i
  %188 = load %struct.malloc_chunk*, %struct.malloc_chunk** getelementptr inbounds (%struct.malloc_state, %struct.malloc_state* @_gm_, i32 0, i32 6), align 4
  %cmp154.i = icmp eq %struct.malloc_chunk* %188, null
  br i1 %cmp154.i, label %if.then155.i, label %land.rhs.i167

if.then155.i:                                     ; preds = %if.end152.i165
  %189 = load i8*, i8** getelementptr inbounds (%struct.malloc_state, %struct.malloc_state* @_gm_, i32 0, i32 4), align 4
  %cmp156.i = icmp eq i8* %189, null
  %cmp159.i166 = icmp ult i8* %tbase.291.i, %189
  %or.cond8.i = or i1 %cmp156.i, %cmp159.i166
  br i1 %or.cond8.i, label %if.then160.i, label %if.end162.i

if.then160.i:                                     ; preds = %if.then155.i
  store i8* %tbase.291.i, i8** getelementptr inbounds (%struct.malloc_state, %struct.malloc_state* @_gm_, i32 0, i32 4), align 4
  br label %if.end162.i

if.end162.i:                                      ; preds = %if.then160.i, %if.then155.i
  store i8* %tbase.291.i, i8** getelementptr inbounds (%struct.malloc_state, %struct.malloc_state* @_gm_, i32 0, i32 16, i32 0), align 4
  store i32 %tsize.290.i, i32* getelementptr inbounds (%struct.malloc_state, %struct.malloc_state* @_gm_, i32 0, i32 16, i32 1), align 4
  store i32 0, i32* getelementptr inbounds (%struct.malloc_state, %struct.malloc_state* @_gm_, i32 0, i32 16, i32 3), align 4
  %190 = load i32, i32* getelementptr inbounds (%struct.malloc_params, %struct.malloc_params* @mparams, i32 0, i32 0), align 4
  store i32 %190, i32* getelementptr inbounds (%struct.malloc_state, %struct.malloc_state* @_gm_, i32 0, i32 9), align 4
  store i32 -1, i32* getelementptr inbounds (%struct.malloc_state, %struct.malloc_state* @_gm_, i32 0, i32 8), align 4
  br label %for.body.i.i

for.body.i.i:                                     ; preds = %for.body.i.i, %if.end162.i
  %i.02.i.i = phi i32 [ 0, %if.end162.i ], [ %inc.i.i, %for.body.i.i ]
  %shl.i.i = shl i32 %i.02.i.i, 1
  %arrayidx.i.i = getelementptr inbounds %struct.malloc_state, %struct.malloc_state* @_gm_, i32 0, i32 10, i32 %shl.i.i
  %191 = bitcast %struct.malloc_chunk** %arrayidx.i.i to %struct.malloc_chunk*
  %arrayidx.sum.i.i = add i32 %shl.i.i, 3
  %192 = getelementptr inbounds %struct.malloc_state, %struct.malloc_state* @_gm_, i32 0, i32 10, i32 %arrayidx.sum.i.i
  store %struct.malloc_chunk* %191, %struct.malloc_chunk** %192, align 4
  %arrayidx.sum1.i.i = add i32 %shl.i.i, 2
  %193 = getelementptr inbounds %struct.malloc_state, %struct.malloc_state* @_gm_, i32 0, i32 10, i32 %arrayidx.sum1.i.i
  store %struct.malloc_chunk* %191, %struct.malloc_chunk** %193, align 4
  %inc.i.i = add i32 %i.02.i.i, 1
  %exitcond.i.i = icmp eq i32 %inc.i.i, 32
  br i1 %exitcond.i.i, label %init_bins.exit.i, label %for.body.i.i

init_bins.exit.i:                                 ; preds = %for.body.i.i
  %sub169.i = add i32 %tsize.290.i, -40
  %add.ptr.i11.i = getelementptr inbounds i8, i8* %tbase.291.i, i32 8
  %194 = ptrtoint i8* %add.ptr.i11.i to i32
  %and.i12.i = and i32 %194, 7
  %cmp.i13.i = icmp eq i32 %and.i12.i, 0
  br i1 %cmp.i13.i, label %init_top.exit.i, label %cond.false.i.i

cond.false.i.i:                                   ; preds = %init_bins.exit.i
  %195 = sub i32 0, %194
  %and3.i.i = and i32 %195, 7
  br label %init_top.exit.i

init_top.exit.i:                                  ; preds = %cond.false.i.i, %init_bins.exit.i
  %cond.i.i = phi i32 [ %and3.i.i, %cond.false.i.i ], [ 0, %init_bins.exit.i ]
  %add.ptr4.i.i = getelementptr inbounds i8, i8* %tbase.291.i, i32 %cond.i.i
  %196 = bitcast i8* %add.ptr4.i.i to %struct.malloc_chunk*
  %sub5.i.i = sub i32 %sub169.i, %cond.i.i
  store %struct.malloc_chunk* %196, %struct.malloc_chunk** getelementptr inbounds (%struct.malloc_state, %struct.malloc_state* @_gm_, i32 0, i32 6), align 4
  store i32 %sub5.i.i, i32* getelementptr inbounds (%struct.malloc_state, %struct.malloc_state* @_gm_, i32 0, i32 3), align 4
  %or.i.i = or i32 %sub5.i.i, 1
  %add.ptr4.sum.i.i = add i32 %cond.i.i, 4
  %head.i.i = getelementptr inbounds i8, i8* %tbase.291.i, i32 %add.ptr4.sum.i.i
  %197 = bitcast i8* %head.i.i to i32*
  store i32 %or.i.i, i32* %197, align 4
  %add.ptr6.sum.i.i = add i32 %tsize.290.i, -36
  %head7.i.i = getelementptr inbounds i8, i8* %tbase.291.i, i32 %add.ptr6.sum.i.i
  %198 = bitcast i8* %head7.i.i to i32*
  store i32 40, i32* %198, align 4
  %199 = load i32, i32* getelementptr inbounds (%struct.malloc_params, %struct.malloc_params* @mparams, i32 0, i32 4), align 4
  store i32 %199, i32* getelementptr inbounds (%struct.malloc_state, %struct.malloc_state* @_gm_, i32 0, i32 7), align 4
  br label %if.end248.i

land.rhs.i167:                                    ; preds = %while.body.i168, %if.end152.i165
  %sp.0109.i = phi %struct.malloc_segment* [ %202, %while.body.i168 ], [ getelementptr inbounds (%struct.malloc_state, %struct.malloc_state* @_gm_, i32 0, i32 16), %if.end152.i165 ]
  %base184.i = getelementptr inbounds %struct.malloc_segment, %struct.malloc_segment* %sp.0109.i, i32 0, i32 0
  %200 = load i8*, i8** %base184.i, align 4
  %size185.i = getelementptr inbounds %struct.malloc_segment, %struct.malloc_segment* %sp.0109.i, i32 0, i32 1
  %201 = load i32, i32* %size185.i, align 4
  %add.ptr186.i = getelementptr inbounds i8, i8* %200, i32 %201
  %cmp187.i = icmp eq i8* %tbase.291.i, %add.ptr186.i
  br i1 %cmp187.i, label %land.lhs.true189.i, label %while.body.i168

while.body.i168:                                  ; preds = %land.rhs.i167
  %next.i = getelementptr inbounds %struct.malloc_segment, %struct.malloc_segment* %sp.0109.i, i32 0, i32 2
  %202 = load %struct.malloc_segment*, %struct.malloc_segment** %next.i, align 4
  %cmp183.i = icmp eq %struct.malloc_segment* %202, null
  br i1 %cmp183.i, label %if.else213.i169, label %land.rhs.i167

land.lhs.true189.i:                               ; preds = %land.rhs.i167
  %sflags190.i = getelementptr inbounds %struct.malloc_segment, %struct.malloc_segment* %sp.0109.i, i32 0, i32 3
  %203 = load i32, i32* %sflags190.i, align 4
  %and191.i = and i32 %203, 8
  %tobool192.i = icmp eq i32 %and191.i, 0
  br i1 %tobool192.i, label %land.lhs.true197.i, label %if.else213.i169

land.lhs.true197.i:                               ; preds = %land.lhs.true189.i
  %204 = bitcast %struct.malloc_chunk* %188 to i8*
  %cmp200.i = icmp uge i8* %204, %200
  %cmp206.i = icmp ult i8* %204, %tbase.291.i
  %or.cond93.i = and i1 %cmp200.i, %cmp206.i
  br i1 %or.cond93.i, label %if.then207.i, label %if.else213.i169

if.then207.i:                                     ; preds = %land.lhs.true197.i
  %add209.i = add i32 %201, %tsize.290.i
  store i32 %add209.i, i32* %size185.i, align 4
  %205 = load i32, i32* getelementptr inbounds (%struct.malloc_state, %struct.malloc_state* @_gm_, i32 0, i32 3), align 4
  %add212.i = add i32 %205, %tsize.290.i
  %add.ptr.i22.i = getelementptr inbounds %struct.malloc_chunk, %struct.malloc_chunk* %188, i32 0, i32 2
  %206 = ptrtoint %struct.malloc_chunk** %add.ptr.i22.i to i32
  %and.i23.i = and i32 %206, 7
  %cmp.i24.i = icmp eq i32 %and.i23.i, 0
  br i1 %cmp.i24.i, label %init_top.exit36.i, label %cond.false.i26.i

cond.false.i26.i:                                 ; preds = %if.then207.i
  %207 = sub i32 0, %206
  %and3.i25.i = and i32 %207, 7
  br label %init_top.exit36.i

init_top.exit36.i:                                ; preds = %cond.false.i26.i, %if.then207.i
  %cond.i27.i = phi i32 [ %and3.i25.i, %cond.false.i26.i ], [ 0, %if.then207.i ]
  %add.ptr4.i28.i = getelementptr inbounds i8, i8* %204, i32 %cond.i27.i
  %208 = bitcast i8* %add.ptr4.i28.i to %struct.malloc_chunk*
  %sub5.i29.i = sub i32 %add212.i, %cond.i27.i
  store %struct.malloc_chunk* %208, %struct.malloc_chunk** getelementptr inbounds (%struct.malloc_state, %struct.malloc_state* @_gm_, i32 0, i32 6), align 4
  store i32 %sub5.i29.i, i32* getelementptr inbounds (%struct.malloc_state, %struct.malloc_state* @_gm_, i32 0, i32 3), align 4
  %or.i30.i = or i32 %sub5.i29.i, 1
  %add.ptr4.sum.i31.i = add i32 %cond.i27.i, 4
  %head.i32.i = getelementptr inbounds i8, i8* %204, i32 %add.ptr4.sum.i31.i
  %209 = bitcast i8* %head.i32.i to i32*
  store i32 %or.i30.i, i32* %209, align 4
  %add.ptr6.sum.i33.i = add i32 %add212.i, 4
  %head7.i34.i = getelementptr inbounds i8, i8* %204, i32 %add.ptr6.sum.i33.i
  %210 = bitcast i8* %head7.i34.i to i32*
  store i32 40, i32* %210, align 4
  %211 = load i32, i32* getelementptr inbounds (%struct.malloc_params, %struct.malloc_params* @mparams, i32 0, i32 4), align 4
  store i32 %211, i32* getelementptr inbounds (%struct.malloc_state, %struct.malloc_state* @_gm_, i32 0, i32 7), align 4
  br label %if.end248.i

if.else213.i169:                                  ; preds = %land.lhs.true197.i, %land.lhs.true189.i, %while.body.i168
  %212 = load i8*, i8** getelementptr inbounds (%struct.malloc_state, %struct.malloc_state* @_gm_, i32 0, i32 4), align 4
  %cmp215.i = icmp ult i8* %tbase.291.i, %212
  br i1 %cmp215.i, label %if.then216.i, label %while.cond220.preheader.i

if.then216.i:                                     ; preds = %if.else213.i169
  store i8* %tbase.291.i, i8** getelementptr inbounds (%struct.malloc_state, %struct.malloc_state* @_gm_, i32 0, i32 4), align 4
  br label %while.cond220.preheader.i

while.cond220.preheader.i:                        ; preds = %if.then216.i, %if.else213.i169
  %add.ptr224.i = getelementptr inbounds i8, i8* %tbase.291.i, i32 %tsize.290.i
  br label %land.rhs222.i

land.rhs222.i:                                    ; preds = %while.body227.i, %while.cond220.preheader.i
  %sp.1105.i = phi %struct.malloc_segment* [ getelementptr inbounds (%struct.malloc_state, %struct.malloc_state* @_gm_, i32 0, i32 16), %while.cond220.preheader.i ], [ %214, %while.body227.i ]
  %base223.i = getelementptr inbounds %struct.malloc_segment, %struct.malloc_segment* %sp.1105.i, i32 0, i32 0
  %213 = load i8*, i8** %base223.i, align 4
  %cmp225.i = icmp eq i8* %213, %add.ptr224.i
  br i1 %cmp225.i, label %land.lhs.true231.i, label %while.body227.i

while.body227.i:                                  ; preds = %land.rhs222.i
  %next228.i = getelementptr inbounds %struct.malloc_segment, %struct.malloc_segment* %sp.1105.i, i32 0, i32 2
  %214 = load %struct.malloc_segment*, %struct.malloc_segment** %next228.i, align 4
  %cmp221.i = icmp eq %struct.malloc_segment* %214, null
  br i1 %cmp221.i, label %if.else245.i, label %land.rhs222.i

land.lhs.true231.i:                               ; preds = %land.rhs222.i
  %sflags232.i = getelementptr inbounds %struct.malloc_segment, %struct.malloc_segment* %sp.1105.i, i32 0, i32 3
  %215 = load i32, i32* %sflags232.i, align 4
  %and233.i = and i32 %215, 8
  %tobool234.i = icmp eq i32 %and233.i, 0
  br i1 %tobool234.i, label %if.then239.i, label %if.else245.i

if.then239.i:                                     ; preds = %land.lhs.true231.i
  store i8* %tbase.291.i, i8** %base223.i, align 4
  %size242.i = getelementptr inbounds %struct.malloc_segment, %struct.malloc_segment* %sp.1105.i, i32 0, i32 1
  %216 = load i32, i32* %size242.i, align 4
  %add243.i = add i32 %216, %tsize.290.i
  store i32 %add243.i, i32* %size242.i, align 4
  %add.ptr.i37.i = getelementptr inbounds i8, i8* %tbase.291.i, i32 8
  %217 = ptrtoint i8* %add.ptr.i37.i to i32
  %and.i38.i = and i32 %217, 7
  %cmp.i39.i = icmp eq i32 %and.i38.i, 0
  br i1 %cmp.i39.i, label %cond.end.i45.i, label %cond.false.i41.i

cond.false.i41.i:                                 ; preds = %if.then239.i
  %218 = sub i32 0, %217
  %and3.i40.i = and i32 %218, 7
  br label %cond.end.i45.i

cond.end.i45.i:                                   ; preds = %cond.false.i41.i, %if.then239.i
  %cond.i42.i = phi i32 [ %and3.i40.i, %cond.false.i41.i ], [ 0, %if.then239.i ]
  %add.ptr4.i43.i = getelementptr inbounds i8, i8* %tbase.291.i, i32 %cond.i42.i
  %add.ptr224.sum.i = add i32 %tsize.290.i, 8
  %add.ptr5.i.i = getelementptr inbounds i8, i8* %tbase.291.i, i32 %add.ptr224.sum.i
  %219 = ptrtoint i8* %add.ptr5.i.i to i32
  %and6.i44.i = and i32 %219, 7
  %cmp7.i.i = icmp eq i32 %and6.i44.i, 0
  br i1 %cmp7.i.i, label %cond.end14.i.i, label %cond.false9.i.i

cond.false9.i.i:                                  ; preds = %cond.end.i45.i
  %220 = sub i32 0, %219
  %and13.i.i = and i32 %220, 7
  br label %cond.end14.i.i

cond.end14.i.i:                                   ; preds = %cond.false9.i.i, %cond.end.i45.i
  %cond15.i.i = phi i32 [ %and13.i.i, %cond.false9.i.i ], [ 0, %cond.end.i45.i ]
  %add.ptr224.sum131.i = add i32 %cond15.i.i, %tsize.290.i
  %add.ptr16.i.i = getelementptr inbounds i8, i8* %tbase.291.i, i32 %add.ptr224.sum131.i
  %221 = bitcast i8* %add.ptr16.i.i to %struct.malloc_chunk*
  %sub.ptr.lhs.cast.i46.i = ptrtoint i8* %add.ptr16.i.i to i32
  %sub.ptr.rhs.cast.i47.i = ptrtoint i8* %add.ptr4.i43.i to i32
  %sub.ptr.sub.i48.i = sub i32 %sub.ptr.lhs.cast.i46.i, %sub.ptr.rhs.cast.i47.i
  %add.ptr4.sum.i49.i = add i32 %cond.i42.i, %nb.0
  %add.ptr17.i.i = getelementptr inbounds i8, i8* %tbase.291.i, i32 %add.ptr4.sum.i49.i
  %222 = bitcast i8* %add.ptr17.i.i to %struct.malloc_chunk*
  %sub18.i.i = sub i32 %sub.ptr.sub.i48.i, %nb.0
  %or19.i.i = or i32 %nb.0, 3
  %add.ptr4.sum1.i.i = add i32 %cond.i42.i, 4
  %head.i50.i = getelementptr inbounds i8, i8* %tbase.291.i, i32 %add.ptr4.sum1.i.i
  %223 = bitcast i8* %head.i50.i to i32*
  store i32 %or19.i.i, i32* %223, align 4
  %224 = load %struct.malloc_chunk*, %struct.malloc_chunk** getelementptr inbounds (%struct.malloc_state, %struct.malloc_state* @_gm_, i32 0, i32 6), align 4
  %cmp20.i.i = icmp eq %struct.malloc_chunk* %221, %224
  br i1 %cmp20.i.i, label %if.then.i51.i, label %if.else.i.i

if.then.i51.i:                                    ; preds = %cond.end14.i.i
  %225 = load i32, i32* getelementptr inbounds (%struct.malloc_state, %struct.malloc_state* @_gm_, i32 0, i32 3), align 4
  %add.i.i = add i32 %225, %sub18.i.i
  store i32 %add.i.i, i32* getelementptr inbounds (%struct.malloc_state, %struct.malloc_state* @_gm_, i32 0, i32 3), align 4
  store %struct.malloc_chunk* %222, %struct.malloc_chunk** getelementptr inbounds (%struct.malloc_state, %struct.malloc_state* @_gm_, i32 0, i32 6), align 4
  %or22.i.i = or i32 %add.i.i, 1
  %add.ptr17.sum35.i.i = add i32 %add.ptr4.sum.i49.i, 4
  %head23.i.i = getelementptr inbounds i8, i8* %tbase.291.i, i32 %add.ptr17.sum35.i.i
  %226 = bitcast i8* %head23.i.i to i32*
  store i32 %or22.i.i, i32* %226, align 4
  br label %prepend_alloc.exit.i

if.else.i.i:                                      ; preds = %cond.end14.i.i
  %227 = load %struct.malloc_chunk*, %struct.malloc_chunk** getelementptr inbounds (%struct.malloc_state, %struct.malloc_state* @_gm_, i32 0, i32 5), align 4
  %cmp24.i.i = icmp eq %struct.malloc_chunk* %221, %227
  br i1 %cmp24.i.i, label %if.then25.i.i, label %if.else31.i.i

if.then25.i.i:                                    ; preds = %if.else.i.i
  %228 = load i32, i32* getelementptr inbounds (%struct.malloc_state, %struct.malloc_state* @_gm_, i32 0, i32 2), align 4
  %add26.i.i = add i32 %228, %sub18.i.i
  store i32 %add26.i.i, i32* getelementptr inbounds (%struct.malloc_state, %struct.malloc_state* @_gm_, i32 0, i32 2), align 4
  store %struct.malloc_chunk* %222, %struct.malloc_chunk** getelementptr inbounds (%struct.malloc_state, %struct.malloc_state* @_gm_, i32 0, i32 5), align 4
  %or28.i.i = or i32 %add26.i.i, 1
  %add.ptr17.sum33.i.i = add i32 %add.ptr4.sum.i49.i, 4
  %head29.i.i = getelementptr inbounds i8, i8* %tbase.291.i, i32 %add.ptr17.sum33.i.i
  %229 = bitcast i8* %head29.i.i to i32*
  store i32 %or28.i.i, i32* %229, align 4
  %add.ptr17.sum34.i.i = add i32 %add26.i.i, %add.ptr4.sum.i49.i
  %add.ptr30.i52.i = getelementptr inbounds i8, i8* %tbase.291.i, i32 %add.ptr17.sum34.i.i
  %prev_foot.i53.i = bitcast i8* %add.ptr30.i52.i to i32*
  store i32 %add26.i.i, i32* %prev_foot.i53.i, align 4
  br label %prepend_alloc.exit.i

if.else31.i.i:                                    ; preds = %if.else.i.i
  %add.ptr16.sum.i.i = add i32 %tsize.290.i, 4
  %add.ptr224.sum132.i = add i32 %add.ptr16.sum.i.i, %cond15.i.i
  %head32.i.i = getelementptr inbounds i8, i8* %tbase.291.i, i32 %add.ptr224.sum132.i
  %230 = bitcast i8* %head32.i.i to i32*
  %231 = load i32, i32* %230, align 4
  %and33.i.i = and i32 %231, 3
  %cmp34.i.i = icmp eq i32 %and33.i.i, 1
  br i1 %cmp34.i.i, label %if.then35.i.i, label %if.end207.i.i

if.then35.i.i:                                    ; preds = %if.else31.i.i
  %and37.i.i = and i32 %231, -8
  %shr.i54.i = lshr i32 %231, 3
  %cmp38.i.i = icmp ult i32 %231, 256
  br i1 %cmp38.i.i, label %if.then39.i.i, label %if.else73.i.i

if.then39.i.i:                                    ; preds = %if.then35.i.i
  %add.ptr16.sum3031.i.i = or i32 %cond15.i.i, 8
  %add.ptr224.sum142.i = add i32 %add.ptr16.sum3031.i.i, %tsize.290.i
  %fd.i.i = getelementptr inbounds i8, i8* %tbase.291.i, i32 %add.ptr224.sum142.i
  %232 = bitcast i8* %fd.i.i to %struct.malloc_chunk**
  %233 = load %struct.malloc_chunk*, %struct.malloc_chunk** %232, align 4
  %add.ptr16.sum32.i.i = add i32 %tsize.290.i, 12
  %add.ptr224.sum143.i = add i32 %add.ptr16.sum32.i.i, %cond15.i.i
  %bk.i55.i = getelementptr inbounds i8, i8* %tbase.291.i, i32 %add.ptr224.sum143.i
  %234 = bitcast i8* %bk.i55.i to %struct.malloc_chunk**
  %235 = load %struct.malloc_chunk*, %struct.malloc_chunk** %234, align 4
  %shl.i56.i = shl nuw nsw i32 %shr.i54.i, 1
  %arrayidx.i57.i = getelementptr inbounds %struct.malloc_state, %struct.malloc_state* @_gm_, i32 0, i32 10, i32 %shl.i56.i
  %236 = bitcast %struct.malloc_chunk** %arrayidx.i57.i to %struct.malloc_chunk*
  %cmp41.i.i = icmp eq %struct.malloc_chunk* %233, %236
  br i1 %cmp41.i.i, label %if.then45.i.i, label %lor.rhs.i.i

lor.rhs.i.i:                                      ; preds = %if.then39.i.i
  %237 = bitcast %struct.malloc_chunk* %233 to i8*
  %238 = load i8*, i8** getelementptr inbounds (%struct.malloc_state, %struct.malloc_state* @_gm_, i32 0, i32 4), align 4
  %cmp42.i.i = icmp ult i8* %237, %238
  br i1 %cmp42.i.i, label %if.else71.i.i, label %land.rhs.i58.i

land.rhs.i58.i:                                   ; preds = %lor.rhs.i.i
  %bk43.i.i = getelementptr inbounds %struct.malloc_chunk, %struct.malloc_chunk* %233, i32 0, i32 3
  %239 = load %struct.malloc_chunk*, %struct.malloc_chunk** %bk43.i.i, align 4
  %cmp44.i.i = icmp eq %struct.malloc_chunk* %239, %221
  br i1 %cmp44.i.i, label %if.then45.i.i, label %if.else71.i.i

if.then45.i.i:                                    ; preds = %land.rhs.i58.i, %if.then39.i.i
  %cmp46.i59.i = icmp eq %struct.malloc_chunk* %235, %233
  br i1 %cmp46.i59.i, label %if.then47.i.i, label %if.else50.i60.i

if.then47.i.i:                                    ; preds = %if.then45.i.i
  %shl48.i.i = shl i32 1, %shr.i54.i
  %neg.i.i = xor i32 %shl48.i.i, -1
  %240 = load i32, i32* getelementptr inbounds (%struct.malloc_state, %struct.malloc_state* @_gm_, i32 0, i32 0), align 4
  %and49.i.i = and i32 %240, %neg.i.i
  store i32 %and49.i.i, i32* getelementptr inbounds (%struct.malloc_state, %struct.malloc_state* @_gm_, i32 0, i32 0), align 4
  br label %if.end204.i.i

if.else50.i60.i:                                  ; preds = %if.then45.i.i
  %cmp54.i.i = icmp eq %struct.malloc_chunk* %235, %236
  br i1 %cmp54.i.i, label %if.else50.if.then66_crit_edge.i.i, label %lor.rhs55.i.i

if.else50.if.then66_crit_edge.i.i:                ; preds = %if.else50.i60.i
  %fd68.pre.i.i = getelementptr inbounds %struct.malloc_chunk, %struct.malloc_chunk* %235, i32 0, i32 2
  br label %if.then66.i.i

lor.rhs55.i.i:                                    ; preds = %if.else50.i60.i
  %241 = bitcast %struct.malloc_chunk* %235 to i8*
  %242 = load i8*, i8** getelementptr inbounds (%struct.malloc_state, %struct.malloc_state* @_gm_, i32 0, i32 4), align 4
  %cmp57.i.i = icmp ult i8* %241, %242
  br i1 %cmp57.i.i, label %if.else69.i.i, label %land.rhs58.i.i

land.rhs58.i.i:                                   ; preds = %lor.rhs55.i.i
  %fd59.i.i = getelementptr inbounds %struct.malloc_chunk, %struct.malloc_chunk* %235, i32 0, i32 2
  %243 = load %struct.malloc_chunk*, %struct.malloc_chunk** %fd59.i.i, align 4
  %cmp60.i.i = icmp eq %struct.malloc_chunk* %243, %221
  br i1 %cmp60.i.i, label %if.then66.i.i, label %if.else69.i.i

if.then66.i.i:                                    ; preds = %land.rhs58.i.i, %if.else50.if.then66_crit_edge.i.i
  %fd68.pre-phi.i.i = phi %struct.malloc_chunk** [ %fd68.pre.i.i, %if.else50.if.then66_crit_edge.i.i ], [ %fd59.i.i, %land.rhs58.i.i ]
  %bk67.i.i = getelementptr inbounds %struct.malloc_chunk, %struct.malloc_chunk* %233, i32 0, i32 3
  store %struct.malloc_chunk* %235, %struct.malloc_chunk** %bk67.i.i, align 4
  store %struct.malloc_chunk* %233, %struct.malloc_chunk** %fd68.pre-phi.i.i, align 4
  br label %if.end204.i.i

if.else69.i.i:                                    ; preds = %land.rhs58.i.i, %lor.rhs55.i.i
  tail call void @abort() #6
  unreachable

if.else71.i.i:                                    ; preds = %land.rhs.i58.i, %lor.rhs.i.i
  tail call void @abort() #6
  unreachable

if.else73.i.i:                                    ; preds = %if.then35.i.i
  %244 = bitcast i8* %add.ptr16.i.i to %struct.malloc_tree_chunk*
  %add.ptr16.sum23.i.i = or i32 %cond15.i.i, 24
  %add.ptr224.sum133.i = add i32 %add.ptr16.sum23.i.i, %tsize.290.i
  %parent.i61.i = getelementptr inbounds i8, i8* %tbase.291.i, i32 %add.ptr224.sum133.i
  %245 = bitcast i8* %parent.i61.i to %struct.malloc_tree_chunk**
  %246 = load %struct.malloc_tree_chunk*, %struct.malloc_tree_chunk** %245, align 4
  %add.ptr16.sum4.i.i = add i32 %tsize.290.i, 12
  %add.ptr224.sum134.i = add i32 %add.ptr16.sum4.i.i, %cond15.i.i
  %bk74.i.i = getelementptr inbounds i8, i8* %tbase.291.i, i32 %add.ptr224.sum134.i
  %247 = bitcast i8* %bk74.i.i to %struct.malloc_tree_chunk**
  %248 = load %struct.malloc_tree_chunk*, %struct.malloc_tree_chunk** %247, align 4
  %cmp75.i.i = icmp eq %struct.malloc_tree_chunk* %248, %244
  br i1 %cmp75.i.i, label %if.else95.i.i, label %if.then76.i.i

if.then76.i.i:                                    ; preds = %if.else73.i.i
  %add.ptr16.sum2829.i.i = or i32 %cond15.i.i, 8
  %add.ptr224.sum135.i = add i32 %add.ptr16.sum2829.i.i, %tsize.290.i
  %fd78.i.i = getelementptr inbounds i8, i8* %tbase.291.i, i32 %add.ptr224.sum135.i
  %249 = bitcast i8* %fd78.i.i to %struct.malloc_tree_chunk**
  %250 = load %struct.malloc_tree_chunk*, %struct.malloc_tree_chunk** %249, align 4
  %251 = bitcast %struct.malloc_tree_chunk* %250 to i8*
  %252 = load i8*, i8** getelementptr inbounds (%struct.malloc_state, %struct.malloc_state* @_gm_, i32 0, i32 4), align 4
  %cmp81.i.i = icmp ult i8* %251, %252
  br i1 %cmp81.i.i, label %if.else93.i.i, label %land.lhs.true.i62.i

land.lhs.true.i62.i:                              ; preds = %if.then76.i.i
  %bk82.i.i = getelementptr inbounds %struct.malloc_tree_chunk, %struct.malloc_tree_chunk* %250, i32 0, i32 3
  %253 = load %struct.malloc_tree_chunk*, %struct.malloc_tree_chunk** %bk82.i.i, align 4
  %cmp83.i.i = icmp eq %struct.malloc_tree_chunk* %253, %244
  br i1 %cmp83.i.i, label %land.rhs84.i.i, label %if.else93.i.i

land.rhs84.i.i:                                   ; preds = %land.lhs.true.i62.i
  %fd85.i.i = getelementptr inbounds %struct.malloc_tree_chunk, %struct.malloc_tree_chunk* %248, i32 0, i32 2
  %254 = load %struct.malloc_tree_chunk*, %struct.malloc_tree_chunk** %fd85.i.i, align 4
  %cmp86.i.i = icmp eq %struct.malloc_tree_chunk* %254, %244
  br i1 %cmp86.i.i, label %if.then90.i.i, label %if.else93.i.i

if.then90.i.i:                                    ; preds = %land.rhs84.i.i
  store %struct.malloc_tree_chunk* %248, %struct.malloc_tree_chunk** %bk82.i.i, align 4
  store %struct.malloc_tree_chunk* %250, %struct.malloc_tree_chunk** %fd85.i.i, align 4
  br label %if.end119.i.i

if.else93.i.i:                                    ; preds = %land.rhs84.i.i, %land.lhs.true.i62.i, %if.then76.i.i
  tail call void @abort() #6
  unreachable

if.else95.i.i:                                    ; preds = %if.else73.i.i
  %add.ptr16.sum56.i.i = or i32 %cond15.i.i, 16
  %add.ptr224.sum140.i = add i32 %add.ptr16.sum.i.i, %add.ptr16.sum56.i.i
  %arrayidx96.i.i = getelementptr inbounds i8, i8* %tbase.291.i, i32 %add.ptr224.sum140.i
  %255 = bitcast i8* %arrayidx96.i.i to %struct.malloc_tree_chunk**
  %256 = load %struct.malloc_tree_chunk*, %struct.malloc_tree_chunk** %255, align 4
  %cmp97.i.i = icmp eq %struct.malloc_tree_chunk* %256, null
  br i1 %cmp97.i.i, label %lor.lhs.false.i.i, label %while.cond.i.i

lor.lhs.false.i.i:                                ; preds = %if.else95.i.i
  %add.ptr224.sum141.i = add i32 %add.ptr16.sum56.i.i, %tsize.290.i
  %child.i.i = getelementptr inbounds i8, i8* %tbase.291.i, i32 %add.ptr224.sum141.i
  %arrayidx99.i.i = bitcast i8* %child.i.i to %struct.malloc_tree_chunk**
  %257 = load %struct.malloc_tree_chunk*, %struct.malloc_tree_chunk** %arrayidx99.i.i, align 4
  %cmp100.i.i = icmp eq %struct.malloc_tree_chunk* %257, null
  br i1 %cmp100.i.i, label %if.end119.i.i, label %while.cond.i.i

while.cond.i.i:                                   ; preds = %lor.rhs105.i.i, %while.cond.i.i, %lor.lhs.false.i.i, %if.else95.i.i
  %RP.0.i.i = phi %struct.malloc_tree_chunk** [ %arrayidx99.i.i, %lor.lhs.false.i.i ], [ %255, %if.else95.i.i ], [ %arrayidx103.i.i, %while.cond.i.i ], [ %arrayidx107.i.i, %lor.rhs105.i.i ]
  %R.0.i.i = phi %struct.malloc_tree_chunk* [ %257, %lor.lhs.false.i.i ], [ %256, %if.else95.i.i ], [ %258, %while.cond.i.i ], [ %259, %lor.rhs105.i.i ]
  %arrayidx103.i.i = getelementptr inbounds %struct.malloc_tree_chunk, %struct.malloc_tree_chunk* %R.0.i.i, i32 0, i32 4, i32 1
  %258 = load %struct.malloc_tree_chunk*, %struct.malloc_tree_chunk** %arrayidx103.i.i, align 4
  %cmp104.i.i = icmp eq %struct.malloc_tree_chunk* %258, null
  br i1 %cmp104.i.i, label %lor.rhs105.i.i, label %while.cond.i.i

lor.rhs105.i.i:                                   ; preds = %while.cond.i.i
  %arrayidx107.i.i = getelementptr inbounds %struct.malloc_tree_chunk, %struct.malloc_tree_chunk* %R.0.i.i, i32 0, i32 4, i32 0
  %259 = load %struct.malloc_tree_chunk*, %struct.malloc_tree_chunk** %arrayidx107.i.i, align 4
  %cmp108.i.i = icmp eq %struct.malloc_tree_chunk* %259, null
  br i1 %cmp108.i.i, label %while.end.i.i, label %while.cond.i.i

while.end.i.i:                                    ; preds = %lor.rhs105.i.i
  %260 = bitcast %struct.malloc_tree_chunk** %RP.0.i.i to i8*
  %261 = load i8*, i8** getelementptr inbounds (%struct.malloc_state, %struct.malloc_state* @_gm_, i32 0, i32 4), align 4
  %cmp112.i.i = icmp ult i8* %260, %261
  br i1 %cmp112.i.i, label %if.else116.i.i, label %if.then115.i.i

if.then115.i.i:                                   ; preds = %while.end.i.i
  store %struct.malloc_tree_chunk* null, %struct.malloc_tree_chunk** %RP.0.i.i, align 4
  br label %if.end119.i.i

if.else116.i.i:                                   ; preds = %while.end.i.i
  tail call void @abort() #6
  unreachable

if.end119.i.i:                                    ; preds = %if.then115.i.i, %lor.lhs.false.i.i, %if.then90.i.i
  %R.1.i.i = phi %struct.malloc_tree_chunk* [ %248, %if.then90.i.i ], [ %R.0.i.i, %if.then115.i.i ], [ null, %lor.lhs.false.i.i ]
  %cmp120.i63.i = icmp eq %struct.malloc_tree_chunk* %246, null
  br i1 %cmp120.i63.i, label %if.end204.i.i, label %if.then122.i65.i

if.then122.i65.i:                                 ; preds = %if.end119.i.i
  %add.ptr16.sum25.i.i = add i32 %tsize.290.i, 28
  %add.ptr224.sum136.i = add i32 %add.ptr16.sum25.i.i, %cond15.i.i
  %index.i64.i = getelementptr inbounds i8, i8* %tbase.291.i, i32 %add.ptr224.sum136.i
  %262 = bitcast i8* %index.i64.i to i32*
  %263 = load i32, i32* %262, align 4
  %arrayidx123.i.i = getelementptr inbounds %struct.malloc_state, %struct.malloc_state* @_gm_, i32 0, i32 11, i32 %263
  %264 = load %struct.malloc_tree_chunk*, %struct.malloc_tree_chunk** %arrayidx123.i.i, align 4
  %cmp124.i.i = icmp eq %struct.malloc_tree_chunk* %244, %264
  br i1 %cmp124.i.i, label %if.then126.i.i, label %if.else135.i.i

if.then126.i.i:                                   ; preds = %if.then122.i65.i
  store %struct.malloc_tree_chunk* %R.1.i.i, %struct.malloc_tree_chunk** %arrayidx123.i.i, align 4
  %cond37.i.i = icmp eq %struct.malloc_tree_chunk* %R.1.i.i, null
  br i1 %cond37.i.i, label %if.end155.thread.i.i, label %if.then158.i.i

if.end155.thread.i.i:                             ; preds = %if.then126.i.i
  %shl131.i.i = shl i32 1, %263
  %neg132.i.i = xor i32 %shl131.i.i, -1
  %265 = load i32, i32* getelementptr inbounds (%struct.malloc_state, %struct.malloc_state* @_gm_, i32 0, i32 1), align 4
  %and133.i.i = and i32 %265, %neg132.i.i
  store i32 %and133.i.i, i32* getelementptr inbounds (%struct.malloc_state, %struct.malloc_state* @_gm_, i32 0, i32 1), align 4
  br label %if.end204.i.i

if.else135.i.i:                                   ; preds = %if.then122.i65.i
