         d _ZGVZNSt3__112_GLOBAL__N_13mutEvE1m
         d _ZGVZNSt3__112__get_sp_mutEPKvE4muts
         d _ZGVZNSt3__112__rs_defaultclEvE6__rs_g
         d _ZGVZNSt3__115future_categoryEvE3__f
         d _ZGVZNSt3__115system_categoryEvE1s
         d _ZGVZNSt3__116generic_categoryEvE1s
         d _ZGVZNSt3__119__thread_local_dataEvE3__p
         d _ZGVZNSt3__18__get_dbEvE2db
         U _ZNKSt11logic_error4whatEv
         U _ZNKSt13runtime_error4whatEv
         T _ZNKSt16nested_exception14rethrow_nestedEv
         T _ZNKSt3__110error_code7messageEv
         T _ZNKSt3__111__libcpp_db15__decrementableEPKv
         T _ZNKSt3__111__libcpp_db15__find_c_from_iEPv
         T _ZNKSt3__111__libcpp_db15__find_iteratorEPKv
         T _ZNKSt3__111__libcpp_db15__subscriptableEPKvi
         T _ZNKSt3__111__libcpp_db17__dereferenceableEPKv
         T _ZNKSt3__111__libcpp_db17__find_c_and_lockEPv
         T _ZNKSt3__111__libcpp_db22__less_than_comparableEPKvS2_
         T _ZNKSt3__111__libcpp_db6unlockEv
         T _ZNKSt3__111__libcpp_db8__find_cEPv
         T _ZNKSt3__111__libcpp_db9__addableEPKvi
         T _ZNKSt3__112__do_message7messageEi
         T _ZNKSt3__112bad_weak_ptr4whatEv
         W _ZNKSt3__112basic_stringIcNS_11char_traitsIcEENS_9allocatorIcEEE12__invariantsEv
         W _ZNKSt3__112basic_stringIcNS_11char_traitsIcEENS_9allocatorIcEEE12find_last_ofEPKcj
         W _ZNKSt3__112basic_stringIcNS_11char_traitsIcEENS_9allocatorIcEEE12find_last_ofEPKcjj
         W _ZNKSt3__112basic_stringIcNS_11char_traitsIcEENS_9allocatorIcEEE12find_last_ofERKS5_j
         W _ZNKSt3__112basic_stringIcNS_11char_traitsIcEENS_9allocatorIcEEE12find_last_ofEcj
         W _ZNKSt3__112basic_stringIcNS_11char_traitsIcEENS_9allocatorIcEEE13__get_pointerEv
         W _ZNKSt3__112basic_stringIcNS_11char_traitsIcEENS_9allocatorIcEEE13find_first_ofEPKcj
         W _ZNKSt3__112basic_stringIcNS_11char_traitsIcEENS_9allocatorIcEEE13find_first_ofEPKcjj
         W _ZNKSt3__112basic_stringIcNS_11char_traitsIcEENS_9allocatorIcEEE13find_first_ofERKS5_j
         W _ZNKSt3__112basic_stringIcNS_11char_traitsIcEENS_9allocatorIcEEE13find_first_ofEcj
         W _ZNKSt3__112basic_stringIcNS_11char_traitsIcEENS_9allocatorIcEEE13get_allocatorEv
         W _ZNKSt3__112basic_stringIcNS_11char_traitsIcEENS_9allocatorIcEEE14__get_long_capEv
         W _ZNKSt3__112basic_stringIcNS_11char_traitsIcEENS_9allocatorIcEEE15__get_long_sizeEv
         W _ZNKSt3__112basic_stringIcNS_11char_traitsIcEENS_9allocatorIcEEE16__get_short_sizeEv
         W _ZNKSt3__112basic_stringIcNS_11char_traitsIcEENS_9allocatorIcEEE16find_last_not_ofEPKcj
         W _ZNKSt3__112basic_stringIcNS_11char_traitsIcEENS_9allocatorIcEEE16find_last_not_ofEPKcjj
         W _ZNKSt3__112basic_stringIcNS_11char_traitsIcEENS_9allocatorIcEEE16find_last_not_ofERKS5_j
         W _ZNKSt3__112basic_stringIcNS_11char_traitsIcEENS_9allocatorIcEEE16find_last_not_ofEcj
         W _ZNKSt3__112basic_stringIcNS_11char_traitsIcEENS_9allocatorIcEEE17find_first_not_ofEPKcj
         W _ZNKSt3__112basic_stringIcNS_11char_traitsIcEENS_9allocatorIcEEE17find_first_not_ofEPKcjj
         W _ZNKSt3__112basic_stringIcNS_11char_traitsIcEENS_9allocatorIcEEE17find_first_not_ofERKS5_j
         W _ZNKSt3__112basic_stringIcNS_11char_traitsIcEENS_9allocatorIcEEE17find_first_not_ofEcj
         W _ZNKSt3__112basic_stringIcNS_11char_traitsIcEENS_9allocatorIcEEE18__get_long_pointerEv
         W _ZNKSt3__112basic_stringIcNS_11char_traitsIcEENS_9allocatorIcEEE19__get_short_pointerEv
         W _ZNKSt3__112basic_stringIcNS_11char_traitsIcEENS_9allocatorIcEEE2atEj
         W _ZNKSt3__112basic_stringIcNS_11char_traitsIcEENS_9allocatorIcEEE3endEv
         W _ZNKSt3__112basic_stringIcNS_11char_traitsIcEENS_9allocatorIcEEE4backEv
         W _ZNKSt3__112basic_stringIcNS_11char_traitsIcEENS_9allocatorIcEEE4cendEv
         W _ZNKSt3__112basic_stringIcNS_11char_traitsIcEENS_9allocatorIcEEE4copyEPcjj
         W _ZNKSt3__112basic_stringIcNS_11char_traitsIcEENS_9allocatorIcEEE4dataEv
         W _ZNKSt3__112basic_stringIcNS_11char_traitsIcEENS_9allocatorIcEEE4findEPKcj
         W _ZNKSt3__112basic_stringIcNS_11char_traitsIcEENS_9allocatorIcEEE4findEPKcjj
         W _ZNKSt3__112basic_stringIcNS_11char_traitsIcEENS_9allocatorIcEEE4findERKS5_j
         W _ZNKSt3__112basic_stringIcNS_11char_traitsIcEENS_9allocatorIcEEE4findEcj
         W _ZNKSt3__112basic_stringIcNS_11char_traitsIcEENS_9allocatorIcEEE4rendEv
         W _ZNKSt3__112basic_stringIcNS_11char_traitsIcEENS_9allocatorIcEEE4sizeEv
         W _ZNKSt3__112basic_stringIcNS_11char_traitsIcEENS_9allocatorIcEEE5beginEv
         W _ZNKSt3__112basic_stringIcNS_11char_traitsIcEENS_9allocatorIcEEE5c_strEv
         W _ZNKSt3__112basic_stringIcNS_11char_traitsIcEENS_9allocatorIcEEE5crendEv
         W _ZNKSt3__112basic_stringIcNS_11char_traitsIcEENS_9allocatorIcEEE5emptyEv
         W _ZNKSt3__112basic_stringIcNS_11char_traitsIcEENS_9allocatorIcEEE5frontEv
         W _ZNKSt3__112basic_stringIcNS_11char_traitsIcEENS_9allocatorIcEEE5rfindEPKcj
         W _ZNKSt3__112basic_stringIcNS_11char_traitsIcEENS_9allocatorIcEEE5rfindEPKcjj
         W _ZNKSt3__112basic_stringIcNS_11char_traitsIcEENS_9allocatorIcEEE5rfindERKS5_j
         W _ZNKSt3__112basic_stringIcNS_11char_traitsIcEENS_9allocatorIcEEE5rfindEcj
         W _ZNKSt3__112basic_stringIcNS_11char_traitsIcEENS_9allocatorIcEEE6cbeginEv
         W _ZNKSt3__112basic_stringIcNS_11char_traitsIcEENS_9allocatorIcEEE6lengthEv
         W _ZNKSt3__112basic_stringIcNS_11char_traitsIcEENS_9allocatorIcEEE6rbeginEv
         W _ZNKSt3__112basic_stringIcNS_11char_traitsIcEENS_9allocatorIcEEE6substrEjj
         W _ZNKSt3__112basic_stringIcNS_11char_traitsIcEENS_9allocatorIcEEE7__allocEv
         W _ZNKSt3__112basic_stringIcNS_11char_traitsIcEENS_9allocatorIcEEE7compareEPKc
         W _ZNKSt3__112basic_stringIcNS_11char_traitsIcEENS_9allocatorIcEEE7compareERKS5_
         W _ZNKSt3__112basic_stringIcNS_11char_traitsIcEENS_9allocatorIcEEE7compareEjjPKc
         W _ZNKSt3__112basic_stringIcNS_11char_traitsIcEENS_9allocatorIcEEE7compareEjjPKcj
         W _ZNKSt3__112basic_stringIcNS_11char_traitsIcEENS_9allocatorIcEEE7compareEjjRKS5_
         W _ZNKSt3__112basic_stringIcNS_11char_traitsIcEENS_9allocatorIcEEE7compareEjjRKS5_jj
         W _ZNKSt3__112basic_stringIcNS_11char_traitsIcEENS_9allocatorIcEEE7crbeginEv
         W _ZNKSt3__112basic_stringIcNS_11char_traitsIcEENS_9allocatorIcEEE8capacityEv
         W _ZNKSt3__112basic_stringIcNS_11char_traitsIcEENS_9allocatorIcEEE8max_sizeEv
         W _ZNKSt3__112basic_stringIcNS_11char_traitsIcEENS_9allocatorIcEEE9__is_longEv
         W _ZNKSt3__112basic_stringIcNS_11char_traitsIcEENS_9allocatorIcEEEixEj
         W _ZNKSt3__112basic_stringIwNS_11char_traitsIwEENS_9allocatorIwEEE12__invariantsEv
         W _ZNKSt3__112basic_stringIwNS_11char_traitsIwEENS_9allocatorIwEEE12find_last_ofEPKwj
         W _ZNKSt3__112basic_stringIwNS_11char_traitsIwEENS_9allocatorIwEEE12find_last_ofEPKwjj
         W _ZNKSt3__112basic_stringIwNS_11char_traitsIwEENS_9allocatorIwEEE12find_last_ofERKS5_j
         W _ZNKSt3__112basic_stringIwNS_11char_traitsIwEENS_9allocatorIwEEE12find_last_ofEwj
         W _ZNKSt3__112basic_stringIwNS_11char_traitsIwEENS_9allocatorIwEEE13__get_pointerEv
         W _ZNKSt3__112basic_stringIwNS_11char_traitsIwEENS_9allocatorIwEEE13find_first_ofEPKwj
         W _ZNKSt3__112basic_stringIwNS_11char_traitsIwEENS_9allocatorIwEEE13find_first_ofEPKwjj
         W _ZNKSt3__112basic_stringIwNS_11char_traitsIwEENS_9allocatorIwEEE13find_first_ofERKS5_j
         W _ZNKSt3__112basic_stringIwNS_11char_traitsIwEENS_9allocatorIwEEE13find_first_ofEwj
         W _ZNKSt3__112basic_stringIwNS_11char_traitsIwEENS_9allocatorIwEEE13get_allocatorEv
         W _ZNKSt3__112basic_stringIwNS_11char_traitsIwEENS_9allocatorIwEEE14__get_long_capEv
         W _ZNKSt3__112basic_stringIwNS_11char_traitsIwEENS_9allocatorIwEEE15__get_long_sizeEv
         W _ZNKSt3__112basic_stringIwNS_11char_traitsIwEENS_9allocatorIwEEE16__get_short_sizeEv
         W _ZNKSt3__112basic_stringIwNS_11char_traitsIwEENS_9allocatorIwEEE16find_last_not_ofEPKwj
         W _ZNKSt3__112basic_stringIwNS_11char_traitsIwEENS_9allocatorIwEEE16find_last_not_ofEPKwjj
         W _ZNKSt3__112basic_stringIwNS_11char_traitsIwEENS_9allocatorIwEEE16find_last_not_ofERKS5_j
         W _ZNKSt3__112basic_stringIwNS_11char_traitsIwEENS_9allocatorIwEEE16find_last_not_ofEwj
         W _ZNKSt3__112basic_stringIwNS_11char_traitsIwEENS_9allocatorIwEEE17find_first_not_ofEPKwj
         W _ZNKSt3__112basic_stringIwNS_11char_traitsIwEENS_9allocatorIwEEE17find_first_not_ofEPKwjj
         W _ZNKSt3__112basic_stringIwNS_11char_traitsIwEENS_9allocatorIwEEE17find_first_not_ofERKS5_j
         W _ZNKSt3__112basic_stringIwNS_11char_traitsIwEENS_9allocatorIwEEE17find_first_not_ofEwj
         W _ZNKSt3__112basic_stringIwNS_11char_traitsIwEENS_9allocatorIwEEE18__get_long_pointerEv
         W _ZNKSt3__112basic_stringIwNS_11char_traitsIwEENS_9allocatorIwEEE19__get_short_pointerEv
         W _ZNKSt3__112basic_stringIwNS_11char_traitsIwEENS_9allocatorIwEEE2atEj
         W _ZNKSt3__112basic_stringIwNS_11char_traitsIwEENS_9allocatorIwEEE3endEv
         W _ZNKSt3__112basic_stringIwNS_11char_traitsIwEENS_9allocatorIwEEE4backEv
         W _ZNKSt3__112basic_stringIwNS_11char_traitsIwEENS_9allocatorIwEEE4cendEv
         W _ZNKSt3__112basic_stringIwNS_11char_traitsIwEENS_9allocatorIwEEE4copyEPwjj
         W _ZNKSt3__112basic_stringIwNS_11char_traitsIwEENS_9allocatorIwEEE4dataEv
         W _ZNKSt3__112basic_stringIwNS_11char_traitsIwEENS_9allocatorIwEEE4findEPKwj
         W _ZNKSt3__112basic_stringIwNS_11char_traitsIwEENS_9allocatorIwEEE4findEPKwjj
         W _ZNKSt3__112basic_stringIwNS_11char_traitsIwEENS_9allocatorIwEEE4findERKS5_j
         W _ZNKSt3__112basic_stringIwNS_11char_traitsIwEENS_9allocatorIwEEE4findEwj
         W _ZNKSt3__112basic_stringIwNS_11char_traitsIwEENS_9allocatorIwEEE4rendEv
         W _ZNKSt3__112basic_stringIwNS_11char_traitsIwEENS_9allocatorIwEEE4sizeEv
         W _ZNKSt3__112basic_stringIwNS_11char_traitsIwEENS_9allocatorIwEEE5beginEv
         W _ZNKSt3__112basic_stringIwNS_11char_traitsIwEENS_9allocatorIwEEE5c_strEv
         W _ZNKSt3__112basic_stringIwNS_11char_traitsIwEENS_9allocatorIwEEE5crendEv
         W _ZNKSt3__112basic_stringIwNS_11char_traitsIwEENS_9allocatorIwEEE5emptyEv
         W _ZNKSt3__112basic_stringIwNS_11char_traitsIwEENS_9allocatorIwEEE5frontEv
         W _ZNKSt3__112basic_stringIwNS_11char_traitsIwEENS_9allocatorIwEEE5rfindEPKwj
         W _ZNKSt3__112basic_stringIwNS_11char_traitsIwEENS_9allocatorIwEEE5rfindEPKwjj
         W _ZNKSt3__112basic_stringIwNS_11char_traitsIwEENS_9allocatorIwEEE5rfindERKS5_j
         W _ZNKSt3__112basic_stringIwNS_11char_traitsIwEENS_9allocatorIwEEE5rfindEwj
         W _ZNKSt3__112basic_stringIwNS_11char_traitsIwEENS_9allocatorIwEEE6cbeginEv
         W _ZNKSt3__112basic_stringIwNS_11char_traitsIwEENS_9allocatorIwEEE6lengthEv
         W _ZNKSt3__112basic_stringIwNS_11char_traitsIwEENS_9allocatorIwEEE6rbeginEv
         W _ZNKSt3__112basic_stringIwNS_11char_traitsIwEENS_9allocatorIwEEE6substrEjj
         W _ZNKSt3__112basic_stringIwNS_11char_traitsIwEENS_9allocatorIwEEE7__allocEv
         W _ZNKSt3__112basic_stringIwNS_11char_traitsIwEENS_9allocatorIwEEE7compareEPKw
         W _ZNKSt3__112basic_stringIwNS_11char_traitsIwEENS_9allocatorIwEEE7compareERKS5_
         W _ZNKSt3__112basic_stringIwNS_11char_traitsIwEENS_9allocatorIwEEE7compareEjjPKw
         W _ZNKSt3__112basic_stringIwNS_11char_traitsIwEENS_9allocatorIwEEE7compareEjjPKwj
         W _ZNKSt3__112basic_stringIwNS_11char_traitsIwEENS_9allocatorIwEEE7compareEjjRKS5_
         W _ZNKSt3__112basic_stringIwNS_11char_traitsIwEENS_9allocatorIwEEE7compareEjjRKS5_jj
         W _ZNKSt3__112basic_stringIwNS_11char_traitsIwEENS_9allocatorIwEEE7crbeginEv
         W _ZNKSt3__112basic_stringIwNS_11char_traitsIwEENS_9allocatorIwEEE8capacityEv
         W _ZNKSt3__112basic_stringIwNS_11char_traitsIwEENS_9allocatorIwEEE8max_sizeEv
         W _ZNKSt3__112basic_stringIwNS_11char_traitsIwEENS_9allocatorIwEEE9__is_longEv
         W _ZNKSt3__112basic_stringIwNS_11char_traitsIwEENS_9allocatorIwEEEixEj
         T _ZNKSt3__113random_device7entropyEv
         T _ZNKSt3__114error_category10equivalentERKNS_10error_codeEi
         T _ZNKSt3__114error_category10equivalentEiRKNS_15error_conditionE
         T _ZNKSt3__114error_category23default_error_conditionEi
         T _ZNKSt3__115error_condition7messageEv
         T _ZNKSt3__119__shared_weak_count13__get_deleterERKSt9type_info
         U _ZNKSt3__120__vector_base_commonILb1EE20__throw_length_errorEv
         W _ZNKSt3__121__basic_string_commonILb1EE20__throw_length_errorEv
         W _ZNKSt3__121__basic_string_commonILb1EE20__throw_out_of_rangeEv
         T _ZNKSt3__123__future_error_category4nameEv
         T _ZNKSt3__123__future_error_category7messageEi
         T _ZNKSt3__123__match_any_but_newlineIcE6__execERNS_7__stateIcEE
         T _ZNKSt3__123__match_any_but_newlineIwE6__execERNS_7__stateIwEE
         T _ZNKSt3__123__system_error_category23default_error_conditionEi
         T _ZNKSt3__123__system_error_category4nameEv
         T _ZNKSt3__123__system_error_category7messageEi
         T _ZNKSt3__124__generic_error_category4nameEv
         T _ZNKSt3__124__generic_error_category7messageEi
         T _ZNSt11logic_errorC1EPKc
         T _ZNSt11logic_errorC1ERKNSt3__112basic_stringIcNS0_11char_traitsIcEENS0_9allocatorIcEEEE
         T _ZNSt11logic_errorC1ERKS_
         T _ZNSt11logic_errorC2EPKc
         T _ZNSt11logic_errorC2ERKNSt3__112basic_stringIcNS0_11char_traitsIcEENS0_9allocatorIcEEEE
         T _ZNSt11logic_errorC2ERKS_
         U _ZNSt11logic_errorD2Ev
         T _ZNSt11logic_erroraSERKS_
         U _ZNSt12length_errorD1Ev
         U _ZNSt12out_of_rangeD1Ev
         T _ZNSt13exception_ptrC1ERKS_
         T _ZNSt13exception_ptrC2ERKS_
         T _ZNSt13exception_ptrD1Ev
         T _ZNSt13exception_ptrD2Ev
         T _ZNSt13exception_ptraSERKS_
         T _ZNSt13runtime_errorC1EPKc
         T _ZNSt13runtime_errorC1ERKNSt3__112basic_stringIcNS0_11char_traitsIcEENS0_9allocatorIcEEEE
         T _ZNSt13runtime_errorC1ERKS_
         T _ZNSt13runtime_errorC2EPKc
         T _ZNSt13runtime_errorC2ERKNSt3__112basic_stringIcNS0_11char_traitsIcEENS0_9allocatorIcEEEE
         T _ZNSt13runtime_errorC2ERKS_
         U _ZNSt13runtime_errorD2Ev
         T _ZNSt13runtime_erroraSERKS_
         U _ZNSt14overflow_errorD1Ev
         U _ZNSt16invalid_argumentD1Ev
         T _ZNSt16nested_exceptionC1Ev
         T _ZNSt16nested_exceptionC2Ev
         T _ZNSt16nested_exceptionD0Ev
         T _ZNSt16nested_exceptionD1Ev
         T _ZNSt16nested_exceptionD2Ev
         D _ZNSt3__110adopt_lockE
         D _ZNSt3__110defer_lockE
         T _ZNSt3__110to_wstringEd
         T _ZNSt3__110to_wstringEe
         T _ZNSt3__110to_wstringEf
         T _ZNSt3__110to_wstringEi
         T _ZNSt3__110to_wstringEj
         T _ZNSt3__110to_wstringEl
         T _ZNSt3__110to_wstringEm
         T _ZNSt3__110to_wstringEx
         T _ZNSt3__110to_wstringEy
         T _ZNSt3__111__call_onceERVmPvPFvS2_E
         T _ZNSt3__111__libcpp_db10__insert_cEPv
         T _ZNSt3__111__libcpp_db10__insert_iEPv
         T _ZNSt3__111__libcpp_db11__insert_icEPvPKv
         T _ZNSt3__111__libcpp_db15__iterator_copyEPvPKv
         T _ZNSt3__111__libcpp_db16__invalidate_allEPv
         T _ZNSt3__111__libcpp_db17__insert_iteratorEPv
         T _ZNSt3__111__libcpp_db4swapEPvS1_
         T _ZNSt3__111__libcpp_db9__erase_cEPv
         T _ZNSt3__111__libcpp_db9__erase_iEPv
         T _ZNSt3__111__libcpp_dbC1Ev
         T _ZNSt3__111__libcpp_dbC2Ev
         T _ZNSt3__111__libcpp_dbD1Ev
         T _ZNSt3__111__libcpp_dbD2Ev
         W _ZNSt3__111char_traitsIcE4findEPKcjRS2_
         T _ZNSt3__111regex_errorC1ENS_15regex_constants10error_typeE
         T _ZNSt3__111regex_errorC2ENS_15regex_constants10error_typeE
         T _ZNSt3__111regex_errorD0Ev
         T _ZNSt3__111regex_errorD1Ev
         T _ZNSt3__111regex_errorD2Ev
         T _ZNSt3__111this_thread9sleep_forERKNS_6chrono8durationIxNS_5ratioILx1ELx1000000000EEEEE
         T _ZNSt3__111timed_mutex4lockEv
         T _ZNSt3__111timed_mutex6unlockEv
         T _ZNSt3__111timed_mutex8try_lockEv
         T _ZNSt3__111timed_mutexC1Ev
         T _ZNSt3__111timed_mutexC2Ev
         T _ZNSt3__111timed_mutexD1Ev
         T _ZNSt3__111timed_mutexD2Ev
         D _ZNSt3__111try_to_lockE
         W _ZNSt3__111unique_lockINS_5mutexEE6unlockEv
         t _ZNSt3__112_GLOBAL__N_117as_integer_helperIlNS_12basic_stringIcNS_11char_traitsIcEENS_9allocatorIcEEEEPFlPKcPPciEEET_RKS7_RKT0_PjiT1_
         t _ZNSt3__112_GLOBAL__N_117as_integer_helperIlNS_12basic_stringIwNS_11char_traitsIwEENS_9allocatorIwEEEEPFlPKwPPwiEEET_RKNS2_IcNS3_IcEENS5_IcEEEERKT0_PjiT1_
         t _ZNSt3__112_GLOBAL__N_129throw_from_string_invalid_argERKNS_12basic_stringIcNS_11char_traitsIcEENS_9allocatorIcEEEE
         t _ZNSt3__112_GLOBAL__N_130throw_from_string_out_of_rangeERKNS_12basic_stringIcNS_11char_traitsIcEENS_9allocatorIcEEEE
         t _ZNSt3__112_GLOBAL__N_13mutEv
         d _ZNSt3__112_GLOBAL__N_1L10ClassNamesE
         d _ZNSt3__112_GLOBAL__N_1L12collatenamesE
         d _ZNSt3__112_GLOBAL__N_1L12small_primesE
         d _ZNSt3__112_GLOBAL__N_1L7indicesE
         W _ZNSt3__112__do_messageD0Ev
         T _ZNSt3__112__get_sp_mutEPKv
         T _ZNSt3__112__next_primeEj
         D _ZNSt3__112__rs_default4__c_E
         T _ZNSt3__112__rs_defaultC1ERKS0_
         T _ZNSt3__112__rs_defaultC1Ev
         T _ZNSt3__112__rs_defaultC2ERKS0_
         T _ZNSt3__112__rs_defaultC2Ev
         T _ZNSt3__112__rs_defaultD1Ev
         T _ZNSt3__112__rs_defaultD2Ev
         T _ZNSt3__112__rs_defaultclEv
         T _ZNSt3__112bad_weak_ptrD0Ev
         T _ZNSt3__112bad_weak_ptrD1Ev
         T _ZNSt3__112bad_weak_ptrD2Ev
         W _ZNSt3__112basic_stringIcNS_11char_traitsIcEENS_9allocatorIcEEE10__set_sizeEj
         W _ZNSt3__112basic_stringIcNS_11char_traitsIcEENS_9allocatorIcEEE11__recommendEj
         W _ZNSt3__112basic_stringIcNS_11char_traitsIcEENS_9allocatorIcEEE12__swap_allocERS4_S6_
         W _ZNSt3__112basic_stringIcNS_11char_traitsIcEENS_9allocatorIcEEE12__swap_allocERS4_S6_NS_17integral_constantIbLb0EEE
         W _ZNSt3__112basic_stringIcNS_11char_traitsIcEENS_9allocatorIcEEE12__swap_allocERS4_S6_NS_17integral_constantIbLb1EEE
         W _ZNSt3__112basic_stringIcNS_11char_traitsIcEENS_9allocatorIcEEE13__get_pointerEv
         W _ZNSt3__112basic_stringIcNS_11char_traitsIcEENS_9allocatorIcEEE13__move_assignERS5_NS_17integral_constantIbLb0EEE
         W _ZNSt3__112basic_stringIcNS_11char_traitsIcEENS_9allocatorIcEEE13__move_assignERS5_NS_17integral_constantIbLb1EEE
         W _ZNSt3__112basic_stringIcNS_11char_traitsIcEENS_9allocatorIcEEE13shrink_to_fitEv
         W _ZNSt3__112basic_stringIcNS_11char_traitsIcEENS_9allocatorIcEEE14__erase_to_endEj
         W _ZNSt3__112basic_stringIcNS_11char_traitsIcEENS_9allocatorIcEEE14__set_long_capEj
         W _ZNSt3__112basic_stringIcNS_11char_traitsIcEENS_9allocatorIcEEE15__set_long_sizeEj
         W _ZNSt3__112basic_stringIcNS_11char_traitsIcEENS_9allocatorIcEEE16__set_short_sizeEj
         W _ZNSt3__112basic_stringIcNS_11char_traitsIcEENS_9allocatorIcEEE18__get_long_pointerEv
         W _ZNSt3__112basic_stringIcNS_11char_traitsIcEENS_9allocatorIcEEE18__set_long_pointerEPc
         W _ZNSt3__112basic_stringIcNS_11char_traitsIcEENS_9allocatorIcEEE19__copy_assign_allocERKS5_
         W _ZNSt3__112basic_stringIcNS_11char_traitsIcEENS_9allocatorIcEEE19__copy_assign_allocERKS5_NS_17integral_constantIbLb0EEE
         W _ZNSt3__112basic_stringIcNS_11char_traitsIcEENS_9allocatorIcEEE19__copy_assign_allocERKS5_NS_17integral_constantIbLb1EEE
         W _ZNSt3__112basic_stringIcNS_11char_traitsIcEENS_9allocatorIcEEE19__get_short_pointerEv
         W _ZNSt3__112basic_stringIcNS_11char_traitsIcEENS_9allocatorIcEEE19__move_assign_allocERS5_
         W _ZNSt3__112basic_stringIcNS_11char_traitsIcEENS_9allocatorIcEEE19__move_assign_allocERS5_NS_17integral_constantIbLb0EEE
         W _ZNSt3__112basic_stringIcNS_11char_traitsIcEENS_9allocatorIcEEE19__move_assign_allocERS5_NS_17integral_constantIbLb1EEE
         W _ZNSt3__112basic_stringIcNS_11char_traitsIcEENS_9allocatorIcEEE21__grow_by_and_replaceEjjjjjjPKc
         W _ZNSt3__112basic_stringIcNS_11char_traitsIcEENS_9allocatorIcEEE26__invalidate_all_iteratorsEv
         W _ZNSt3__112basic_stringIcNS_11char_traitsIcEENS_9allocatorIcEEE27__invalidate_iterators_pastEj
         W _ZNSt3__112basic_stringIcNS_11char_traitsIcEENS_9allocatorIcEEE2atEj
         W _ZNSt3__112basic_stringIcNS_11char_traitsIcEENS_9allocatorIcEEE3endEv
         W _ZNSt3__112basic_stringIcNS_11char_traitsIcEENS_9allocatorIcEEE4backEv
         W _ZNSt3__112basic_stringIcNS_11char_traitsIcEENS_9allocatorIcEEE4nposE
         W _ZNSt3__112basic_stringIcNS_11char_traitsIcEENS_9allocatorIcEEE4rendEv
         W _ZNSt3__112basic_stringIcNS_11char_traitsIcEENS_9allocatorIcEEE4swapERS5_
         W _ZNSt3__112basic_stringIcNS_11char_traitsIcEENS_9allocatorIcEEE5beginEv
         W _ZNSt3__112basic_stringIcNS_11char_traitsIcEENS_9allocatorIcEEE5clearEv
         W _ZNSt3__112basic_stringIcNS_11char_traitsIcEENS_9allocatorIcEEE5eraseENS_11__wrap_iterIPKcEE
         W _ZNSt3__112basic_stringIcNS_11char_traitsIcEENS_9allocatorIcEEE5eraseENS_11__wrap_iterIPKcEES9_
         W _ZNSt3__112basic_stringIcNS_11char_traitsIcEENS_9allocatorIcEEE5eraseEjj
         W _ZNSt3__112basic_stringIcNS_11char_traitsIcEENS_9allocatorIcEEE5frontEv
         W _ZNSt3__112basic_stringIcNS_11char_traitsIcEENS_9allocatorIcEEE6__initEPKcj
         W _ZNSt3__112basic_stringIcNS_11char_traitsIcEENS_9allocatorIcEEE6__initEPKcjj
         W _ZNSt3__112basic_stringIcNS_11char_traitsIcEENS_9allocatorIcEEE6__initEjc
         W _ZNSt3__112basic_stringIcNS_11char_traitsIcEENS_9allocatorIcEEE6__initIPKcEENS_9enable_ifIXsr21__is_forward_iteratorIT_EE5valueEvE4typeESA_SA_
         W _ZNSt3__112basic_stringIcNS_11char_traitsIcEENS_9allocatorIcEEE6__zeroEv
         W _ZNSt3__112basic_stringIcNS_11char_traitsIcEENS_9allocatorIcEEE6appendEPKc
         W _ZNSt3__112basic_stringIcNS_11char_traitsIcEENS_9allocatorIcEEE6appendEPKcj
         W _ZNSt3__112basic_stringIcNS_11char_traitsIcEENS_9allocatorIcEEE6appendERKS5_
         W _ZNSt3__112basic_stringIcNS_11char_traitsIcEENS_9allocatorIcEEE6appendERKS5_jj
         W _ZNSt3__112basic_stringIcNS_11char_traitsIcEENS_9allocatorIcEEE6appendESt16initializer_listIcE
         W _ZNSt3__112basic_stringIcNS_11char_traitsIcEENS_9allocatorIcEEE6appendEjc
         W _ZNSt3__112basic_stringIcNS_11char_traitsIcEENS_9allocatorIcEEE6assignEOS5_
         W _ZNSt3__112basic_stringIcNS_11char_traitsIcEENS_9allocatorIcEEE6assignEPKc
         W _ZNSt3__112basic_stringIcNS_11char_traitsIcEENS_9allocatorIcEEE6assignEPKcj
         W _ZNSt3__112basic_stringIcNS_11char_traitsIcEENS_9allocatorIcEEE6assignERKS5_
         W _ZNSt3__112basic_stringIcNS_11char_traitsIcEENS_9allocatorIcEEE6assignERKS5_jj
         W _ZNSt3__112basic_stringIcNS_11char_traitsIcEENS_9allocatorIcEEE6assignESt16initializer_listIcE
         W _ZNSt3__112basic_stringIcNS_11char_traitsIcEENS_9allocatorIcEEE6assignEjc
         W _ZNSt3__112basic_stringIcNS_11char_traitsIcEENS_9allocatorIcEEE6insertENS_11__wrap_iterIPKcEESt16initializer_listIcE
         W _ZNSt3__112basic_stringIcNS_11char_traitsIcEENS_9allocatorIcEEE6insertENS_11__wrap_iterIPKcEEc
         W _ZNSt3__112basic_stringIcNS_11char_traitsIcEENS_9allocatorIcEEE6insertENS_11__wrap_iterIPKcEEjc
         W _ZNSt3__112basic_stringIcNS_11char_traitsIcEENS_9allocatorIcEEE6insertEjPKc
         W _ZNSt3__112basic_stringIcNS_11char_traitsIcEENS_9allocatorIcEEE6insertEjPKcj
         W _ZNSt3__112basic_stringIcNS_11char_traitsIcEENS_9allocatorIcEEE6insertEjRKS5_
         W _ZNSt3__112basic_stringIcNS_11char_traitsIcEENS_9allocatorIcEEE6insertEjRKS5_jj
         W _ZNSt3__112basic_stringIcNS_11char_traitsIcEENS_9allocatorIcEEE6insertEjjc
         W _ZNSt3__112basic_stringIcNS_11char_traitsIcEENS_9allocatorIcEEE6insertIPKcEENS_9enable_ifIXsr21__is_forward_iteratorIT_EE5valueENS_11__wrap_iterIPcEEE4typeENSB_IS8_EESA_SA_
         W _ZNSt3__112basic_stringIcNS_11char_traitsIcEENS_9allocatorIcEEE6rbeginEv
         W _ZNSt3__112basic_stringIcNS_11char_traitsIcEENS_9allocatorIcEEE6resizeEj
         W _ZNSt3__112basic_stringIcNS_11char_traitsIcEENS_9allocatorIcEEE6resizeEjc
         W _ZNSt3__112basic_stringIcNS_11char_traitsIcEENS_9allocatorIcEEE7__allocEv
         W _ZNSt3__112basic_stringIcNS_11char_traitsIcEENS_9allocatorIcEEE7replaceENS_11__wrap_iterIPKcEES9_RKS5_
         W _ZNSt3__112basic_stringIcNS_11char_traitsIcEENS_9allocatorIcEEE7replaceENS_11__wrap_iterIPKcEES9_S8_
         W _ZNSt3__112basic_stringIcNS_11char_traitsIcEENS_9allocatorIcEEE7replaceENS_11__wrap_iterIPKcEES9_S8_j
         W _ZNSt3__112basic_stringIcNS_11char_traitsIcEENS_9allocatorIcEEE7replaceENS_11__wrap_iterIPKcEES9_St16initializer_listIcE
         W _ZNSt3__112basic_stringIcNS_11char_traitsIcEENS_9allocatorIcEEE7replaceENS_11__wrap_iterIPKcEES9_jc
         W _ZNSt3__112basic_stringIcNS_11char_traitsIcEENS_9allocatorIcEEE7replaceEjjPKc
         W _ZNSt3__112basic_stringIcNS_11char_traitsIcEENS_9allocatorIcEEE7replaceEjjPKcj
         W _ZNSt3__112basic_stringIcNS_11char_traitsIcEENS_9allocatorIcEEE7replaceEjjRKS5_
         W _ZNSt3__112basic_stringIcNS_11char_traitsIcEENS_9allocatorIcEEE7replaceEjjRKS5_jj
         W _ZNSt3__112basic_stringIcNS_11char_traitsIcEENS_9allocatorIcEEE7replaceEjjjc
         W _ZNSt3__112basic_stringIcNS_11char_traitsIcEENS_9allocatorIcEEE7replaceIPKcEENS_9enable_ifIXsr19__is_input_iteratorIT_EE5valueERS5_E4typeENS_11__wrap_iterIS8_EESF_SA_SA_
         W _ZNSt3__112basic_stringIcNS_11char_traitsIcEENS_9allocatorIcEEE7reserveEj
         W _ZNSt3__112basic_stringIcNS_11char_traitsIcEENS_9allocatorIcEEE8pop_backEv
         W _ZNSt3__112basic_stringIcNS_11char_traitsIcEENS_9allocatorIcEEE9__grow_byEjjjjjj
         W _ZNSt3__112basic_stringIcNS_11char_traitsIcEENS_9allocatorIcEEE9push_backEc
         W _ZNSt3__112basic_stringIcNS_11char_traitsIcEENS_9allocatorIcEEEC1EOS5_
         W _ZNSt3__112basic_stringIcNS_11char_traitsIcEENS_9allocatorIcEEEC1EOS5_RKS4_
         W _ZNSt3__112basic_stringIcNS_11char_traitsIcEENS_9allocatorIcEEEC1EPKc
         W _ZNSt3__112basic_stringIcNS_11char_traitsIcEENS_9allocatorIcEEEC1EPKcRKS4_
         W _ZNSt3__112basic_stringIcNS_11char_traitsIcEENS_9allocatorIcEEEC1EPKcj
         W _ZNSt3__112basic_stringIcNS_11char_traitsIcEENS_9allocatorIcEEEC1EPKcjRKS4_
         W _ZNSt3__112basic_stringIcNS_11char_traitsIcEENS_9allocatorIcEEEC1ERKS4_
         W _ZNSt3__112basic_stringIcNS_11char_traitsIcEENS_9allocatorIcEEEC1ERKS5_
         W _ZNSt3__112basic_stringIcNS_11char_traitsIcEENS_9allocatorIcEEEC1ERKS5_RKS4_
         W _ZNSt3__112basic_stringIcNS_11char_traitsIcEENS_9allocatorIcEEEC1ERKS5_jjRKS4_
         W _ZNSt3__112basic_stringIcNS_11char_traitsIcEENS_9allocatorIcEEEC1ESt16initializer_listIcE
         W _ZNSt3__112basic_stringIcNS_11char_traitsIcEENS_9allocatorIcEEEC1ESt16initializer_listIcERKS4_
         W _ZNSt3__112basic_stringIcNS_11char_traitsIcEENS_9allocatorIcEEEC1Ejc
         W _ZNSt3__112basic_stringIcNS_11char_traitsIcEENS_9allocatorIcEEEC1EjcRKS4_
         W _ZNSt3__112basic_stringIcNS_11char_traitsIcEENS_9allocatorIcEEEC1Ev
         W _ZNSt3__112basic_stringIcNS_11char_traitsIcEENS_9allocatorIcEEEC2EOS5_
         W _ZNSt3__112basic_stringIcNS_11char_traitsIcEENS_9allocatorIcEEEC2EOS5_RKS4_
         W _ZNSt3__112basic_stringIcNS_11char_traitsIcEENS_9allocatorIcEEEC2EPKc
         W _ZNSt3__112basic_stringIcNS_11char_traitsIcEENS_9allocatorIcEEEC2EPKcRKS4_
         W _ZNSt3__112basic_stringIcNS_11char_traitsIcEENS_9allocatorIcEEEC2EPKcj
         W _ZNSt3__112basic_stringIcNS_11char_traitsIcEENS_9allocatorIcEEEC2EPKcjRKS4_
         W _ZNSt3__112basic_stringIcNS_11char_traitsIcEENS_9allocatorIcEEEC2ERKS4_
         W _ZNSt3__112basic_stringIcNS_11char_traitsIcEENS_9allocatorIcEEEC2ERKS5_
         W _ZNSt3__112basic_stringIcNS_11char_traitsIcEENS_9allocatorIcEEEC2ERKS5_RKS4_
         W _ZNSt3__112basic_stringIcNS_11char_traitsIcEENS_9allocatorIcEEEC2ERKS5_jjRKS4_
         W _ZNSt3__112basic_stringIcNS_11char_traitsIcEENS_9allocatorIcEEEC2ESt16initializer_listIcE
         W _ZNSt3__112basic_stringIcNS_11char_traitsIcEENS_9allocatorIcEEEC2ESt16initializer_listIcERKS4_
         W _ZNSt3__112basic_stringIcNS_11char_traitsIcEENS_9allocatorIcEEEC2Ejc
         W _ZNSt3__112basic_stringIcNS_11char_traitsIcEENS_9allocatorIcEEEC2EjcRKS4_
         W _ZNSt3__112basic_stringIcNS_11char_traitsIcEENS_9allocatorIcEEEC2Ev
         W _ZNSt3__112basic_stringIcNS_11char_traitsIcEENS_9allocatorIcEEED1Ev
         W _ZNSt3__112basic_stringIcNS_11char_traitsIcEENS_9allocatorIcEEED2Ev
         W _ZNSt3__112basic_stringIcNS_11char_traitsIcEENS_9allocatorIcEEEaSEOS5_
         W _ZNSt3__112basic_stringIcNS_11char_traitsIcEENS_9allocatorIcEEEaSEPKc
         W _ZNSt3__112basic_stringIcNS_11char_traitsIcEENS_9allocatorIcEEEaSERKS5_
         W _ZNSt3__112basic_stringIcNS_11char_traitsIcEENS_9allocatorIcEEEaSESt16initializer_listIcE
         W _ZNSt3__112basic_stringIcNS_11char_traitsIcEENS_9allocatorIcEEEaSEc
         W _ZNSt3__112basic_stringIcNS_11char_traitsIcEENS_9allocatorIcEEEixEj
         W _ZNSt3__112basic_stringIcNS_11char_traitsIcEENS_9allocatorIcEEEpLEPKc
         W _ZNSt3__112basic_stringIcNS_11char_traitsIcEENS_9allocatorIcEEEpLERKS5_
         W _ZNSt3__112basic_stringIcNS_11char_traitsIcEENS_9allocatorIcEEEpLESt16initializer_listIcE
         W _ZNSt3__112basic_stringIcNS_11char_traitsIcEENS_9allocatorIcEEEpLEc
         W _ZNSt3__112basic_stringIwNS_11char_traitsIwEENS_9allocatorIwEEE10__set_sizeEj
         W _ZNSt3__112basic_stringIwNS_11char_traitsIwEENS_9allocatorIwEEE11__recommendEj
         W _ZNSt3__112basic_stringIwNS_11char_traitsIwEENS_9allocatorIwEEE12__swap_allocERS4_S6_
         W _ZNSt3__112basic_stringIwNS_11char_traitsIwEENS_9allocatorIwEEE12__swap_allocERS4_S6_NS_17integral_constantIbLb0EEE
         W _ZNSt3__112basic_stringIwNS_11char_traitsIwEENS_9allocatorIwEEE12__swap_allocERS4_S6_NS_17integral_constantIbLb1EEE
         W _ZNSt3__112basic_stringIwNS_11char_traitsIwEENS_9allocatorIwEEE13__get_pointerEv
         W _ZNSt3__112basic_stringIwNS_11char_traitsIwEENS_9allocatorIwEEE13__move_assignERS5_NS_17integral_constantIbLb0EEE
         W _ZNSt3__112basic_stringIwNS_11char_traitsIwEENS_9allocatorIwEEE13__move_assignERS5_NS_17integral_constantIbLb1EEE
         W _ZNSt3__112basic_stringIwNS_11char_traitsIwEENS_9allocatorIwEEE13shrink_to_fitEv
         W _ZNSt3__112basic_stringIwNS_11char_traitsIwEENS_9allocatorIwEEE14__erase_to_endEj
         W _ZNSt3__112basic_stringIwNS_11char_traitsIwEENS_9allocatorIwEEE14__set_long_capEj
         W _ZNSt3__112basic_stringIwNS_11char_traitsIwEENS_9allocatorIwEEE15__set_long_sizeEj
         W _ZNSt3__112basic_stringIwNS_11char_traitsIwEENS_9allocatorIwEEE16__set_short_sizeEj
         W _ZNSt3__112basic_stringIwNS_11char_traitsIwEENS_9allocatorIwEEE18__get_long_pointerEv
         W _ZNSt3__112basic_stringIwNS_11char_traitsIwEENS_9allocatorIwEEE18__set_long_pointerEPw
         W _ZNSt3__112basic_stringIwNS_11char_traitsIwEENS_9allocatorIwEEE19__copy_assign_allocERKS5_
         W _ZNSt3__112basic_stringIwNS_11char_traitsIwEENS_9allocatorIwEEE19__copy_assign_allocERKS5_NS_17integral_constantIbLb0EEE
         W _ZNSt3__112basic_stringIwNS_11char_traitsIwEENS_9allocatorIwEEE19__copy_assign_allocERKS5_NS_17integral_constantIbLb1EEE
         W _ZNSt3__112basic_stringIwNS_11char_traitsIwEENS_9allocatorIwEEE19__get_short_pointerEv
         W _ZNSt3__112basic_stringIwNS_11char_traitsIwEENS_9allocatorIwEEE19__move_assign_allocERS5_
         W _ZNSt3__112basic_stringIwNS_11char_traitsIwEENS_9allocatorIwEEE19__move_assign_allocERS5_NS_17integral_constantIbLb0EEE
         W _ZNSt3__112basic_stringIwNS_11char_traitsIwEENS_9allocatorIwEEE19__move_assign_allocERS5_NS_17integral_constantIbLb1EEE
         W _ZNSt3__112basic_stringIwNS_11char_traitsIwEENS_9allocatorIwEEE21__grow_by_and_replaceEjjjjjjPKw
         W _ZNSt3__112basic_stringIwNS_11char_traitsIwEENS_9allocatorIwEEE26__invalidate_all_iteratorsEv
         W _ZNSt3__112basic_stringIwNS_11char_traitsIwEENS_9allocatorIwEEE27__invalidate_iterators_pastEj
         W _ZNSt3__112basic_stringIwNS_11char_traitsIwEENS_9allocatorIwEEE2atEj
         W _ZNSt3__112basic_stringIwNS_11char_traitsIwEENS_9allocatorIwEEE3endEv
         W _ZNSt3__112basic_stringIwNS_11char_traitsIwEENS_9allocatorIwEEE4backEv
         W _ZNSt3__112basic_stringIwNS_11char_traitsIwEENS_9allocatorIwEEE4nposE
         W _ZNSt3__112basic_stringIwNS_11char_traitsIwEENS_9allocatorIwEEE4rendEv
         W _ZNSt3__112basic_stringIwNS_11char_traitsIwEENS_9allocatorIwEEE4swapERS5_
         W _ZNSt3__112basic_stringIwNS_11char_traitsIwEENS_9allocatorIwEEE5beginEv
         W _ZNSt3__112basic_stringIwNS_11char_traitsIwEENS_9allocatorIwEEE5clearEv
         W _ZNSt3__112basic_stringIwNS_11char_traitsIwEENS_9allocatorIwEEE5eraseENS_11__wrap_iterIPKwEE
         W _ZNSt3__112basic_stringIwNS_11char_traitsIwEENS_9allocatorIwEEE5eraseENS_11__wrap_iterIPKwEES9_
         W _ZNSt3__112basic_stringIwNS_11char_traitsIwEENS_9allocatorIwEEE5eraseEjj
         W _ZNSt3__112basic_stringIwNS_11char_traitsIwEENS_9allocatorIwEEE5frontEv
         W _ZNSt3__112basic_stringIwNS_11char_traitsIwEENS_9allocatorIwEEE6__initEPKwj
         W _ZNSt3__112basic_stringIwNS_11char_traitsIwEENS_9allocatorIwEEE6__initEPKwjj
         W _ZNSt3__112basic_stringIwNS_11char_traitsIwEENS_9allocatorIwEEE6__initEjw
         W _ZNSt3__112basic_stringIwNS_11char_traitsIwEENS_9allocatorIwEEE6__initIPKwEENS_9enable_ifIXsr21__is_forward_iteratorIT_EE5valueEvE4typeESA_SA_
         W _ZNSt3__112basic_stringIwNS_11char_traitsIwEENS_9allocatorIwEEE6__zeroEv
         W _ZNSt3__112basic_stringIwNS_11char_traitsIwEENS_9allocatorIwEEE6appendEPKw
         W _ZNSt3__112basic_stringIwNS_11char_traitsIwEENS_9allocatorIwEEE6appendEPKwj
         W _ZNSt3__112basic_stringIwNS_11char_traitsIwEENS_9allocatorIwEEE6appendERKS5_
         W _ZNSt3__112basic_stringIwNS_11char_traitsIwEENS_9allocatorIwEEE6appendERKS5_jj
         W _ZNSt3__112basic_stringIwNS_11char_traitsIwEENS_9allocatorIwEEE6appendESt16initializer_listIwE
         W _ZNSt3__112basic_stringIwNS_11char_traitsIwEENS_9allocatorIwEEE6appendEjw
         W _ZNSt3__112basic_stringIwNS_11char_traitsIwEENS_9allocatorIwEEE6assignEOS5_
         W _ZNSt3__112basic_stringIwNS_11char_traitsIwEENS_9allocatorIwEEE6assignEPKw
         W _ZNSt3__112basic_stringIwNS_11char_traitsIwEENS_9allocatorIwEEE6assignEPKwj
         W _ZNSt3__112basic_stringIwNS_11char_traitsIwEENS_9allocatorIwEEE6assignERKS5_
         W _ZNSt3__112basic_stringIwNS_11char_traitsIwEENS_9allocatorIwEEE6assignERKS5_jj
         W _ZNSt3__112basic_stringIwNS_11char_traitsIwEENS_9allocatorIwEEE6assignESt16initializer_listIwE
         W _ZNSt3__112basic_stringIwNS_11char_traitsIwEENS_9allocatorIwEEE6assignEjw
         W _ZNSt3__112basic_stringIwNS_11char_traitsIwEENS_9allocatorIwEEE6insertENS_11__wrap_iterIPKwEESt16initializer_listIwE
         W _ZNSt3__112basic_stringIwNS_11char_traitsIwEENS_9allocatorIwEEE6insertENS_11__wrap_iterIPKwEEjw
         W _ZNSt3__112basic_stringIwNS_11char_traitsIwEENS_9allocatorIwEEE6insertENS_11__wrap_iterIPKwEEw
         W _ZNSt3__112basic_stringIwNS_11char_traitsIwEENS_9allocatorIwEEE6insertEjPKw
         W _ZNSt3__112basic_stringIwNS_11char_traitsIwEENS_9allocatorIwEEE6insertEjPKwj
         W _ZNSt3__112basic_stringIwNS_11char_traitsIwEENS_9allocatorIwEEE6insertEjRKS5_
         W _ZNSt3__112basic_stringIwNS_11char_traitsIwEENS_9allocatorIwEEE6insertEjRKS5_jj
         W _ZNSt3__112basic_stringIwNS_11char_traitsIwEENS_9allocatorIwEEE6insertEjjw
         W _ZNSt3__112basic_stringIwNS_11char_traitsIwEENS_9allocatorIwEEE6insertIPKwEENS_9enable_ifIXsr21__is_forward_iteratorIT_EE5valueENS_11__wrap_iterIPwEEE4typeENSB_IS8_EESA_SA_
         W _ZNSt3__112basic_stringIwNS_11char_traitsIwEENS_9allocatorIwEEE6rbeginEv
         W _ZNSt3__112basic_stringIwNS_11char_traitsIwEENS_9allocatorIwEEE6resizeEj
         W _ZNSt3__112basic_stringIwNS_11char_traitsIwEENS_9allocatorIwEEE6resizeEjw
         W _ZNSt3__112basic_stringIwNS_11char_traitsIwEENS_9allocatorIwEEE7__allocEv
         W _ZNSt3__112basic_stringIwNS_11char_traitsIwEENS_9allocatorIwEEE7replaceENS_11__wrap_iterIPKwEES9_RKS5_
         W _ZNSt3__112basic_stringIwNS_11char_traitsIwEENS_9allocatorIwEEE7replaceENS_11__wrap_iterIPKwEES9_S8_
         W _ZNSt3__112basic_stringIwNS_11char_traitsIwEENS_9allocatorIwEEE7replaceENS_11__wrap_iterIPKwEES9_S8_j
         W _ZNSt3__112basic_stringIwNS_11char_traitsIwEENS_9allocatorIwEEE7replaceENS_11__wrap_iterIPKwEES9_St16initializer_listIwE
         W _ZNSt3__112basic_stringIwNS_11char_traitsIwEENS_9allocatorIwEEE7replaceENS_11__wrap_iterIPKwEES9_jw
         W _ZNSt3__112basic_stringIwNS_11char_traitsIwEENS_9allocatorIwEEE7replaceEjjPKw
         W _ZNSt3__112basic_stringIwNS_11char_traitsIwEENS_9allocatorIwEEE7replaceEjjPKwj
         W _ZNSt3__112basic_stringIwNS_11char_traitsIwEENS_9allocatorIwEEE7replaceEjjRKS5_
         W _ZNSt3__112basic_stringIwNS_11char_traitsIwEENS_9allocatorIwEEE7replaceEjjRKS5_jj
         W _ZNSt3__112basic_stringIwNS_11char_traitsIwEENS_9allocatorIwEEE7replaceEjjjw
         W _ZNSt3__112basic_stringIwNS_11char_traitsIwEENS_9allocatorIwEEE7replaceIPKwEENS_9enable_ifIXsr19__is_input_iteratorIT_EE5valueERS5_E4typeENS_11__wrap_iterIS8_EESF_SA_SA_
         W _ZNSt3__112basic_stringIwNS_11char_traitsIwEENS_9allocatorIwEEE7reserveEj
         W _ZNSt3__112basic_stringIwNS_11char_traitsIwEENS_9allocatorIwEEE8pop_backEv
         W _ZNSt3__112basic_stringIwNS_11char_traitsIwEENS_9allocatorIwEEE9__grow_byEjjjjjj
         W _ZNSt3__112basic_stringIwNS_11char_traitsIwEENS_9allocatorIwEEE9push_backEw
         W _ZNSt3__112basic_stringIwNS_11char_traitsIwEENS_9allocatorIwEEEC1EOS5_
         W _ZNSt3__112basic_stringIwNS_11char_traitsIwEENS_9allocatorIwEEEC1EOS5_RKS4_
         W _ZNSt3__112basic_stringIwNS_11char_traitsIwEENS_9allocatorIwEEEC1EPKw
         W _ZNSt3__112basic_stringIwNS_11char_traitsIwEENS_9allocatorIwEEEC1EPKwRKS4_
         W _ZNSt3__112basic_stringIwNS_11char_traitsIwEENS_9allocatorIwEEEC1EPKwj
         W _ZNSt3__112basic_stringIwNS_11char_traitsIwEENS_9allocatorIwEEEC1EPKwjRKS4_
         W _ZNSt3__112basic_stringIwNS_11char_traitsIwEENS_9allocatorIwEEEC1ERKS4_
         W _ZNSt3__112basic_stringIwNS_11char_traitsIwEENS_9allocatorIwEEEC1ERKS5_
         W _ZNSt3__112basic_stringIwNS_11char_traitsIwEENS_9allocatorIwEEEC1ERKS5_RKS4_
         W _ZNSt3__112basic_stringIwNS_11char_traitsIwEENS_9allocatorIwEEEC1ERKS5_jjRKS4_
         W _ZNSt3__112basic_stringIwNS_11char_traitsIwEENS_9allocatorIwEEEC1ESt16initializer_listIwE
         W _ZNSt3__112basic_stringIwNS_11char_traitsIwEENS_9allocatorIwEEEC1ESt16initializer_listIwERKS4_
         W _ZNSt3__112basic_stringIwNS_11char_traitsIwEENS_9allocatorIwEEEC1Ejw
         W _ZNSt3__112basic_stringIwNS_11char_traitsIwEENS_9allocatorIwEEEC1EjwRKS4_
         W _ZNSt3__112basic_stringIwNS_11char_traitsIwEENS_9allocatorIwEEEC1Ev
         W _ZNSt3__112basic_stringIwNS_11char_traitsIwEENS_9allocatorIwEEEC2EOS5_
         W _ZNSt3__112basic_stringIwNS_11char_traitsIwEENS_9allocatorIwEEEC2EOS5_RKS4_
         W _ZNSt3__112basic_stringIwNS_11char_traitsIwEENS_9allocatorIwEEEC2EPKw
         W _ZNSt3__112basic_stringIwNS_11char_traitsIwEENS_9allocatorIwEEEC2EPKwRKS4_
         W _ZNSt3__112basic_stringIwNS_11char_traitsIwEENS_9allocatorIwEEEC2EPKwj
         W _ZNSt3__112basic_stringIwNS_11char_traitsIwEENS_9allocatorIwEEEC2EPKwjRKS4_
         W _ZNSt3__112basic_stringIwNS_11char_traitsIwEENS_9allocatorIwEEEC2ERKS4_
         W _ZNSt3__112basic_stringIwNS_11char_traitsIwEENS_9allocatorIwEEEC2ERKS5_
         W _ZNSt3__112basic_stringIwNS_11char_traitsIwEENS_9allocatorIwEEEC2ERKS5_RKS4_
         W _ZNSt3__112basic_stringIwNS_11char_traitsIwEENS_9allocatorIwEEEC2ERKS5_jjRKS4_
         W _ZNSt3__112basic_stringIwNS_11char_traitsIwEENS_9allocatorIwEEEC2ESt16initializer_listIwE
         W _ZNSt3__112basic_stringIwNS_11char_traitsIwEENS_9allocatorIwEEEC2ESt16initializer_listIwERKS4_
         W _ZNSt3__112basic_stringIwNS_11char_traitsIwEENS_9allocatorIwEEEC2Ejw
         W _ZNSt3__112basic_stringIwNS_11char_traitsIwEENS_9allocatorIwEEEC2EjwRKS4_
         W _ZNSt3__112basic_stringIwNS_11char_traitsIwEENS_9allocatorIwEEEC2Ev
         W _ZNSt3__112basic_stringIwNS_11char_traitsIwEENS_9allocatorIwEEED1Ev
         W _ZNSt3__112basic_stringIwNS_11char_traitsIwEENS_9allocatorIwEEED2Ev
         W _ZNSt3__112basic_stringIwNS_11char_traitsIwEENS_9allocatorIwEEEaSEOS5_
         W _ZNSt3__112basic_stringIwNS_11char_traitsIwEENS_9allocatorIwEEEaSEPKw
         W _ZNSt3__112basic_stringIwNS_11char_traitsIwEENS_9allocatorIwEEEaSERKS5_
         W _ZNSt3__112basic_stringIwNS_11char_traitsIwEENS_9allocatorIwEEEaSESt16initializer_listIwE
         W _ZNSt3__112basic_stringIwNS_11char_traitsIwEENS_9allocatorIwEEEaSEw
         W _ZNSt3__112basic_stringIwNS_11char_traitsIwEENS_9allocatorIwEEEixEj
         W _ZNSt3__112basic_stringIwNS_11char_traitsIwEENS_9allocatorIwEEEpLEPKw
         W _ZNSt3__112basic_stringIwNS_11char_traitsIwEENS_9allocatorIwEEEpLERKS5_
         W _ZNSt3__112basic_stringIwNS_11char_traitsIwEENS_9allocatorIwEEEpLESt16initializer_listIwE
         W _ZNSt3__112basic_stringIwNS_11char_traitsIwEENS_9allocatorIwEEEpLEw
         T _ZNSt3__112future_errorC1ENS_10error_codeE
         T _ZNSt3__112future_errorC2ENS_10error_codeE
         W _ZNSt3__112future_errorC2ERKS0_
         T _ZNSt3__112future_errorD0Ev
         T _ZNSt3__112future_errorD1Ev
         T _ZNSt3__112future_errorD2Ev
         D _ZNSt3__112placeholders2_1E
         D _ZNSt3__112placeholders2_2E
         D _ZNSt3__112placeholders2_3E
         D _ZNSt3__112placeholders2_4E
         D _ZNSt3__112placeholders2_5E
         D _ZNSt3__112placeholders2_6E
         D _ZNSt3__112placeholders2_7E
         D _ZNSt3__112placeholders2_8E
         D _ZNSt3__112placeholders2_9E
         D _ZNSt3__112placeholders3_10E
         T _ZNSt3__112system_error6__initERKNS_10error_codeENS_12basic_stringIcNS_11char_traitsIcEENS_9allocatorIcEEEE
         T _ZNSt3__112system_errorC1ENS_10error_codeE
         T _ZNSt3__112system_errorC1ENS_10error_codeEPKc
         T _ZNSt3__112system_errorC1ENS_10error_codeERKNS_12basic_stringIcNS_11char_traitsIcEENS_9allocatorIcEEEE
         T _ZNSt3__112system_errorC1EiRKNS_14error_categoryE
         T _ZNSt3__112system_errorC1EiRKNS_14error_categoryEPKc
         T _ZNSt3__112system_errorC1EiRKNS_14error_categoryERKNS_12basic_stringIcNS_11char_traitsIcEENS_9allocatorIcEEEE
         T _ZNSt3__112system_errorC2ENS_10error_codeE
         T _ZNSt3__112system_errorC2ENS_10error_codeEPKc
         T _ZNSt3__112system_errorC2ENS_10error_codeERKNS_12basic_stringIcNS_11char_traitsIcEENS_9allocatorIcEEEE
         T _ZNSt3__112system_errorC2EiRKNS_14error_categoryE
         T _ZNSt3__112system_errorC2EiRKNS_14error_categoryEPKc
         T _ZNSt3__112system_errorC2EiRKNS_14error_categoryERKNS_12basic_stringIcNS_11char_traitsIcEENS_9allocatorIcEEEE
         T _ZNSt3__112system_errorD0Ev
         T _ZNSt3__112system_errorD1Ev
         T _ZNSt3__112system_errorD2Ev
         W _ZNSt3__113__lower_boundIRNS_6__lessIjjEEPKjjEET0_S6_S6_RKT1_T_
         W _ZNSt3__113__vector_baseINS_4pairIPNS_18condition_variableEPNS_5mutexEEENS_18__hidden_allocatorIS6_EEED2Ev
         W _ZNSt3__113__vector_baseIPNS_17__assoc_sub_stateENS_18__hidden_allocatorIS2_EEED2Ev
         D _ZNSt3__113allocator_argE
         T _ZNSt3__113random_deviceC1ERKNS_12basic_stringIcNS_11char_traitsIcEENS_9allocatorIcEEEE
         T _ZNSt3__113random_deviceC2ERKNS_12basic_stringIcNS_11char_traitsIcEENS_9allocatorIcEEEE
         T _ZNSt3__113random_deviceD1Ev
         T _ZNSt3__113random_deviceD2Ev
         T _ZNSt3__113random_deviceclEv
         T _ZNSt3__113shared_futureIvED1Ev
         T _ZNSt3__113shared_futureIvED2Ev
         T _ZNSt3__113shared_futureIvEaSERKS1_
         T _ZNSt3__114__get_const_dbEv
         T _ZNSt3__114__shared_count12__add_sharedEv
         T _ZNSt3__114__shared_count16__release_sharedEv
         T _ZNSt3__114__shared_countD0Ev
         T _ZNSt3__114__shared_countD1Ev
         T _ZNSt3__114__shared_countD2Ev
         W _ZNSt3__114__split_bufferINS_4pairIPNS_18condition_variableEPNS_5mutexEEERNS_18__hidden_allocatorIS6_EEEC2EjjS9_
         W _ZNSt3__114__split_bufferINS_4pairIPNS_18condition_variableEPNS_5mutexEEERNS_18__hidden_allocatorIS6_EEED2Ev
         W _ZNSt3__114__split_bufferIPNS_17__assoc_sub_stateERNS_18__hidden_allocatorIS2_EEEC2EjjS5_
         W _ZNSt3__114__split_bufferIPNS_17__assoc_sub_stateERNS_18__hidden_allocatorIS2_EEED2Ev
         T _ZNSt3__114error_categoryC1Ev
         T _ZNSt3__114error_categoryC2Ev
         T _ZNSt3__114error_categoryD0Ev
         T _ZNSt3__114error_categoryD1Ev
         T _ZNSt3__114error_categoryD2Ev
         T _ZNSt3__115__get_classnameEPKcb
         T _ZNSt3__115__thread_struct25notify_all_at_thread_exitEPNS_18condition_variableEPNS_5mutexE
         T _ZNSt3__115__thread_struct27__make_ready_at_thread_exitEPNS_17__assoc_sub_stateE
         T _ZNSt3__115__thread_structC1Ev
         T _ZNSt3__115__thread_structC2Ev
         T _ZNSt3__115__thread_structD1Ev
         T _ZNSt3__115__thread_structD2Ev
         T _ZNSt3__115future_categoryEv
         T _ZNSt3__115recursive_mutex4lockEv
         T _ZNSt3__115recursive_mutex6unlockEv
         T _ZNSt3__115recursive_mutex8try_lockEv
         T _ZNSt3__115recursive_mutexC1Ev
         T _ZNSt3__115recursive_mutexC2Ev
         T _ZNSt3__115recursive_mutexD1Ev
         T _ZNSt3__115recursive_mutexD2Ev
         T _ZNSt3__115system_categoryEv
         T _ZNSt3__116generic_categoryEv
         T _ZNSt3__117__assoc_sub_state10__sub_waitERNS_11unique_lockINS_5mutexEEE
         T _ZNSt3__117__assoc_sub_state12__make_readyEv
         T _ZNSt3__117__assoc_sub_state13set_exceptionESt13exception_ptr
         T _ZNSt3__117__assoc_sub_state16__on_zero_sharedEv
         T _ZNSt3__117__assoc_sub_state24set_value_at_thread_exitEv
         T _ZNSt3__117__assoc_sub_state28set_exception_at_thread_exitESt13exception_ptr
         T _ZNSt3__117__assoc_sub_state4copyEv
         T _ZNSt3__117__assoc_sub_state4waitEv
         T _ZNSt3__117__assoc_sub_state9__executeEv
         T _ZNSt3__117__assoc_sub_state9set_valueEv
         W _ZNSt3__117__assoc_sub_stateD0Ev
         W _ZNSt3__117__assoc_sub_stateD2Ev
         T _ZNSt3__117declare_reachableEPv
         W _ZNSt3__118__insertion_sort_3IRNS_6__lessIaaEEPaEEvT0_S5_T_
         W _ZNSt3__118__insertion_sort_3IRNS_6__lessIccEEPcEEvT0_S5_T_
         W _ZNSt3__118__insertion_sort_3IRNS_6__lessIddEEPdEEvT0_S5_T_
         W _ZNSt3__118__insertion_sort_3IRNS_6__lessIeeEEPeEEvT0_S5_T_
         W _ZNSt3__118__insertion_sort_3IRNS_6__lessIffEEPfEEvT0_S5_T_
         W _ZNSt3__118__insertion_sort_3IRNS_6__lessIhhEEPhEEvT0_S5_T_
         W _ZNSt3__118__insertion_sort_3IRNS_6__lessIiiEEPiEEvT0_S5_T_
         W _ZNSt3__118__insertion_sort_3IRNS_6__lessIjjEEPjEEvT0_S5_T_
         W _ZNSt3__118__insertion_sort_3IRNS_6__lessIllEEPlEEvT0_S5_T_
         W _ZNSt3__118__insertion_sort_3IRNS_6__lessImmEEPmEEvT0_S5_T_
         W _ZNSt3__118__insertion_sort_3IRNS_6__lessIssEEPsEEvT0_S5_T_
         W _ZNSt3__118__insertion_sort_3IRNS_6__lessIttEEPtEEvT0_S5_T_
         W _ZNSt3__118__insertion_sort_3IRNS_6__lessIwwEEPwEEvT0_S5_T_
         W _ZNSt3__118__insertion_sort_3IRNS_6__lessIxxEEPxEEvT0_S5_T_
         W _ZNSt3__118__insertion_sort_3IRNS_6__lessIyyEEPyEEvT0_S5_T_
         W _ZNSt3__118__libcpp_refstringC2EPKc
         W _ZNSt3__118__libcpp_refstringaSERKS0_
         T _ZNSt3__118condition_variable10notify_allEv
         T _ZNSt3__118condition_variable10notify_oneEv
         T _ZNSt3__118condition_variable15__do_timed_waitERNS_11unique_lockINS_5mutexEEENS_6chrono10time_pointINS5_12system_clockENS5_8durationIxNS_5ratioILx1ELx1000000000EEEEEEE
         T _ZNSt3__118condition_variable4waitERNS_11unique_lockINS_5mutexEEE
         T _ZNSt3__118condition_variableD1Ev
         T _ZNSt3__118condition_variableD2Ev
         T _ZNSt3__118get_pointer_safetyEv
         T _ZNSt3__119__shared_weak_count10__add_weakEv
         T _ZNSt3__119__shared_weak_count12__add_sharedEv
         T _ZNSt3__119__shared_weak_count14__release_weakEv
         T _ZNSt3__119__shared_weak_count16__release_sharedEv
         T _ZNSt3__119__shared_weak_count4lockEv
         T _ZNSt3__119__shared_weak_countD0Ev
         T _ZNSt3__119__shared_weak_countD1Ev
         T _ZNSt3__119__shared_weak_countD2Ev
         T _ZNSt3__119__thread_local_dataEv
         T _ZNSt3__119__thread_struct_imp25notify_all_at_thread_exitEPNS_18condition_variableEPNS_5mutexE
         T _ZNSt3__119__thread_struct_imp27__make_ready_at_thread_exitEPNS_17__assoc_sub_stateE
         T _ZNSt3__119__thread_struct_impD1Ev
         T _ZNSt3__119__thread_struct_impD2Ev
         T _ZNSt3__119declare_no_pointersEPcj
         D _ZNSt3__119piecewise_constructE
         T _ZNSt3__120__get_collation_nameEPKc
         T _ZNSt3__120__throw_system_errorEiPKc
         W _ZNSt3__121__murmur2_or_cityhashIjLj32EEclEPKvj
         W _ZNSt3__121__thread_specific_ptrINS_15__thread_structEE16__at_thread_exitEPv
         W _ZNSt3__121__thread_specific_ptrINS_15__thread_structEEC2Ev
         W _ZNSt3__121__thread_specific_ptrINS_15__thread_structEED2Ev
         T _ZNSt3__121__undeclare_reachableEPv
         T _ZNSt3__121recursive_timed_mutex4lockEv
         T _ZNSt3__121recursive_timed_mutex6unlockEv
         T _ZNSt3__121recursive_timed_mutex8try_lockEv
         T _ZNSt3__121recursive_timed_mutexC1Ev
         T _ZNSt3__121recursive_timed_mutexC2Ev
         T _ZNSt3__121recursive_timed_mutexD1Ev
         T _ZNSt3__121recursive_timed_mutexD2Ev
         T _ZNSt3__121undeclare_no_pointersEPcj
         W _ZNSt3__123__future_error_categoryD0Ev
         W _ZNSt3__123__system_error_categoryD0Ev
         W _ZNSt3__123mersenne_twister_engineIjLj32ELj624ELj397ELj31ELj2567483615ELj11ELj4294967295ELj7ELj2636928640ELj15ELj4022730752ELj18ELj1812433253EE4seedEj
         W _ZNSt3__123mersenne_twister_engineIjLj32ELj624ELj397ELj31ELj2567483615ELj11ELj4294967295ELj7ELj2636928640ELj15ELj4022730752ELj18ELj1812433253EEclEv
         W _ZNSt3__124__generic_error_categoryD0Ev
         T _ZNSt3__125notify_all_at_thread_exitERNS_18condition_variableENS_11unique_lockINS_5mutexEEE
         W _ZNSt3__127__insertion_sort_incompleteIRNS_6__lessIaaEEPaEEbT0_S5_T_
         W _ZNSt3__127__insertion_sort_incompleteIRNS_6__lessIccEEPcEEbT0_S5_T_
         W _ZNSt3__127__insertion_sort_incompleteIRNS_6__lessIddEEPdEEbT0_S5_T_
         W _ZNSt3__127__insertion_sort_incompleteIRNS_6__lessIeeEEPeEEbT0_S5_T_
         W _ZNSt3__127__insertion_sort_incompleteIRNS_6__lessIffEEPfEEbT0_S5_T_
         W _ZNSt3__127__insertion_sort_incompleteIRNS_6__lessIhhEEPhEEbT0_S5_T_
         W _ZNSt3__127__insertion_sort_incompleteIRNS_6__lessIiiEEPiEEbT0_S5_T_
         W _ZNSt3__127__insertion_sort_incompleteIRNS_6__lessIjjEEPjEEbT0_S5_T_
         W _ZNSt3__127__insertion_sort_incompleteIRNS_6__lessIllEEPlEEbT0_S5_T_
         W _ZNSt3__127__insertion_sort_incompleteIRNS_6__lessImmEEPmEEbT0_S5_T_
         W _ZNSt3__127__insertion_sort_incompleteIRNS_6__lessIssEEPsEEbT0_S5_T_
         W _ZNSt3__127__insertion_sort_incompleteIRNS_6__lessIttEEPtEEbT0_S5_T_
         W _ZNSt3__127__insertion_sort_incompleteIRNS_6__lessIwwEEPwEEbT0_S5_T_
         W _ZNSt3__127__insertion_sort_incompleteIRNS_6__lessIxxEEPxEEbT0_S5_T_
         W _ZNSt3__127__insertion_sort_incompleteIRNS_6__lessIyyEEPyEEbT0_S5_T_
         T _ZNSt3__14stodERKNS_12basic_stringIcNS_11char_traitsIcEENS_9allocatorIcEEEEPj
         T _ZNSt3__14stodERKNS_12basic_stringIwNS_11char_traitsIwEENS_9allocatorIwEEEEPj
         T _ZNSt3__14stofERKNS_12basic_stringIcNS_11char_traitsIcEENS_9allocatorIcEEEEPj
         T _ZNSt3__14stofERKNS_12basic_stringIwNS_11char_traitsIwEENS_9allocatorIwEEEEPj
         T _ZNSt3__14stoiERKNS_12basic_stringIcNS_11char_traitsIcEENS_9allocatorIcEEEEPji
         T _ZNSt3__14stoiERKNS_12basic_stringIwNS_11char_traitsIwEENS_9allocatorIwEEEEPji
         T _ZNSt3__14stolERKNS_12basic_stringIcNS_11char_traitsIcEENS_9allocatorIcEEEEPji
         T _ZNSt3__14stolERKNS_12basic_stringIwNS_11char_traitsIwEENS_9allocatorIwEEEEPji
         T _ZNSt3__15alignEjjRPvRj
         T _ZNSt3__15mutex4lockEv
         T _ZNSt3__15mutex6unlockEv
         T _ZNSt3__15mutex8try_lockEv
         T _ZNSt3__15mutexD1Ev
         T _ZNSt3__15mutexD2Ev
         T _ZNSt3__15stoldERKNS_12basic_stringIcNS_11char_traitsIcEENS_9allocatorIcEEEEPj
         T _ZNSt3__15stoldERKNS_12basic_stringIwNS_11char_traitsIwEENS_9allocatorIwEEEEPj
         T _ZNSt3__15stollERKNS_12basic_stringIcNS_11char_traitsIcEENS_9allocatorIcEEEEPji
         T _ZNSt3__15stollERKNS_12basic_stringIwNS_11char_traitsIwEENS_9allocatorIwEEEEPji
         T _ZNSt3__15stoulERKNS_12basic_stringIcNS_11char_traitsIcEENS_9allocatorIcEEEEPji
         T _ZNSt3__15stoulERKNS_12basic_stringIwNS_11char_traitsIwEENS_9allocatorIwEEEEPji
         W _ZNSt3__16__sortIRNS_6__lessIaaEEPaEEvT0_S5_T_
         W _ZNSt3__16__sortIRNS_6__lessIccEEPcEEvT0_S5_T_
         W _ZNSt3__16__sortIRNS_6__lessIddEEPdEEvT0_S5_T_
         W _ZNSt3__16__sortIRNS_6__lessIeeEEPeEEvT0_S5_T_
         W _ZNSt3__16__sortIRNS_6__lessIffEEPfEEvT0_S5_T_
         W _ZNSt3__16__sortIRNS_6__lessIhhEEPhEEvT0_S5_T_
         W _ZNSt3__16__sortIRNS_6__lessIiiEEPiEEvT0_S5_T_
         W _ZNSt3__16__sortIRNS_6__lessIjjEEPjEEvT0_S5_T_
         W _ZNSt3__16__sortIRNS_6__lessIllEEPlEEvT0_S5_T_
         W _ZNSt3__16__sortIRNS_6__lessImmEEPmEEvT0_S5_T_
         W _ZNSt3__16__sortIRNS_6__lessIssEEPsEEvT0_S5_T_
         W _ZNSt3__16__sortIRNS_6__lessIttEEPtEEvT0_S5_T_
         W _ZNSt3__16__sortIRNS_6__lessIwwEEPwEEvT0_S5_T_
         W _ZNSt3__16__sortIRNS_6__lessIxxEEPxEEvT0_S5_T_
         W _ZNSt3__16__sortIRNS_6__lessIyyEEPyEEvT0_S5_T_
         T _ZNSt3__16chrono12steady_clock3nowEv
         D _ZNSt3__16chrono12steady_clock9is_steadyE
         T _ZNSt3__16chrono12system_clock11from_time_tEl
         T _ZNSt3__16chrono12system_clock3nowEv
         D _ZNSt3__16chrono12system_clock9is_steadyE
         T _ZNSt3__16chrono12system_clock9to_time_tERKNS0_10time_pointIS1_NS0_8durationIxNS_5ratioILx1ELx1000000EEEEEEE
         T _ZNSt3__16futureIvE3getEv
         T _ZNSt3__16futureIvEC1EPNS_17__assoc_sub_stateE
         T _ZNSt3__16futureIvEC2EPNS_17__assoc_sub_stateE
         T _ZNSt3__16futureIvED1Ev
         T _ZNSt3__16futureIvED2Ev
         T _ZNSt3__16gslice6__initEj
         T _ZNSt3__16stoullERKNS_12basic_stringIcNS_11char_traitsIcEENS_9allocatorIcEEEEPji
         T _ZNSt3__16stoullERKNS_12basic_stringIwNS_11char_traitsIwEENS_9allocatorIwEEEEPji
         T _ZNSt3__16thread20hardware_concurrencyEv
         T _ZNSt3__16thread4joinEv
         T _ZNSt3__16thread6detachEv
         T _ZNSt3__16threadD1Ev
         T _ZNSt3__16threadD2Ev
         W _ZNSt3__16vectorINS_4pairIPNS_18condition_variableEPNS_5mutexEEENS_18__hidden_allocatorIS6_EEE21__push_back_slow_pathIS6_EEvOT_
         W _ZNSt3__16vectorINS_4pairIPNS_18condition_variableEPNS_5mutexEEENS_18__hidden_allocatorIS6_EEE26__swap_out_circular_bufferERNS_14__split_bufferIS6_RS8_EE
         W _ZNSt3__16vectorIPNS_17__assoc_sub_stateENS_18__hidden_allocatorIS2_EEE21__push_back_slow_pathIRKS2_EEvOT_
         W _ZNSt3__16vectorIPNS_17__assoc_sub_stateENS_18__hidden_allocatorIS2_EEE26__swap_out_circular_bufferERNS_14__split_bufferIS2_RS4_EE
         W _ZNSt3__17__sort3IRNS_6__lessIaaEEPaEEjT0_S5_S5_T_
         W _ZNSt3__17__sort3IRNS_6__lessIccEEPcEEjT0_S5_S5_T_
         W _ZNSt3__17__sort3IRNS_6__lessIddEEPdEEjT0_S5_S5_T_
         W _ZNSt3__17__sort3IRNS_6__lessIeeEEPeEEjT0_S5_S5_T_
         W _ZNSt3__17__sort3IRNS_6__lessIffEEPfEEjT0_S5_S5_T_
         W _ZNSt3__17__sort3IRNS_6__lessIhhEEPhEEjT0_S5_S5_T_
         W _ZNSt3__17__sort3IRNS_6__lessIiiEEPiEEjT0_S5_S5_T_
         W _ZNSt3__17__sort3IRNS_6__lessIjjEEPjEEjT0_S5_S5_T_
         W _ZNSt3__17__sort3IRNS_6__lessIllEEPlEEjT0_S5_S5_T_
         W _ZNSt3__17__sort3IRNS_6__lessImmEEPmEEjT0_S5_S5_T_
         W _ZNSt3__17__sort3IRNS_6__lessIssEEPsEEjT0_S5_S5_T_
         W _ZNSt3__17__sort3IRNS_6__lessIttEEPtEEjT0_S5_S5_T_
         W _ZNSt3__17__sort3IRNS_6__lessIwwEEPwEEjT0_S5_S5_T_
         W _ZNSt3__17__sort3IRNS_6__lessIxxEEPxEEjT0_S5_S5_T_
         W _ZNSt3__17__sort3IRNS_6__lessIyyEEPyEEjT0_S5_S5_T_
         W _ZNSt3__17__sort4IRNS_6__lessIaaEEPaEEjT0_S5_S5_S5_T_
         W _ZNSt3__17__sort4IRNS_6__lessIccEEPcEEjT0_S5_S5_S5_T_
         W _ZNSt3__17__sort4IRNS_6__lessIddEEPdEEjT0_S5_S5_S5_T_
         W _ZNSt3__17__sort4IRNS_6__lessIeeEEPeEEjT0_S5_S5_S5_T_
         W _ZNSt3__17__sort4IRNS_6__lessIffEEPfEEjT0_S5_S5_S5_T_
         W _ZNSt3__17__sort4IRNS_6__lessIhhEEPhEEjT0_S5_S5_S5_T_
         W _ZNSt3__17__sort4IRNS_6__lessIiiEEPiEEjT0_S5_S5_S5_T_
         W _ZNSt3__17__sort4IRNS_6__lessIjjEEPjEEjT0_S5_S5_S5_T_
         W _ZNSt3__17__sort4IRNS_6__lessIllEEPlEEjT0_S5_S5_S5_T_
         W _ZNSt3__17__sort4IRNS_6__lessImmEEPmEEjT0_S5_S5_S5_T_
         W _ZNSt3__17__sort4IRNS_6__lessIssEEPsEEjT0_S5_S5_S5_T_
         W _ZNSt3__17__sort4IRNS_6__lessIttEEPtEEjT0_S5_S5_S5_T_
         W _ZNSt3__17__sort4IRNS_6__lessIwwEEPwEEjT0_S5_S5_S5_T_
         W _ZNSt3__17__sort4IRNS_6__lessIxxEEPxEEjT0_S5_S5_S5_T_
         W _ZNSt3__17__sort4IRNS_6__lessIyyEEPyEEjT0_S5_S5_S5_T_
         W _ZNSt3__17__sort5IRNS_6__lessIaaEEPaEEjT0_S5_S5_S5_S5_T_
         W _ZNSt3__17__sort5IRNS_6__lessIccEEPcEEjT0_S5_S5_S5_S5_T_
         W _ZNSt3__17__sort5IRNS_6__lessIddEEPdEEjT0_S5_S5_S5_S5_T_
         W _ZNSt3__17__sort5IRNS_6__lessIeeEEPeEEjT0_S5_S5_S5_S5_T_
         W _ZNSt3__17__sort5IRNS_6__lessIffEEPfEEjT0_S5_S5_S5_S5_T_
         W _ZNSt3__17__sort5IRNS_6__lessIhhEEPhEEjT0_S5_S5_S5_S5_T_
         W _ZNSt3__17__sort5IRNS_6__lessIiiEEPiEEjT0_S5_S5_S5_S5_T_
         W _ZNSt3__17__sort5IRNS_6__lessIjjEEPjEEjT0_S5_S5_S5_S5_T_
         W _ZNSt3__17__sort5IRNS_6__lessIllEEPlEEjT0_S5_S5_S5_S5_T_
         W _ZNSt3__17__sort5IRNS_6__lessImmEEPmEEjT0_S5_S5_S5_S5_T_
         W _ZNSt3__17__sort5IRNS_6__lessIssEEPsEEjT0_S5_S5_S5_S5_T_
         W _ZNSt3__17__sort5IRNS_6__lessIttEEPtEEjT0_S5_S5_S5_S5_T_
         W _ZNSt3__17__sort5IRNS_6__lessIwwEEPwEEjT0_S5_S5_S5_S5_T_
         W _ZNSt3__17__sort5IRNS_6__lessIxxEEPxEEjT0_S5_S5_S5_S5_T_
         W _ZNSt3__17__sort5IRNS_6__lessIyyEEPyEEjT0_S5_S5_S5_S5_T_
         T _ZNSt3__17promiseIvE10get_futureEv
         T _ZNSt3__17promiseIvE13set_exceptionESt13exception_ptr
         T _ZNSt3__17promiseIvE24set_value_at_thread_exitEv
         T _ZNSt3__17promiseIvE28set_exception_at_thread_exitESt13exception_ptr
         T _ZNSt3__17promiseIvE9set_valueEv
         T _ZNSt3__17promiseIvEC1Ev
         T _ZNSt3__17promiseIvEC2Ev
         T _ZNSt3__17promiseIvED1Ev
         T _ZNSt3__17promiseIvED2Ev
         T _ZNSt3__18__c_node5__addEPNS_8__i_nodeE
         T _ZNSt3__18__c_node8__removeEPNS_8__i_nodeE
         T _ZNSt3__18__c_nodeD0Ev
         T _ZNSt3__18__c_nodeD1Ev
         T _ZNSt3__18__c_nodeD2Ev
         T _ZNSt3__18__get_dbEv
         T _ZNSt3__18__i_nodeD1Ev
         T _ZNSt3__18__i_nodeD2Ev
         T _ZNSt3__18__rs_getEv
         T _ZNSt3__18__sp_mut4lockEv
         T _ZNSt3__18__sp_mut6unlockEv
         W _ZNSt3__18valarrayIjE6resizeEjj
         W _ZNSt3__18valarrayIjEC1Ej
         W _ZNSt3__18valarrayIjEC2Ej
         W _ZNSt3__18valarrayIjED1Ev
         W _ZNSt3__18valarrayIjED2Ev
         T _ZNSt3__19to_stringEd
         T _ZNSt3__19to_stringEe
         T _ZNSt3__19to_stringEf
         T _ZNSt3__19to_stringEi
         T _ZNSt3__19to_stringEj
         T _ZNSt3__19to_stringEl
         T _ZNSt3__19to_stringEm
         T _ZNSt3__19to_stringEx
         T _ZNSt3__19to_stringEy
         d _ZNSt3__1L12mut_back_impE
         d _ZNSt3__1L2cvE
         d _ZNSt3__1L3mutE
         d _ZNSt3__1L8__rs_mutE
         W _ZNSt3__1plIcNS_11char_traitsIcEENS_9allocatorIcEEEENS_12basic_stringIT_T0_T1_EEPKS6_RKS9_
         W _ZNSt3__1plIcNS_11char_traitsIcEENS_9allocatorIcEEEENS_12basic_stringIT_T0_T1_EERKS9_PKS6_
         U _ZNSt9bad_allocC1Ev
         U _ZNSt9bad_allocD1Ev
         U _ZNSt9exceptionD2Ev
         T _ZSt17current_exceptionv
         T _ZSt17rethrow_exceptionSt13exception_ptr
         W _ZSt18make_exception_ptrINSt3__112future_errorEESt13exception_ptrT_
         U _ZSt9terminatev
         D _ZTINSt3__111regex_errorE
         D _ZTINSt3__112__do_messageE
         D _ZTINSt3__112bad_weak_ptrE
         D _ZTINSt3__112future_errorE
         D _ZTINSt3__112system_errorE
         D _ZTINSt3__114__shared_countE
         D _ZTINSt3__114error_categoryE
         D _ZTINSt3__117__assoc_sub_stateE
         D _ZTINSt3__119__shared_weak_countE
         D _ZTINSt3__123__future_error_categoryE
         D _ZTINSt3__123__system_error_categoryE
         D _ZTINSt3__124__generic_error_categoryE
         D _ZTINSt3__18__c_nodeE
         U _ZTISt11logic_error
         U _ZTISt12length_error
         U _ZTISt12out_of_range
         U _ZTISt13runtime_error
         U _ZTISt14overflow_error
         U _ZTISt16invalid_argument
         D _ZTISt16nested_exception
         U _ZTISt9bad_alloc
         U _ZTISt9exception
         D _ZTSNSt3__111regex_errorE
         D _ZTSNSt3__112__do_messageE
         D _ZTSNSt3__112bad_weak_ptrE
         D _ZTSNSt3__112future_errorE
         D _ZTSNSt3__112system_errorE
         D _ZTSNSt3__114__shared_countE
         D _ZTSNSt3__114error_categoryE
         D _ZTSNSt3__117__assoc_sub_stateE
         D _ZTSNSt3__119__shared_weak_countE
         D _ZTSNSt3__123__future_error_categoryE
         D _ZTSNSt3__123__system_error_categoryE
         D _ZTSNSt3__124__generic_error_categoryE
         D _ZTSNSt3__18__c_nodeE
         D _ZTSSt16nested_exception
         U _ZTVN10__cxxabiv117__class_type_infoE
         U _ZTVN10__cxxabiv120__si_class_type_infoE
         U _ZTVN10__cxxabiv121__vmi_class_type_infoE
         D _ZTVNSt3__111regex_errorE
         D _ZTVNSt3__112__do_messageE
         D _ZTVNSt3__112bad_weak_ptrE
         D _ZTVNSt3__112future_errorE
         D _ZTVNSt3__112system_errorE
         D _ZTVNSt3__114__shared_countE
         D _ZTVNSt3__114error_categoryE
         D _ZTVNSt3__117__assoc_sub_stateE
         D _ZTVNSt3__119__shared_weak_countE
         D _ZTVNSt3__123__future_error_categoryE
         D _ZTVNSt3__123__system_error_categoryE
         D _ZTVNSt3__124__generic_error_categoryE
         D _ZTVNSt3__18__c_nodeE
         U _ZTVSt11logic_error
         U _ZTVSt12length_error
         U _ZTVSt12out_of_range
         U _ZTVSt13runtime_error
         U _ZTVSt14overflow_error
         U _ZTVSt16invalid_argument
         D _ZTVSt16nested_exception
         d _ZZNSt3__112_GLOBAL__N_13mutEvE1m
         d _ZZNSt3__112__get_sp_mutEPKvE4muts
         d _ZZNSt3__112__rs_defaultclEvE6__rs_g
         d _ZZNSt3__115future_categoryEvE3__f
         d _ZZNSt3__115system_categoryEvE1s
         d _ZZNSt3__116generic_categoryEvE1s
         d _ZZNSt3__119__thread_local_dataEvE3__p
         d _ZZNSt3__18__get_dbEvE2db
         U _ZdlPv
         U _Znwj
         U __assert_fail
         W __clang_call_terminate
         U __cxa_allocate_exception
         U __cxa_atexit
         U __cxa_begin_catch
         U __cxa_current_primary_exception
         U __cxa_decrement_exception_refcount
         U __cxa_end_catch
         U __cxa_free_exception
         U __cxa_guard_abort
         U __cxa_guard_acquire
         U __cxa_guard_release
         U __cxa_increment_exception_refcount
         U __cxa_pure_virtual
         U __cxa_rethrow
         U __cxa_rethrow_primary_exception
         U __cxa_throw
         U __dso_handle
         U __errno_location
         U __gxx_personality_v0
         U abort
         U calloc
         U clock_gettime
         U close
         U free
         U gettimeofday
         U malloc
         U memchr
         U memcmp
         U nanosleep
         U open
         U pthread_cond_broadcast
         U pthread_cond_destroy
         U pthread_cond_signal
         U pthread_cond_timedwait
         U pthread_cond_wait
         U pthread_detach
         U pthread_getspecific
         U pthread_join
         U pthread_key_create
         U pthread_key_delete
         U pthread_mutex_destroy
         U pthread_mutex_init
         U pthread_mutex_lock
         U pthread_mutex_trylock
         U pthread_mutex_unlock
         U pthread_mutexattr_destroy
         U pthread_mutexattr_init
         U pthread_mutexattr_settype
         U pthread_self
         U puts
         U read
         U sched_yield
         U snprintf
         U strcmp
         U strerror
         U strlen
         U strtod
         U strtof
         U strtol
         U strtold
         U strtoll
         U strtoul
         U strtoull
         U swprintf
         U sysconf
         U wcslen
         U wcstod
         U wcstof
         U wcstol
         U wcstold
         U wcstoll
         U wcstoul
         U wcstoull
         U wmemchr
         U wmemcmp
         U wmemcpy
         U wmemmove
         U wmemset
