         T _ZNKSt16nested_exception14rethrow_nestedEv
         T _ZNKSt3__110__time_put8__do_putEPcRS1_PK2tmcc
         T _ZNKSt3__110__time_put8__do_putEPwRS1_PK2tmcc
         T _ZNKSt3__110error_code7messageEv
         W _ZNKSt3__110moneypunctIcLb0EE10neg_formatEv
         W _ZNKSt3__110moneypunctIcLb0EE10pos_formatEv
         W _ZNKSt3__110moneypunctIcLb0EE11curr_symbolEv
         W _ZNKSt3__110moneypunctIcLb0EE11do_groupingEv
         W _ZNKSt3__110moneypunctIcLb0EE11frac_digitsEv
         W _ZNKSt3__110moneypunctIcLb0EE13decimal_pointEv
         W _ZNKSt3__110moneypunctIcLb0EE13do_neg_formatEv
         W _ZNKSt3__110moneypunctIcLb0EE13do_pos_formatEv
         W _ZNKSt3__110moneypunctIcLb0EE13negative_signEv
         W _ZNKSt3__110moneypunctIcLb0EE13positive_signEv
         W _ZNKSt3__110moneypunctIcLb0EE13thousands_sepEv
         W _ZNKSt3__110moneypunctIcLb0EE14do_curr_symbolEv
         W _ZNKSt3__110moneypunctIcLb0EE14do_frac_digitsEv
         W _ZNKSt3__110moneypunctIcLb0EE16do_decimal_pointEv
         W _ZNKSt3__110moneypunctIcLb0EE16do_negative_signEv
         W _ZNKSt3__110moneypunctIcLb0EE16do_positive_signEv
         W _ZNKSt3__110moneypunctIcLb0EE16do_thousands_sepEv
         W _ZNKSt3__110moneypunctIcLb0EE8groupingEv
         W _ZNKSt3__110moneypunctIcLb1EE10neg_formatEv
         W _ZNKSt3__110moneypunctIcLb1EE10pos_formatEv
         W _ZNKSt3__110moneypunctIcLb1EE11curr_symbolEv
         W _ZNKSt3__110moneypunctIcLb1EE11do_groupingEv
         W _ZNKSt3__110moneypunctIcLb1EE11frac_digitsEv
         W _ZNKSt3__110moneypunctIcLb1EE13decimal_pointEv
         W _ZNKSt3__110moneypunctIcLb1EE13do_neg_formatEv
         W _ZNKSt3__110moneypunctIcLb1EE13do_pos_formatEv
         W _ZNKSt3__110moneypunctIcLb1EE13negative_signEv
         W _ZNKSt3__110moneypunctIcLb1EE13positive_signEv
         W _ZNKSt3__110moneypunctIcLb1EE13thousands_sepEv
         W _ZNKSt3__110moneypunctIcLb1EE14do_curr_symbolEv
         W _ZNKSt3__110moneypunctIcLb1EE14do_frac_digitsEv
         W _ZNKSt3__110moneypunctIcLb1EE16do_decimal_pointEv
         W _ZNKSt3__110moneypunctIcLb1EE16do_negative_signEv
         W _ZNKSt3__110moneypunctIcLb1EE16do_positive_signEv
         W _ZNKSt3__110moneypunctIcLb1EE16do_thousands_sepEv
         W _ZNKSt3__110moneypunctIcLb1EE8groupingEv
         W _ZNKSt3__110moneypunctIwLb0EE10neg_formatEv
         W _ZNKSt3__110moneypunctIwLb0EE10pos_formatEv
         W _ZNKSt3__110moneypunctIwLb0EE11curr_symbolEv
         W _ZNKSt3__110moneypunctIwLb0EE11do_groupingEv
         W _ZNKSt3__110moneypunctIwLb0EE11frac_digitsEv
         W _ZNKSt3__110moneypunctIwLb0EE13decimal_pointEv
         W _ZNKSt3__110moneypunctIwLb0EE13do_neg_formatEv
         W _ZNKSt3__110moneypunctIwLb0EE13do_pos_formatEv
         W _ZNKSt3__110moneypunctIwLb0EE13negative_signEv
         W _ZNKSt3__110moneypunctIwLb0EE13positive_signEv
         W _ZNKSt3__110moneypunctIwLb0EE13thousands_sepEv
         W _ZNKSt3__110moneypunctIwLb0EE14do_curr_symbolEv
         W _ZNKSt3__110moneypunctIwLb0EE14do_frac_digitsEv
         W _ZNKSt3__110moneypunctIwLb0EE16do_decimal_pointEv
         W _ZNKSt3__110moneypunctIwLb0EE16do_negative_signEv
         W _ZNKSt3__110moneypunctIwLb0EE16do_positive_signEv
         W _ZNKSt3__110moneypunctIwLb0EE16do_thousands_sepEv
         W _ZNKSt3__110moneypunctIwLb0EE8groupingEv
         W _ZNKSt3__110moneypunctIwLb1EE10neg_formatEv
         W _ZNKSt3__110moneypunctIwLb1EE10pos_formatEv
         W _ZNKSt3__110moneypunctIwLb1EE11curr_symbolEv
         W _ZNKSt3__110moneypunctIwLb1EE11do_groupingEv
         W _ZNKSt3__110moneypunctIwLb1EE11frac_digitsEv
         W _ZNKSt3__110moneypunctIwLb1EE13decimal_pointEv
         W _ZNKSt3__110moneypunctIwLb1EE13do_neg_formatEv
         W _ZNKSt3__110moneypunctIwLb1EE13do_pos_formatEv
         W _ZNKSt3__110moneypunctIwLb1EE13negative_signEv
         W _ZNKSt3__110moneypunctIwLb1EE13positive_signEv
         W _ZNKSt3__110moneypunctIwLb1EE13thousands_sepEv
         W _ZNKSt3__110moneypunctIwLb1EE14do_curr_symbolEv
         W _ZNKSt3__110moneypunctIwLb1EE14do_frac_digitsEv
         W _ZNKSt3__110moneypunctIwLb1EE16do_decimal_pointEv
         W _ZNKSt3__110moneypunctIwLb1EE16do_negative_signEv
         W _ZNKSt3__110moneypunctIwLb1EE16do_positive_signEv
         W _ZNKSt3__110moneypunctIwLb1EE16do_thousands_sepEv
         W _ZNKSt3__110moneypunctIwLb1EE8groupingEv
         T _ZNKSt3__111__libcpp_db15__decrementableEPKv
         T _ZNKSt3__111__libcpp_db15__find_c_from_iEPv
         T _ZNKSt3__111__libcpp_db15__find_iteratorEPKv
         T _ZNKSt3__111__libcpp_db15__subscriptableEPKvi
         T _ZNKSt3__111__libcpp_db17__dereferenceableEPKv
         T _ZNKSt3__111__libcpp_db17__find_c_and_lockEPv
         T _ZNKSt3__111__libcpp_db22__less_than_comparableEPKvS2_
         T _ZNKSt3__111__libcpp_db6unlockEv
         T _ZNKSt3__111__libcpp_db8__find_cEPv
         T _ZNKSt3__111__libcpp_db9__addableEPKvi
         T _ZNKSt3__112__do_message7messageEi
         T _ZNKSt3__112bad_weak_ptr4whatEv
         W _ZNKSt3__112basic_stringIcNS_11char_traitsIcEENS_9allocatorIcEEE12__invariantsEv
         W _ZNKSt3__112basic_stringIcNS_11char_traitsIcEENS_9allocatorIcEEE12find_last_ofEPKcj
         W _ZNKSt3__112basic_stringIcNS_11char_traitsIcEENS_9allocatorIcEEE12find_last_ofEPKcjj
         W _ZNKSt3__112basic_stringIcNS_11char_traitsIcEENS_9allocatorIcEEE12find_last_ofERKS5_j
         W _ZNKSt3__112basic_stringIcNS_11char_traitsIcEENS_9allocatorIcEEE12find_last_ofEcj
         W _ZNKSt3__112basic_stringIcNS_11char_traitsIcEENS_9allocatorIcEEE13__get_pointerEv
         W _ZNKSt3__112basic_stringIcNS_11char_traitsIcEENS_9allocatorIcEEE13find_first_ofEPKcj
         W _ZNKSt3__112basic_stringIcNS_11char_traitsIcEENS_9allocatorIcEEE13find_first_ofEPKcjj
         W _ZNKSt3__112basic_stringIcNS_11char_traitsIcEENS_9allocatorIcEEE13find_first_ofERKS5_j
         W _ZNKSt3__112basic_stringIcNS_11char_traitsIcEENS_9allocatorIcEEE13find_first_ofEcj
         W _ZNKSt3__112basic_stringIcNS_11char_traitsIcEENS_9allocatorIcEEE13get_allocatorEv
         W _ZNKSt3__112basic_stringIcNS_11char_traitsIcEENS_9allocatorIcEEE14__get_long_capEv
         W _ZNKSt3__112basic_stringIcNS_11char_traitsIcEENS_9allocatorIcEEE15__get_long_sizeEv
         W _ZNKSt3__112basic_stringIcNS_11char_traitsIcEENS_9allocatorIcEEE16__get_short_sizeEv
         W _ZNKSt3__112basic_stringIcNS_11char_traitsIcEENS_9allocatorIcEEE16find_last_not_ofEPKcj
         W _ZNKSt3__112basic_stringIcNS_11char_traitsIcEENS_9allocatorIcEEE16find_last_not_ofEPKcjj
         W _ZNKSt3__112basic_stringIcNS_11char_traitsIcEENS_9allocatorIcEEE16find_last_not_ofERKS5_j
         W _ZNKSt3__112basic_stringIcNS_11char_traitsIcEENS_9allocatorIcEEE16find_last_not_ofEcj
         W _ZNKSt3__112basic_stringIcNS_11char_traitsIcEENS_9allocatorIcEEE17find_first_not_ofEPKcj
         W _ZNKSt3__112basic_stringIcNS_11char_traitsIcEENS_9allocatorIcEEE17find_first_not_ofEPKcjj
         W _ZNKSt3__112basic_stringIcNS_11char_traitsIcEENS_9allocatorIcEEE17find_first_not_ofERKS5_j
         W _ZNKSt3__112basic_stringIcNS_11char_traitsIcEENS_9allocatorIcEEE17find_first_not_ofEcj
         W _ZNKSt3__112basic_stringIcNS_11char_traitsIcEENS_9allocatorIcEEE18__get_long_pointerEv
         W _ZNKSt3__112basic_stringIcNS_11char_traitsIcEENS_9allocatorIcEEE19__get_short_pointerEv
         W _ZNKSt3__112basic_stringIcNS_11char_traitsIcEENS_9allocatorIcEEE2atEj
         W _ZNKSt3__112basic_stringIcNS_11char_traitsIcEENS_9allocatorIcEEE3endEv
         W _ZNKSt3__112basic_stringIcNS_11char_traitsIcEENS_9allocatorIcEEE4backEv
         W _ZNKSt3__112basic_stringIcNS_11char_traitsIcEENS_9allocatorIcEEE4cendEv
         W _ZNKSt3__112basic_stringIcNS_11char_traitsIcEENS_9allocatorIcEEE4copyEPcjj
         W _ZNKSt3__112basic_stringIcNS_11char_traitsIcEENS_9allocatorIcEEE4dataEv
         W _ZNKSt3__112basic_stringIcNS_11char_traitsIcEENS_9allocatorIcEEE4findEPKcj
         W _ZNKSt3__112basic_stringIcNS_11char_traitsIcEENS_9allocatorIcEEE4findEPKcjj
         W _ZNKSt3__112basic_stringIcNS_11char_traitsIcEENS_9allocatorIcEEE4findERKS5_j
         W _ZNKSt3__112basic_stringIcNS_11char_traitsIcEENS_9allocatorIcEEE4findEcj
         W _ZNKSt3__112basic_stringIcNS_11char_traitsIcEENS_9allocatorIcEEE4rendEv
         W _ZNKSt3__112basic_stringIcNS_11char_traitsIcEENS_9allocatorIcEEE4sizeEv
         W _ZNKSt3__112basic_stringIcNS_11char_traitsIcEENS_9allocatorIcEEE5beginEv
         W _ZNKSt3__112basic_stringIcNS_11char_traitsIcEENS_9allocatorIcEEE5c_strEv
         W _ZNKSt3__112basic_stringIcNS_11char_traitsIcEENS_9allocatorIcEEE5crendEv
         W _ZNKSt3__112basic_stringIcNS_11char_traitsIcEENS_9allocatorIcEEE5emptyEv
         W _ZNKSt3__112basic_stringIcNS_11char_traitsIcEENS_9allocatorIcEEE5frontEv
         W _ZNKSt3__112basic_stringIcNS_11char_traitsIcEENS_9allocatorIcEEE5rfindEPKcj
         W _ZNKSt3__112basic_stringIcNS_11char_traitsIcEENS_9allocatorIcEEE5rfindEPKcjj
         W _ZNKSt3__112basic_stringIcNS_11char_traitsIcEENS_9allocatorIcEEE5rfindERKS5_j
         W _ZNKSt3__112basic_stringIcNS_11char_traitsIcEENS_9allocatorIcEEE5rfindEcj
         W _ZNKSt3__112basic_stringIcNS_11char_traitsIcEENS_9allocatorIcEEE6cbeginEv
         W _ZNKSt3__112basic_stringIcNS_11char_traitsIcEENS_9allocatorIcEEE6lengthEv
         W _ZNKSt3__112basic_stringIcNS_11char_traitsIcEENS_9allocatorIcEEE6rbeginEv
         W _ZNKSt3__112basic_stringIcNS_11char_traitsIcEENS_9allocatorIcEEE6substrEjj
         W _ZNKSt3__112basic_stringIcNS_11char_traitsIcEENS_9allocatorIcEEE7__allocEv
         W _ZNKSt3__112basic_stringIcNS_11char_traitsIcEENS_9allocatorIcEEE7compareEPKc
         W _ZNKSt3__112basic_stringIcNS_11char_traitsIcEENS_9allocatorIcEEE7compareERKS5_
         W _ZNKSt3__112basic_stringIcNS_11char_traitsIcEENS_9allocatorIcEEE7compareEjjPKc
         W _ZNKSt3__112basic_stringIcNS_11char_traitsIcEENS_9allocatorIcEEE7compareEjjPKcj
         W _ZNKSt3__112basic_stringIcNS_11char_traitsIcEENS_9allocatorIcEEE7compareEjjRKS5_
         W _ZNKSt3__112basic_stringIcNS_11char_traitsIcEENS_9allocatorIcEEE7compareEjjRKS5_jj
         W _ZNKSt3__112basic_stringIcNS_11char_traitsIcEENS_9allocatorIcEEE7crbeginEv
         W _ZNKSt3__112basic_stringIcNS_11char_traitsIcEENS_9allocatorIcEEE8capacityEv
         W _ZNKSt3__112basic_stringIcNS_11char_traitsIcEENS_9allocatorIcEEE8max_sizeEv
         W _ZNKSt3__112basic_stringIcNS_11char_traitsIcEENS_9allocatorIcEEE9__is_longEv
         W _ZNKSt3__112basic_stringIcNS_11char_traitsIcEENS_9allocatorIcEEEixEj
         W _ZNKSt3__112basic_stringIwNS_11char_traitsIwEENS_9allocatorIwEEE12__invariantsEv
         W _ZNKSt3__112basic_stringIwNS_11char_traitsIwEENS_9allocatorIwEEE12find_last_ofEPKwj
         W _ZNKSt3__112basic_stringIwNS_11char_traitsIwEENS_9allocatorIwEEE12find_last_ofEPKwjj
         W _ZNKSt3__112basic_stringIwNS_11char_traitsIwEENS_9allocatorIwEEE12find_last_ofERKS5_j
         W _ZNKSt3__112basic_stringIwNS_11char_traitsIwEENS_9allocatorIwEEE12find_last_ofEwj
         W _ZNKSt3__112basic_stringIwNS_11char_traitsIwEENS_9allocatorIwEEE13__get_pointerEv
         W _ZNKSt3__112basic_stringIwNS_11char_traitsIwEENS_9allocatorIwEEE13find_first_ofEPKwj
         W _ZNKSt3__112basic_stringIwNS_11char_traitsIwEENS_9allocatorIwEEE13find_first_ofEPKwjj
         W _ZNKSt3__112basic_stringIwNS_11char_traitsIwEENS_9allocatorIwEEE13find_first_ofERKS5_j
         W _ZNKSt3__112basic_stringIwNS_11char_traitsIwEENS_9allocatorIwEEE13find_first_ofEwj
         W _ZNKSt3__112basic_stringIwNS_11char_traitsIwEENS_9allocatorIwEEE13get_allocatorEv
         W _ZNKSt3__112basic_stringIwNS_11char_traitsIwEENS_9allocatorIwEEE14__get_long_capEv
         W _ZNKSt3__112basic_stringIwNS_11char_traitsIwEENS_9allocatorIwEEE15__get_long_sizeEv
         W _ZNKSt3__112basic_stringIwNS_11char_traitsIwEENS_9allocatorIwEEE16__get_short_sizeEv
         W _ZNKSt3__112basic_stringIwNS_11char_traitsIwEENS_9allocatorIwEEE16find_last_not_ofEPKwj
         W _ZNKSt3__112basic_stringIwNS_11char_traitsIwEENS_9allocatorIwEEE16find_last_not_ofEPKwjj
         W _ZNKSt3__112basic_stringIwNS_11char_traitsIwEENS_9allocatorIwEEE16find_last_not_ofERKS5_j
         W _ZNKSt3__112basic_stringIwNS_11char_traitsIwEENS_9allocatorIwEEE16find_last_not_ofEwj
         W _ZNKSt3__112basic_stringIwNS_11char_traitsIwEENS_9allocatorIwEEE17find_first_not_ofEPKwj
         W _ZNKSt3__112basic_stringIwNS_11char_traitsIwEENS_9allocatorIwEEE17find_first_not_ofEPKwjj
         W _ZNKSt3__112basic_stringIwNS_11char_traitsIwEENS_9allocatorIwEEE17find_first_not_ofERKS5_j
         W _ZNKSt3__112basic_stringIwNS_11char_traitsIwEENS_9allocatorIwEEE17find_first_not_ofEwj
         W _ZNKSt3__112basic_stringIwNS_11char_traitsIwEENS_9allocatorIwEEE18__get_long_pointerEv
         W _ZNKSt3__112basic_stringIwNS_11char_traitsIwEENS_9allocatorIwEEE19__get_short_pointerEv
         W _ZNKSt3__112basic_stringIwNS_11char_traitsIwEENS_9allocatorIwEEE2atEj
         W _ZNKSt3__112basic_stringIwNS_11char_traitsIwEENS_9allocatorIwEEE3endEv
         W _ZNKSt3__112basic_stringIwNS_11char_traitsIwEENS_9allocatorIwEEE4backEv
         W _ZNKSt3__112basic_stringIwNS_11char_traitsIwEENS_9allocatorIwEEE4cendEv
         W _ZNKSt3__112basic_stringIwNS_11char_traitsIwEENS_9allocatorIwEEE4copyEPwjj
         W _ZNKSt3__112basic_stringIwNS_11char_traitsIwEENS_9allocatorIwEEE4dataEv
         W _ZNKSt3__112basic_stringIwNS_11char_traitsIwEENS_9allocatorIwEEE4findEPKwj
         W _ZNKSt3__112basic_stringIwNS_11char_traitsIwEENS_9allocatorIwEEE4findEPKwjj
         W _ZNKSt3__112basic_stringIwNS_11char_traitsIwEENS_9allocatorIwEEE4findERKS5_j
         W _ZNKSt3__112basic_stringIwNS_11char_traitsIwEENS_9allocatorIwEEE4findEwj
         W _ZNKSt3__112basic_stringIwNS_11char_traitsIwEENS_9allocatorIwEEE4rendEv
         W _ZNKSt3__112basic_stringIwNS_11char_traitsIwEENS_9allocatorIwEEE4sizeEv
         W _ZNKSt3__112basic_stringIwNS_11char_traitsIwEENS_9allocatorIwEEE5beginEv
         W _ZNKSt3__112basic_stringIwNS_11char_traitsIwEENS_9allocatorIwEEE5c_strEv
         W _ZNKSt3__112basic_stringIwNS_11char_traitsIwEENS_9allocatorIwEEE5crendEv
         W _ZNKSt3__112basic_stringIwNS_11char_traitsIwEENS_9allocatorIwEEE5emptyEv
         W _ZNKSt3__112basic_stringIwNS_11char_traitsIwEENS_9allocatorIwEEE5frontEv
         W _ZNKSt3__112basic_stringIwNS_11char_traitsIwEENS_9allocatorIwEEE5rfindEPKwj
         W _ZNKSt3__112basic_stringIwNS_11char_traitsIwEENS_9allocatorIwEEE5rfindEPKwjj
         W _ZNKSt3__112basic_stringIwNS_11char_traitsIwEENS_9allocatorIwEEE5rfindERKS5_j
         W _ZNKSt3__112basic_stringIwNS_11char_traitsIwEENS_9allocatorIwEEE5rfindEwj
         W _ZNKSt3__112basic_stringIwNS_11char_traitsIwEENS_9allocatorIwEEE6cbeginEv
         W _ZNKSt3__112basic_stringIwNS_11char_traitsIwEENS_9allocatorIwEEE6lengthEv
         W _ZNKSt3__112basic_stringIwNS_11char_traitsIwEENS_9allocatorIwEEE6rbeginEv
         W _ZNKSt3__112basic_stringIwNS_11char_traitsIwEENS_9allocatorIwEEE6substrEjj
         W _ZNKSt3__112basic_stringIwNS_11char_traitsIwEENS_9allocatorIwEEE7__allocEv
         W _ZNKSt3__112basic_stringIwNS_11char_traitsIwEENS_9allocatorIwEEE7compareEPKw
         W _ZNKSt3__112basic_stringIwNS_11char_traitsIwEENS_9allocatorIwEEE7compareERKS5_
         W _ZNKSt3__112basic_stringIwNS_11char_traitsIwEENS_9allocatorIwEEE7compareEjjPKw
         W _ZNKSt3__112basic_stringIwNS_11char_traitsIwEENS_9allocatorIwEEE7compareEjjPKwj
         W _ZNKSt3__112basic_stringIwNS_11char_traitsIwEENS_9allocatorIwEEE7compareEjjRKS5_
         W _ZNKSt3__112basic_stringIwNS_11char_traitsIwEENS_9allocatorIwEEE7compareEjjRKS5_jj
         W _ZNKSt3__112basic_stringIwNS_11char_traitsIwEENS_9allocatorIwEEE7crbeginEv
         W _ZNKSt3__112basic_stringIwNS_11char_traitsIwEENS_9allocatorIwEEE8capacityEv
         W _ZNKSt3__112basic_stringIwNS_11char_traitsIwEENS_9allocatorIwEEE8max_sizeEv
         W _ZNKSt3__112basic_stringIwNS_11char_traitsIwEENS_9allocatorIwEEE9__is_longEv
         W _ZNKSt3__112basic_stringIwNS_11char_traitsIwEENS_9allocatorIwEEEixEj
         T _ZNKSt3__112ctype_bynameIcE10do_tolowerEPcPKc
         T _ZNKSt3__112ctype_bynameIcE10do_tolowerEc
         T _ZNKSt3__112ctype_bynameIcE10do_toupperEPcPKc
         T _ZNKSt3__112ctype_bynameIcE10do_toupperEc
         T _ZNKSt3__112ctype_bynameIwE10do_scan_isEtPKwS3_
         T _ZNKSt3__112ctype_bynameIwE10do_tolowerEPwPKw
         T _ZNKSt3__112ctype_bynameIwE10do_tolowerEw
         T _ZNKSt3__112ctype_bynameIwE10do_toupperEPwPKw
         T _ZNKSt3__112ctype_bynameIwE10do_toupperEw
         T _ZNKSt3__112ctype_bynameIwE11do_scan_notEtPKwS3_
         T _ZNKSt3__112ctype_bynameIwE5do_isEPKwS3_Pt
         T _ZNKSt3__112ctype_bynameIwE5do_isEtw
         T _ZNKSt3__112ctype_bynameIwE8do_widenEPKcS3_Pw
         T _ZNKSt3__112ctype_bynameIwE8do_widenEc
         T _ZNKSt3__112ctype_bynameIwE9do_narrowEPKwS3_cPc
         T _ZNKSt3__112ctype_bynameIwE9do_narrowEwc
         T _ZNKSt3__112strstreambuf6pcountEv
         W _ZNKSt3__113basic_istreamIcNS_11char_traitsIcEEE6gcountEv
         W _ZNKSt3__113basic_istreamIcNS_11char_traitsIcEEE6sentrycvbEv
         W _ZNKSt3__113basic_istreamIwNS_11char_traitsIwEEE6gcountEv
         W _ZNKSt3__113basic_istreamIwNS_11char_traitsIwEEE6sentrycvbEv
         W _ZNKSt3__113basic_ostreamIcNS_11char_traitsIcEEE6sentrycvbEv
         W _ZNKSt3__113basic_ostreamIwNS_11char_traitsIwEEE6sentrycvbEv
         T _ZNKSt3__113random_device7entropyEv
         T _ZNKSt3__114__codecvt_utf8IDiE10do_unshiftER11__mbstate_tPcS4_RS4_
         T _ZNKSt3__114__codecvt_utf8IDiE11do_encodingEv
         T _ZNKSt3__114__codecvt_utf8IDiE13do_max_lengthEv
         T _ZNKSt3__114__codecvt_utf8IDiE16do_always_noconvEv
         T _ZNKSt3__114__codecvt_utf8IDiE5do_inER11__mbstate_tPKcS5_RS5_PDiS7_RS7_
         T _ZNKSt3__114__codecvt_utf8IDiE6do_outER11__mbstate_tPKDiS5_RS5_PcS7_RS7_
         T _ZNKSt3__114__codecvt_utf8IDiE9do_lengthER11__mbstate_tPKcS5_j
         T _ZNKSt3__114__codecvt_utf8IDsE10do_unshiftER11__mbstate_tPcS4_RS4_
         T _ZNKSt3__114__codecvt_utf8IDsE11do_encodingEv
         T _ZNKSt3__114__codecvt_utf8IDsE13do_max_lengthEv
         T _ZNKSt3__114__codecvt_utf8IDsE16do_always_noconvEv
         T _ZNKSt3__114__codecvt_utf8IDsE5do_inER11__mbstate_tPKcS5_RS5_PDsS7_RS7_
         T _ZNKSt3__114__codecvt_utf8IDsE6do_outER11__mbstate_tPKDsS5_RS5_PcS7_RS7_
         T _ZNKSt3__114__codecvt_utf8IDsE9do_lengthER11__mbstate_tPKcS5_j
         T _ZNKSt3__114__codecvt_utf8IwE10do_unshiftER11__mbstate_tPcS4_RS4_
         T _ZNKSt3__114__codecvt_utf8IwE11do_encodingEv
         T _ZNKSt3__114__codecvt_utf8IwE13do_max_lengthEv
         T _ZNKSt3__114__codecvt_utf8IwE16do_always_noconvEv
         T _ZNKSt3__114__codecvt_utf8IwE5do_inER11__mbstate_tPKcS5_RS5_PwS7_RS7_
         T _ZNKSt3__114__codecvt_utf8IwE6do_outER11__mbstate_tPKwS5_RS5_PcS7_RS7_
         T _ZNKSt3__114__codecvt_utf8IwE9do_lengthER11__mbstate_tPKcS5_j
         T _ZNKSt3__114collate_bynameIcE10do_compareEPKcS3_S3_S3_
         T _ZNKSt3__114collate_bynameIcE12do_transformEPKcS3_
         T _ZNKSt3__114collate_bynameIwE10do_compareEPKwS3_S3_S3_
         T _ZNKSt3__114collate_bynameIwE12do_transformEPKwS3_
         T _ZNKSt3__114error_category10equivalentERKNS_10error_codeEi
         T _ZNKSt3__114error_category10equivalentEiRKNS_15error_conditionE
         T _ZNKSt3__114error_category23default_error_conditionEi
         T _ZNKSt3__115__codecvt_utf16IDiLb0EE10do_unshiftER11__mbstate_tPcS4_RS4_
         T _ZNKSt3__115__codecvt_utf16IDiLb0EE11do_encodingEv
         T _ZNKSt3__115__codecvt_utf16IDiLb0EE13do_max_lengthEv
         T _ZNKSt3__115__codecvt_utf16IDiLb0EE16do_always_noconvEv
         T _ZNKSt3__115__codecvt_utf16IDiLb0EE5do_inER11__mbstate_tPKcS5_RS5_PDiS7_RS7_
         T _ZNKSt3__115__codecvt_utf16IDiLb0EE6do_outER11__mbstate_tPKDiS5_RS5_PcS7_RS7_
         T _ZNKSt3__115__codecvt_utf16IDiLb0EE9do_lengthER11__mbstate_tPKcS5_j
         T _ZNKSt3__115__codecvt_utf16IDiLb1EE10do_unshiftER11__mbstate_tPcS4_RS4_
         T _ZNKSt3__115__codecvt_utf16IDiLb1EE11do_encodingEv
         T _ZNKSt3__115__codecvt_utf16IDiLb1EE13do_max_lengthEv
         T _ZNKSt3__115__codecvt_utf16IDiLb1EE16do_always_noconvEv
         T _ZNKSt3__115__codecvt_utf16IDiLb1EE5do_inER11__mbstate_tPKcS5_RS5_PDiS7_RS7_
         T _ZNKSt3__115__codecvt_utf16IDiLb1EE6do_outER11__mbstate_tPKDiS5_RS5_PcS7_RS7_
         T _ZNKSt3__115__codecvt_utf16IDiLb1EE9do_lengthER11__mbstate_tPKcS5_j
         T _ZNKSt3__115__codecvt_utf16IDsLb0EE10do_unshiftER11__mbstate_tPcS4_RS4_
         T _ZNKSt3__115__codecvt_utf16IDsLb0EE11do_encodingEv
         T _ZNKSt3__115__codecvt_utf16IDsLb0EE13do_max_lengthEv
         T _ZNKSt3__115__codecvt_utf16IDsLb0EE16do_always_noconvEv
         T _ZNKSt3__115__codecvt_utf16IDsLb0EE5do_inER11__mbstate_tPKcS5_RS5_PDsS7_RS7_
         T _ZNKSt3__115__codecvt_utf16IDsLb0EE6do_outER11__mbstate_tPKDsS5_RS5_PcS7_RS7_
         T _ZNKSt3__115__codecvt_utf16IDsLb0EE9do_lengthER11__mbstate_tPKcS5_j
         T _ZNKSt3__115__codecvt_utf16IDsLb1EE10do_unshiftER11__mbstate_tPcS4_RS4_
         T _ZNKSt3__115__codecvt_utf16IDsLb1EE11do_encodingEv
         T _ZNKSt3__115__codecvt_utf16IDsLb1EE13do_max_lengthEv
         T _ZNKSt3__115__codecvt_utf16IDsLb1EE16do_always_noconvEv
         T _ZNKSt3__115__codecvt_utf16IDsLb1EE5do_inER11__mbstate_tPKcS5_RS5_PDsS7_RS7_
         T _ZNKSt3__115__codecvt_utf16IDsLb1EE6do_outER11__mbstate_tPKDsS5_RS5_PcS7_RS7_
         T _ZNKSt3__115__codecvt_utf16IDsLb1EE9do_lengthER11__mbstate_tPKcS5_j
         T _ZNKSt3__115__codecvt_utf16IwLb0EE10do_unshiftER11__mbstate_tPcS4_RS4_
         T _ZNKSt3__115__codecvt_utf16IwLb0EE11do_encodingEv
         T _ZNKSt3__115__codecvt_utf16IwLb0EE13do_max_lengthEv
         T _ZNKSt3__115__codecvt_utf16IwLb0EE16do_always_noconvEv
         T _ZNKSt3__115__codecvt_utf16IwLb0EE5do_inER11__mbstate_tPKcS5_RS5_PwS7_RS7_
         T _ZNKSt3__115__codecvt_utf16IwLb0EE6do_outER11__mbstate_tPKwS5_RS5_PcS7_RS7_
         T _ZNKSt3__115__codecvt_utf16IwLb0EE9do_lengthER11__mbstate_tPKcS5_j
         T _ZNKSt3__115__codecvt_utf16IwLb1EE10do_unshiftER11__mbstate_tPcS4_RS4_
         T _ZNKSt3__115__codecvt_utf16IwLb1EE11do_encodingEv
         T _ZNKSt3__115__codecvt_utf16IwLb1EE13do_max_lengthEv
         T _ZNKSt3__115__codecvt_utf16IwLb1EE16do_always_noconvEv
         T _ZNKSt3__115__codecvt_utf16IwLb1EE5do_inER11__mbstate_tPKcS5_RS5_PwS7_RS7_
         T _ZNKSt3__115__codecvt_utf16IwLb1EE6do_outER11__mbstate_tPKwS5_RS5_PcS7_RS7_
         T _ZNKSt3__115__codecvt_utf16IwLb1EE9do_lengthER11__mbstate_tPKcS5_j
         W _ZNKSt3__115basic_streambufIcNS_11char_traitsIcEEE4gptrEv
         W _ZNKSt3__115basic_streambufIcNS_11char_traitsIcEEE4pptrEv
         W _ZNKSt3__115basic_streambufIcNS_11char_traitsIcEEE5ebackEv
         W _ZNKSt3__115basic_streambufIcNS_11char_traitsIcEEE5egptrEv
         W _ZNKSt3__115basic_streambufIcNS_11char_traitsIcEEE5epptrEv
         W _ZNKSt3__115basic_streambufIcNS_11char_traitsIcEEE5pbaseEv
         W _ZNKSt3__115basic_streambufIcNS_11char_traitsIcEEE6getlocEv
         W _ZNKSt3__115basic_streambufIwNS_11char_traitsIwEEE4gptrEv
         W _ZNKSt3__115basic_streambufIwNS_11char_traitsIwEEE4pptrEv
         W _ZNKSt3__115basic_streambufIwNS_11char_traitsIwEEE5ebackEv
         W _ZNKSt3__115basic_streambufIwNS_11char_traitsIwEEE5egptrEv
         W _ZNKSt3__115basic_streambufIwNS_11char_traitsIwEEE5epptrEv
         W _ZNKSt3__115basic_streambufIwNS_11char_traitsIwEEE5pbaseEv
         W _ZNKSt3__115basic_streambufIwNS_11char_traitsIwEEE6getlocEv
         T _ZNKSt3__115error_condition7messageEv
         W _ZNKSt3__115time_get_bynameIcNS_19istreambuf_iteratorIcNS_11char_traitsIcEEEEE13do_date_orderEv
         W _ZNKSt3__115time_get_bynameIcNS_19istreambuf_iteratorIcNS_11char_traitsIcEEEEE3__XEv
         W _ZNKSt3__115time_get_bynameIcNS_19istreambuf_iteratorIcNS_11char_traitsIcEEEEE3__cEv
         W _ZNKSt3__115time_get_bynameIcNS_19istreambuf_iteratorIcNS_11char_traitsIcEEEEE3__rEv
         W _ZNKSt3__115time_get_bynameIcNS_19istreambuf_iteratorIcNS_11char_traitsIcEEEEE3__xEv
         W _ZNKSt3__115time_get_bynameIcNS_19istreambuf_iteratorIcNS_11char_traitsIcEEEEE7__am_pmEv
         W _ZNKSt3__115time_get_bynameIcNS_19istreambuf_iteratorIcNS_11char_traitsIcEEEEE7__weeksEv
         W _ZNKSt3__115time_get_bynameIcNS_19istreambuf_iteratorIcNS_11char_traitsIcEEEEE8__monthsEv
         W _ZNKSt3__115time_get_bynameIwNS_19istreambuf_iteratorIwNS_11char_traitsIwEEEEE13do_date_orderEv
         W _ZNKSt3__115time_get_bynameIwNS_19istreambuf_iteratorIwNS_11char_traitsIwEEEEE3__XEv
         W _ZNKSt3__115time_get_bynameIwNS_19istreambuf_iteratorIwNS_11char_traitsIwEEEEE3__cEv
         W _ZNKSt3__115time_get_bynameIwNS_19istreambuf_iteratorIwNS_11char_traitsIwEEEEE3__rEv
         W _ZNKSt3__115time_get_bynameIwNS_19istreambuf_iteratorIwNS_11char_traitsIwEEEEE3__xEv
         W _ZNKSt3__115time_get_bynameIwNS_19istreambuf_iteratorIwNS_11char_traitsIwEEEEE7__am_pmEv
         W _ZNKSt3__115time_get_bynameIwNS_19istreambuf_iteratorIwNS_11char_traitsIwEEEEE7__weeksEv
         W _ZNKSt3__115time_get_bynameIwNS_19istreambuf_iteratorIwNS_11char_traitsIwEEEEE8__monthsEv
         W _ZNKSt3__117moneypunct_bynameIcLb0EE11do_groupingEv
         W _ZNKSt3__117moneypunct_bynameIcLb0EE13do_neg_formatEv
         W _ZNKSt3__117moneypunct_bynameIcLb0EE13do_pos_formatEv
         W _ZNKSt3__117moneypunct_bynameIcLb0EE14do_curr_symbolEv
         W _ZNKSt3__117moneypunct_bynameIcLb0EE14do_frac_digitsEv
         W _ZNKSt3__117moneypunct_bynameIcLb0EE16do_decimal_pointEv
         W _ZNKSt3__117moneypunct_bynameIcLb0EE16do_negative_signEv
         W _ZNKSt3__117moneypunct_bynameIcLb0EE16do_positive_signEv
         W _ZNKSt3__117moneypunct_bynameIcLb0EE16do_thousands_sepEv
         W _ZNKSt3__117moneypunct_bynameIcLb1EE11do_groupingEv
         W _ZNKSt3__117moneypunct_bynameIcLb1EE13do_neg_formatEv
         W _ZNKSt3__117moneypunct_bynameIcLb1EE13do_pos_formatEv
         W _ZNKSt3__117moneypunct_bynameIcLb1EE14do_curr_symbolEv
         W _ZNKSt3__117moneypunct_bynameIcLb1EE14do_frac_digitsEv
         W _ZNKSt3__117moneypunct_bynameIcLb1EE16do_decimal_pointEv
         W _ZNKSt3__117moneypunct_bynameIcLb1EE16do_negative_signEv
         W _ZNKSt3__117moneypunct_bynameIcLb1EE16do_positive_signEv
         W _ZNKSt3__117moneypunct_bynameIcLb1EE16do_thousands_sepEv
         W _ZNKSt3__117moneypunct_bynameIwLb0EE11do_groupingEv
         W _ZNKSt3__117moneypunct_bynameIwLb0EE13do_neg_formatEv
         W _ZNKSt3__117moneypunct_bynameIwLb0EE13do_pos_formatEv
         W _ZNKSt3__117moneypunct_bynameIwLb0EE14do_curr_symbolEv
         W _ZNKSt3__117moneypunct_bynameIwLb0EE14do_frac_digitsEv
         W _ZNKSt3__117moneypunct_bynameIwLb0EE16do_decimal_pointEv
         W _ZNKSt3__117moneypunct_bynameIwLb0EE16do_negative_signEv
         W _ZNKSt3__117moneypunct_bynameIwLb0EE16do_positive_signEv
         W _ZNKSt3__117moneypunct_bynameIwLb0EE16do_thousands_sepEv
         W _ZNKSt3__117moneypunct_bynameIwLb1EE11do_groupingEv
         W _ZNKSt3__117moneypunct_bynameIwLb1EE13do_neg_formatEv
         W _ZNKSt3__117moneypunct_bynameIwLb1EE13do_pos_formatEv
         W _ZNKSt3__117moneypunct_bynameIwLb1EE14do_curr_symbolEv
         W _ZNKSt3__117moneypunct_bynameIwLb1EE14do_frac_digitsEv
         W _ZNKSt3__117moneypunct_bynameIwLb1EE16do_decimal_pointEv
         W _ZNKSt3__117moneypunct_bynameIwLb1EE16do_negative_signEv
         W _ZNKSt3__117moneypunct_bynameIwLb1EE16do_positive_signEv
         W _ZNKSt3__117moneypunct_bynameIwLb1EE16do_thousands_sepEv
         T _ZNKSt3__118__time_get_storageIcE15__do_date_orderEv
         T _ZNKSt3__118__time_get_storageIwE15__do_date_orderEv
         T _ZNKSt3__119__iostream_category4nameEv
         T _ZNKSt3__119__iostream_category7messageEi
         T _ZNKSt3__119__shared_weak_count13__get_deleterERKSt9type_info
         T _ZNKSt3__120__codecvt_utf8_utf16IDiE10do_unshiftER11__mbstate_tPcS4_RS4_
         T _ZNKSt3__120__codecvt_utf8_utf16IDiE11do_encodingEv
         T _ZNKSt3__120__codecvt_utf8_utf16IDiE13do_max_lengthEv
         T _ZNKSt3__120__codecvt_utf8_utf16IDiE16do_always_noconvEv
         T _ZNKSt3__120__codecvt_utf8_utf16IDiE5do_inER11__mbstate_tPKcS5_RS5_PDiS7_RS7_
         T _ZNKSt3__120__codecvt_utf8_utf16IDiE6do_outER11__mbstate_tPKDiS5_RS5_PcS7_RS7_
         T _ZNKSt3__120__codecvt_utf8_utf16IDiE9do_lengthER11__mbstate_tPKcS5_j
         T _ZNKSt3__120__codecvt_utf8_utf16IDsE10do_unshiftER11__mbstate_tPcS4_RS4_
         T _ZNKSt3__120__codecvt_utf8_utf16IDsE11do_encodingEv
         T _ZNKSt3__120__codecvt_utf8_utf16IDsE13do_max_lengthEv
         T _ZNKSt3__120__codecvt_utf8_utf16IDsE16do_always_noconvEv
         T _ZNKSt3__120__codecvt_utf8_utf16IDsE5do_inER11__mbstate_tPKcS5_RS5_PDsS7_RS7_
         T _ZNKSt3__120__codecvt_utf8_utf16IDsE6do_outER11__mbstate_tPKDsS5_RS5_PcS7_RS7_
         T _ZNKSt3__120__codecvt_utf8_utf16IDsE9do_lengthER11__mbstate_tPKcS5_j
         T _ZNKSt3__120__codecvt_utf8_utf16IwE10do_unshiftER11__mbstate_tPcS4_RS4_
         T _ZNKSt3__120__codecvt_utf8_utf16IwE11do_encodingEv
         T _ZNKSt3__120__codecvt_utf8_utf16IwE13do_max_lengthEv
         T _ZNKSt3__120__codecvt_utf8_utf16IwE16do_always_noconvEv
         T _ZNKSt3__120__codecvt_utf8_utf16IwE5do_inER11__mbstate_tPKcS5_RS5_PwS7_RS7_
         T _ZNKSt3__120__codecvt_utf8_utf16IwE6do_outER11__mbstate_tPKwS5_RS5_PcS7_RS7_
         T _ZNKSt3__120__codecvt_utf8_utf16IwE9do_lengthER11__mbstate_tPKcS5_j
         T _ZNKSt3__120__time_get_c_storageIcE3__XEv
         T _ZNKSt3__120__time_get_c_storageIcE3__cEv
         T _ZNKSt3__120__time_get_c_storageIcE3__rEv
         T _ZNKSt3__120__time_get_c_storageIcE3__xEv
         T _ZNKSt3__120__time_get_c_storageIcE7__am_pmEv
         T _ZNKSt3__120__time_get_c_storageIcE7__weeksEv
         T _ZNKSt3__120__time_get_c_storageIcE8__monthsEv
         T _ZNKSt3__120__time_get_c_storageIwE3__XEv
         T _ZNKSt3__120__time_get_c_storageIwE3__cEv
         T _ZNKSt3__120__time_get_c_storageIwE3__rEv
         T _ZNKSt3__120__time_get_c_storageIwE3__xEv
         T _ZNKSt3__120__time_get_c_storageIwE7__am_pmEv
         T _ZNKSt3__120__time_get_c_storageIwE7__weeksEv
         T _ZNKSt3__120__time_get_c_storageIwE8__monthsEv
         W _ZNKSt3__120__vector_base_commonILb1EE20__throw_length_errorEv
         W _ZNKSt3__120__vector_base_commonILb1EE20__throw_out_of_rangeEv
         W _ZNKSt3__121__basic_string_commonILb1EE20__throw_length_errorEv
         W _ZNKSt3__121__basic_string_commonILb1EE20__throw_out_of_rangeEv
         T _ZNKSt3__123__future_error_category4nameEv
         T _ZNKSt3__123__future_error_category7messageEi
         T _ZNKSt3__123__match_any_but_newlineIcE6__execERNS_7__stateIcEE
         T _ZNKSt3__123__match_any_but_newlineIwE6__execERNS_7__stateIwEE
         T _ZNKSt3__123__system_error_category23default_error_conditionEi
         T _ZNKSt3__123__system_error_category4nameEv
         T _ZNKSt3__123__system_error_category7messageEi
         T _ZNKSt3__124__generic_error_category4nameEv
         T _ZNKSt3__124__generic_error_category7messageEi
         T _ZNKSt3__15ctypeIcE10do_tolowerEPcPKc
         T _ZNKSt3__15ctypeIcE10do_tolowerEc
         T _ZNKSt3__15ctypeIcE10do_toupperEPcPKc
         T _ZNKSt3__15ctypeIcE10do_toupperEc
         T _ZNKSt3__15ctypeIcE8do_widenEPKcS3_Pc
         T _ZNKSt3__15ctypeIcE8do_widenEc
         T _ZNKSt3__15ctypeIcE9do_narrowEPKcS3_cPc
         T _ZNKSt3__15ctypeIcE9do_narrowEcc
         T _ZNKSt3__15ctypeIwE10do_scan_isEtPKwS3_
         T _ZNKSt3__15ctypeIwE10do_tolowerEPwPKw
         T _ZNKSt3__15ctypeIwE10do_tolowerEw
         T _ZNKSt3__15ctypeIwE10do_toupperEPwPKw
         T _ZNKSt3__15ctypeIwE10do_toupperEw
         T _ZNKSt3__15ctypeIwE11do_scan_notEtPKwS3_
         T _ZNKSt3__15ctypeIwE5do_isEPKwS3_Pt
         T _ZNKSt3__15ctypeIwE5do_isEtw
         T _ZNKSt3__15ctypeIwE8do_widenEPKcS3_Pw
         T _ZNKSt3__15ctypeIwE8do_widenEc
         T _ZNKSt3__15ctypeIwE9do_narrowEPKwS3_cPc
         T _ZNKSt3__15ctypeIwE9do_narrowEwc
         T _ZNKSt3__16locale4nameEv
         C _ZNKSt3__16locale5__imp9has_facetEl
         T _ZNKSt3__16locale5__imp9use_facetEl
         T _ZNKSt3__16locale9has_facetERNS0_2idE
         T _ZNKSt3__16locale9use_facetERNS0_2idE
         T _ZNKSt3__16localeeqERKS0_
         T _ZNKSt3__17codecvtIDic11__mbstate_tE10do_unshiftERS1_PcS4_RS4_
         T _ZNKSt3__17codecvtIDic11__mbstate_tE11do_encodingEv
         T _ZNKSt3__17codecvtIDic11__mbstate_tE13do_max_lengthEv
         T _ZNKSt3__17codecvtIDic11__mbstate_tE16do_always_noconvEv
         T _ZNKSt3__17codecvtIDic11__mbstate_tE5do_inERS1_PKcS5_RS5_PDiS7_RS7_
         T _ZNKSt3__17codecvtIDic11__mbstate_tE6do_outERS1_PKDiS5_RS5_PcS7_RS7_
         T _ZNKSt3__17codecvtIDic11__mbstate_tE9do_lengthERS1_PKcS5_j
         T _ZNKSt3__17codecvtIDsc11__mbstate_tE10do_unshiftERS1_PcS4_RS4_
         T _ZNKSt3__17codecvtIDsc11__mbstate_tE11do_encodingEv
         T _ZNKSt3__17codecvtIDsc11__mbstate_tE13do_max_lengthEv
         T _ZNKSt3__17codecvtIDsc11__mbstate_tE16do_always_noconvEv
         T _ZNKSt3__17codecvtIDsc11__mbstate_tE5do_inERS1_PKcS5_RS5_PDsS7_RS7_
         T _ZNKSt3__17codecvtIDsc11__mbstate_tE6do_outERS1_PKDsS5_RS5_PcS7_RS7_
         T _ZNKSt3__17codecvtIDsc11__mbstate_tE9do_lengthERS1_PKcS5_j
         T _ZNKSt3__17codecvtIcc11__mbstate_tE10do_unshiftERS1_PcS4_RS4_
         T _ZNKSt3__17codecvtIcc11__mbstate_tE11do_encodingEv
         T _ZNKSt3__17codecvtIcc11__mbstate_tE13do_max_lengthEv
         T _ZNKSt3__17codecvtIcc11__mbstate_tE16do_always_noconvEv
         T _ZNKSt3__17codecvtIcc11__mbstate_tE5do_inERS1_PKcS5_RS5_PcS7_RS7_
         T _ZNKSt3__17codecvtIcc11__mbstate_tE6do_outERS1_PKcS5_RS5_PcS7_RS7_
         T _ZNKSt3__17codecvtIcc11__mbstate_tE9do_lengthERS1_PKcS5_j
         T _ZNKSt3__17codecvtIwc11__mbstate_tE10do_unshiftERS1_PcS4_RS4_
         T _ZNKSt3__17codecvtIwc11__mbstate_tE11do_encodingEv
         T _ZNKSt3__17codecvtIwc11__mbstate_tE13do_max_lengthEv
         T _ZNKSt3__17codecvtIwc11__mbstate_tE16do_always_noconvEv
         T _ZNKSt3__17codecvtIwc11__mbstate_tE5do_inERS1_PKcS5_RS5_PwS7_RS7_
         T _ZNKSt3__17codecvtIwc11__mbstate_tE6do_outERS1_PKwS5_RS5_PcS7_RS7_
         T _ZNKSt3__17codecvtIwc11__mbstate_tE9do_lengthERS1_PKcS5_j
         W _ZNKSt3__17collateIcE10do_compareEPKcS3_S3_S3_
         W _ZNKSt3__17collateIcE12do_transformEPKcS3_
         W _ZNKSt3__17collateIcE4hashEPKcS3_
         W _ZNKSt3__17collateIcE7compareEPKcS3_S3_S3_
         W _ZNKSt3__17collateIcE7do_hashEPKcS3_
         W _ZNKSt3__17collateIcE9transformEPKcS3_
         W _ZNKSt3__17collateIwE10do_compareEPKwS3_S3_S3_
         W _ZNKSt3__17collateIwE12do_transformEPKwS3_
         W _ZNKSt3__17collateIwE4hashEPKwS3_
         W _ZNKSt3__17collateIwE7compareEPKwS3_S3_S3_
         W _ZNKSt3__17collateIwE7do_hashEPKwS3_
         W _ZNKSt3__17collateIwE9transformEPKwS3_
         C _ZNKSt3__17num_getIcNS_19istreambuf_iteratorIcNS_11char_traitsIcEEEEE15__do_get_signedIlEES4_S4_S4_RNS_8ios_baseERjRT_
         C _ZNKSt3__17num_getIcNS_19istreambuf_iteratorIcNS_11char_traitsIcEEEEE15__do_get_signedIxEES4_S4_S4_RNS_8ios_baseERjRT_
         C _ZNKSt3__17num_getIcNS_19istreambuf_iteratorIcNS_11char_traitsIcEEEEE17__do_get_unsignedIjEES4_S4_S4_RNS_8ios_baseERjRT_
         C _ZNKSt3__17num_getIcNS_19istreambuf_iteratorIcNS_11char_traitsIcEEEEE17__do_get_unsignedImEES4_S4_S4_RNS_8ios_baseERjRT_
         C _ZNKSt3__17num_getIcNS_19istreambuf_iteratorIcNS_11char_traitsIcEEEEE17__do_get_unsignedItEES4_S4_S4_RNS_8ios_baseERjRT_
         C _ZNKSt3__17num_getIcNS_19istreambuf_iteratorIcNS_11char_traitsIcEEEEE17__do_get_unsignedIyEES4_S4_S4_RNS_8ios_baseERjRT_
         C _ZNKSt3__17num_getIcNS_19istreambuf_iteratorIcNS_11char_traitsIcEEEEE23__do_get_floating_pointIdEES4_S4_S4_RNS_8ios_baseERjRT_
         C _ZNKSt3__17num_getIcNS_19istreambuf_iteratorIcNS_11char_traitsIcEEEEE23__do_get_floating_pointIeEES4_S4_S4_RNS_8ios_baseERjRT_
         C _ZNKSt3__17num_getIcNS_19istreambuf_iteratorIcNS_11char_traitsIcEEEEE23__do_get_floating_pointIfEES4_S4_S4_RNS_8ios_baseERjRT_
         W _ZNKSt3__17num_getIcNS_19istreambuf_iteratorIcNS_11char_traitsIcEEEEE3getES4_S4_RNS_8ios_baseERjRPv
         W _ZNKSt3__17num_getIcNS_19istreambuf_iteratorIcNS_11char_traitsIcEEEEE3getES4_S4_RNS_8ios_baseERjRb
         W _ZNKSt3__17num_getIcNS_19istreambuf_iteratorIcNS_11char_traitsIcEEEEE3getES4_S4_RNS_8ios_baseERjRd
         W _ZNKSt3__17num_getIcNS_19istreambuf_iteratorIcNS_11char_traitsIcEEEEE3getES4_S4_RNS_8ios_baseERjRe
         W _ZNKSt3__17num_getIcNS_19istreambuf_iteratorIcNS_11char_traitsIcEEEEE3getES4_S4_RNS_8ios_baseERjRf
         W _ZNKSt3__17num_getIcNS_19istreambuf_iteratorIcNS_11char_traitsIcEEEEE3getES4_S4_RNS_8ios_baseERjRl
         W _ZNKSt3__17num_getIcNS_19istreambuf_iteratorIcNS_11char_traitsIcEEEEE3getES4_S4_RNS_8ios_baseERjRm
         W _ZNKSt3__17num_getIcNS_19istreambuf_iteratorIcNS_11char_traitsIcEEEEE3getES4_S4_RNS_8ios_baseERjRt
         W _ZNKSt3__17num_getIcNS_19istreambuf_iteratorIcNS_11char_traitsIcEEEEE3getES4_S4_RNS_8ios_baseERjRx
         W _ZNKSt3__17num_getIcNS_19istreambuf_iteratorIcNS_11char_traitsIcEEEEE3getES4_S4_RNS_8ios_baseERjRy
         W _ZNKSt3__17num_getIcNS_19istreambuf_iteratorIcNS_11char_traitsIcEEEEE3getES4_S4_RNS_8ios_baseERjS8_
         W _ZNKSt3__17num_getIcNS_19istreambuf_iteratorIcNS_11char_traitsIcEEEEE6do_getES4_S4_RNS_8ios_baseERjRPv
         W _ZNKSt3__17num_getIcNS_19istreambuf_iteratorIcNS_11char_traitsIcEEEEE6do_getES4_S4_RNS_8ios_baseERjRb
         W _ZNKSt3__17num_getIcNS_19istreambuf_iteratorIcNS_11char_traitsIcEEEEE6do_getES4_S4_RNS_8ios_baseERjRd
         W _ZNKSt3__17num_getIcNS_19istreambuf_iteratorIcNS_11char_traitsIcEEEEE6do_getES4_S4_RNS_8ios_baseERjRe
         W _ZNKSt3__17num_getIcNS_19istreambuf_iteratorIcNS_11char_traitsIcEEEEE6do_getES4_S4_RNS_8ios_baseERjRf
         W _ZNKSt3__17num_getIcNS_19istreambuf_iteratorIcNS_11char_traitsIcEEEEE6do_getES4_S4_RNS_8ios_baseERjRl
         W _ZNKSt3__17num_getIcNS_19istreambuf_iteratorIcNS_11char_traitsIcEEEEE6do_getES4_S4_RNS_8ios_baseERjRm
         W _ZNKSt3__17num_getIcNS_19istreambuf_iteratorIcNS_11char_traitsIcEEEEE6do_getES4_S4_RNS_8ios_baseERjRt
         W _ZNKSt3__17num_getIcNS_19istreambuf_iteratorIcNS_11char_traitsIcEEEEE6do_getES4_S4_RNS_8ios_baseERjRx
         W _ZNKSt3__17num_getIcNS_19istreambuf_iteratorIcNS_11char_traitsIcEEEEE6do_getES4_S4_RNS_8ios_baseERjRy
         W _ZNKSt3__17num_getIcNS_19istreambuf_iteratorIcNS_11char_traitsIcEEEEE6do_getES4_S4_RNS_8ios_baseERjS8_
         C _ZNKSt3__17num_getIwNS_19istreambuf_iteratorIwNS_11char_traitsIwEEEEE15__do_get_signedIlEES4_S4_S4_RNS_8ios_baseERjRT_
         C _ZNKSt3__17num_getIwNS_19istreambuf_iteratorIwNS_11char_traitsIwEEEEE15__do_get_signedIxEES4_S4_S4_RNS_8ios_baseERjRT_
         C _ZNKSt3__17num_getIwNS_19istreambuf_iteratorIwNS_11char_traitsIwEEEEE17__do_get_unsignedIjEES4_S4_S4_RNS_8ios_baseERjRT_
         C _ZNKSt3__17num_getIwNS_19istreambuf_iteratorIwNS_11char_traitsIwEEEEE17__do_get_unsignedImEES4_S4_S4_RNS_8ios_baseERjRT_
         C _ZNKSt3__17num_getIwNS_19istreambuf_iteratorIwNS_11char_traitsIwEEEEE17__do_get_unsignedItEES4_S4_S4_RNS_8ios_baseERjRT_
         C _ZNKSt3__17num_getIwNS_19istreambuf_iteratorIwNS_11char_traitsIwEEEEE17__do_get_unsignedIyEES4_S4_S4_RNS_8ios_baseERjRT_
         C _ZNKSt3__17num_getIwNS_19istreambuf_iteratorIwNS_11char_traitsIwEEEEE23__do_get_floating_pointIdEES4_S4_S4_RNS_8ios_baseERjRT_
         C _ZNKSt3__17num_getIwNS_19istreambuf_iteratorIwNS_11char_traitsIwEEEEE23__do_get_floating_pointIeEES4_S4_S4_RNS_8ios_baseERjRT_
         C _ZNKSt3__17num_getIwNS_19istreambuf_iteratorIwNS_11char_traitsIwEEEEE23__do_get_floating_pointIfEES4_S4_S4_RNS_8ios_baseERjRT_
         W _ZNKSt3__17num_getIwNS_19istreambuf_iteratorIwNS_11char_traitsIwEEEEE3getES4_S4_RNS_8ios_baseERjRPv
         W _ZNKSt3__17num_getIwNS_19istreambuf_iteratorIwNS_11char_traitsIwEEEEE3getES4_S4_RNS_8ios_baseERjRb
         W _ZNKSt3__17num_getIwNS_19istreambuf_iteratorIwNS_11char_traitsIwEEEEE3getES4_S4_RNS_8ios_baseERjRd
         W _ZNKSt3__17num_getIwNS_19istreambuf_iteratorIwNS_11char_traitsIwEEEEE3getES4_S4_RNS_8ios_baseERjRe
         W _ZNKSt3__17num_getIwNS_19istreambuf_iteratorIwNS_11char_traitsIwEEEEE3getES4_S4_RNS_8ios_baseERjRf
         W _ZNKSt3__17num_getIwNS_19istreambuf_iteratorIwNS_11char_traitsIwEEEEE3getES4_S4_RNS_8ios_baseERjRl
         W _ZNKSt3__17num_getIwNS_19istreambuf_iteratorIwNS_11char_traitsIwEEEEE3getES4_S4_RNS_8ios_baseERjRm
         W _ZNKSt3__17num_getIwNS_19istreambuf_iteratorIwNS_11char_traitsIwEEEEE3getES4_S4_RNS_8ios_baseERjRt
         W _ZNKSt3__17num_getIwNS_19istreambuf_iteratorIwNS_11char_traitsIwEEEEE3getES4_S4_RNS_8ios_baseERjRx
         W _ZNKSt3__17num_getIwNS_19istreambuf_iteratorIwNS_11char_traitsIwEEEEE3getES4_S4_RNS_8ios_baseERjRy
         W _ZNKSt3__17num_getIwNS_19istreambuf_iteratorIwNS_11char_traitsIwEEEEE3getES4_S4_RNS_8ios_baseERjS8_
         W _ZNKSt3__17num_getIwNS_19istreambuf_iteratorIwNS_11char_traitsIwEEEEE6do_getES4_S4_RNS_8ios_baseERjRPv
         W _ZNKSt3__17num_getIwNS_19istreambuf_iteratorIwNS_11char_traitsIwEEEEE6do_getES4_S4_RNS_8ios_baseERjRb
         W _ZNKSt3__17num_getIwNS_19istreambuf_iteratorIwNS_11char_traitsIwEEEEE6do_getES4_S4_RNS_8ios_baseERjRd
         W _ZNKSt3__17num_getIwNS_19istreambuf_iteratorIwNS_11char_traitsIwEEEEE6do_getES4_S4_RNS_8ios_baseERjRe
         W _ZNKSt3__17num_getIwNS_19istreambuf_iteratorIwNS_11char_traitsIwEEEEE6do_getES4_S4_RNS_8ios_baseERjRf
         W _ZNKSt3__17num_getIwNS_19istreambuf_iteratorIwNS_11char_traitsIwEEEEE6do_getES4_S4_RNS_8ios_baseERjRl
         W _ZNKSt3__17num_getIwNS_19istreambuf_iteratorIwNS_11char_traitsIwEEEEE6do_getES4_S4_RNS_8ios_baseERjRm
         W _ZNKSt3__17num_getIwNS_19istreambuf_iteratorIwNS_11char_traitsIwEEEEE6do_getES4_S4_RNS_8ios_baseERjRt
         W _ZNKSt3__17num_getIwNS_19istreambuf_iteratorIwNS_11char_traitsIwEEEEE6do_getES4_S4_RNS_8ios_baseERjRx
         W _ZNKSt3__17num_getIwNS_19istreambuf_iteratorIwNS_11char_traitsIwEEEEE6do_getES4_S4_RNS_8ios_baseERjRy
         W _ZNKSt3__17num_getIwNS_19istreambuf_iteratorIwNS_11char_traitsIwEEEEE6do_getES4_S4_RNS_8ios_baseERjS8_
         W _ZNKSt3__17num_putIcNS_19ostreambuf_iteratorIcNS_11char_traitsIcEEEEE3putES4_RNS_8ios_baseEcPKv
         W _ZNKSt3__17num_putIcNS_19ostreambuf_iteratorIcNS_11char_traitsIcEEEEE3putES4_RNS_8ios_baseEcb
         W _ZNKSt3__17num_putIcNS_19ostreambuf_iteratorIcNS_11char_traitsIcEEEEE3putES4_RNS_8ios_baseEcd
         W _ZNKSt3__17num_putIcNS_19ostreambuf_iteratorIcNS_11char_traitsIcEEEEE3putES4_RNS_8ios_baseEce
         W _ZNKSt3__17num_putIcNS_19ostreambuf_iteratorIcNS_11char_traitsIcEEEEE3putES4_RNS_8ios_baseEcl
         W _ZNKSt3__17num_putIcNS_19ostreambuf_iteratorIcNS_11char_traitsIcEEEEE3putES4_RNS_8ios_baseEcm
         W _ZNKSt3__17num_putIcNS_19ostreambuf_iteratorIcNS_11char_traitsIcEEEEE3putES4_RNS_8ios_baseEcx
         W _ZNKSt3__17num_putIcNS_19ostreambuf_iteratorIcNS_11char_traitsIcEEEEE3putES4_RNS_8ios_baseEcy
         W _ZNKSt3__17num_putIcNS_19ostreambuf_iteratorIcNS_11char_traitsIcEEEEE6do_putES4_RNS_8ios_baseEcPKv
         W _ZNKSt3__17num_putIcNS_19ostreambuf_iteratorIcNS_11char_traitsIcEEEEE6do_putES4_RNS_8ios_baseEcb
         W _ZNKSt3__17num_putIcNS_19ostreambuf_iteratorIcNS_11char_traitsIcEEEEE6do_putES4_RNS_8ios_baseEcd
         W _ZNKSt3__17num_putIcNS_19ostreambuf_iteratorIcNS_11char_traitsIcEEEEE6do_putES4_RNS_8ios_baseEce
         W _ZNKSt3__17num_putIcNS_19ostreambuf_iteratorIcNS_11char_traitsIcEEEEE6do_putES4_RNS_8ios_baseEcl
         W _ZNKSt3__17num_putIcNS_19ostreambuf_iteratorIcNS_11char_traitsIcEEEEE6do_putES4_RNS_8ios_baseEcm
         W _ZNKSt3__17num_putIcNS_19ostreambuf_iteratorIcNS_11char_traitsIcEEEEE6do_putES4_RNS_8ios_baseEcx
         W _ZNKSt3__17num_putIcNS_19ostreambuf_iteratorIcNS_11char_traitsIcEEEEE6do_putES4_RNS_8ios_baseEcy
         W _ZNKSt3__17num_putIwNS_19ostreambuf_iteratorIwNS_11char_traitsIwEEEEE3putES4_RNS_8ios_baseEwPKv
         W _ZNKSt3__17num_putIwNS_19ostreambuf_iteratorIwNS_11char_traitsIwEEEEE3putES4_RNS_8ios_baseEwb
         W _ZNKSt3__17num_putIwNS_19ostreambuf_iteratorIwNS_11char_traitsIwEEEEE3putES4_RNS_8ios_baseEwd
         W _ZNKSt3__17num_putIwNS_19ostreambuf_iteratorIwNS_11char_traitsIwEEEEE3putES4_RNS_8ios_baseEwe
         W _ZNKSt3__17num_putIwNS_19ostreambuf_iteratorIwNS_11char_traitsIwEEEEE3putES4_RNS_8ios_baseEwl
         W _ZNKSt3__17num_putIwNS_19ostreambuf_iteratorIwNS_11char_traitsIwEEEEE3putES4_RNS_8ios_baseEwm
         W _ZNKSt3__17num_putIwNS_19ostreambuf_iteratorIwNS_11char_traitsIwEEEEE3putES4_RNS_8ios_baseEwx
         W _ZNKSt3__17num_putIwNS_19ostreambuf_iteratorIwNS_11char_traitsIwEEEEE3putES4_RNS_8ios_baseEwy
         W _ZNKSt3__17num_putIwNS_19ostreambuf_iteratorIwNS_11char_traitsIwEEEEE6do_putES4_RNS_8ios_baseEwPKv
         W _ZNKSt3__17num_putIwNS_19ostreambuf_iteratorIwNS_11char_traitsIwEEEEE6do_putES4_RNS_8ios_baseEwb
         W _ZNKSt3__17num_putIwNS_19ostreambuf_iteratorIwNS_11char_traitsIwEEEEE6do_putES4_RNS_8ios_baseEwd
         W _ZNKSt3__17num_putIwNS_19ostreambuf_iteratorIwNS_11char_traitsIwEEEEE6do_putES4_RNS_8ios_baseEwe
         W _ZNKSt3__17num_putIwNS_19ostreambuf_iteratorIwNS_11char_traitsIwEEEEE6do_putES4_RNS_8ios_baseEwl
         W _ZNKSt3__17num_putIwNS_19ostreambuf_iteratorIwNS_11char_traitsIwEEEEE6do_putES4_RNS_8ios_baseEwm
         W _ZNKSt3__17num_putIwNS_19ostreambuf_iteratorIwNS_11char_traitsIwEEEEE6do_putES4_RNS_8ios_baseEwx
         W _ZNKSt3__17num_putIwNS_19ostreambuf_iteratorIwNS_11char_traitsIwEEEEE6do_putES4_RNS_8ios_baseEwy
         T _ZNKSt3__18ios_base6getlocEv
         W _ZNKSt3__18messagesIcE3getEiiiRKNS_12basic_stringIcNS_11char_traitsIcEENS_9allocatorIcEEEE
         W _ZNKSt3__18messagesIcE4openERKNS_12basic_stringIcNS_11char_traitsIcEENS_9allocatorIcEEEERKNS_6localeE
         W _ZNKSt3__18messagesIcE5closeEi
         W _ZNKSt3__18messagesIcE6do_getEiiiRKNS_12basic_stringIcNS_11char_traitsIcEENS_9allocatorIcEEEE
         W _ZNKSt3__18messagesIcE7do_openERKNS_12basic_stringIcNS_11char_traitsIcEENS_9allocatorIcEEEERKNS_6localeE
         W _ZNKSt3__18messagesIcE8do_closeEi
         W _ZNKSt3__18messagesIwE3getEiiiRKNS_12basic_stringIwNS_11char_traitsIwEENS_9allocatorIwEEEE
         W _ZNKSt3__18messagesIwE4openERKNS_12basic_stringIcNS_11char_traitsIcEENS_9allocatorIcEEEERKNS_6localeE
         W _ZNKSt3__18messagesIwE5closeEi
         W _ZNKSt3__18messagesIwE6do_getEiiiRKNS_12basic_stringIwNS_11char_traitsIwEENS_9allocatorIwEEEE
         W _ZNKSt3__18messagesIwE7do_openERKNS_12basic_stringIcNS_11char_traitsIcEENS_9allocatorIcEEEERKNS_6localeE
         W _ZNKSt3__18messagesIwE8do_closeEi
         T _ZNKSt3__18numpunctIcE11do_groupingEv
         T _ZNKSt3__18numpunctIcE11do_truenameEv
         T _ZNKSt3__18numpunctIcE12do_falsenameEv
         T _ZNKSt3__18numpunctIcE16do_decimal_pointEv
         T _ZNKSt3__18numpunctIcE16do_thousands_sepEv
         T _ZNKSt3__18numpunctIwE11do_groupingEv
         T _ZNKSt3__18numpunctIwE11do_truenameEv
         T _ZNKSt3__18numpunctIwE12do_falsenameEv
         T _ZNKSt3__18numpunctIwE16do_decimal_pointEv
         T _ZNKSt3__18numpunctIwE16do_thousands_sepEv
         W _ZNKSt3__18time_getIcNS_19istreambuf_iteratorIcNS_11char_traitsIcEEEEE10__get_hourERiRS4_S4_RjRKNS_5ctypeIcEE
         W _ZNKSt3__18time_getIcNS_19istreambuf_iteratorIcNS_11char_traitsIcEEEEE10__get_yearERiRS4_S4_RjRKNS_5ctypeIcEE
         W _ZNKSt3__18time_getIcNS_19istreambuf_iteratorIcNS_11char_traitsIcEEEEE10date_orderEv
         W _ZNKSt3__18time_getIcNS_19istreambuf_iteratorIcNS_11char_traitsIcEEEEE11__get_am_pmERiRS4_S4_RjRKNS_5ctypeIcEE
         W _ZNKSt3__18time_getIcNS_19istreambuf_iteratorIcNS_11char_traitsIcEEEEE11__get_monthERiRS4_S4_RjRKNS_5ctypeIcEE
         W _ZNKSt3__18time_getIcNS_19istreambuf_iteratorIcNS_11char_traitsIcEEEEE11__get_year4ERiRS4_S4_RjRKNS_5ctypeIcEE
         W _ZNKSt3__18time_getIcNS_19istreambuf_iteratorIcNS_11char_traitsIcEEEEE11do_get_dateES4_S4_RNS_8ios_baseERjP2tm
         W _ZNKSt3__18time_getIcNS_19istreambuf_iteratorIcNS_11char_traitsIcEEEEE11do_get_timeES4_S4_RNS_8ios_baseERjP2tm
         W _ZNKSt3__18time_getIcNS_19istreambuf_iteratorIcNS_11char_traitsIcEEEEE11do_get_yearES4_S4_RNS_8ios_baseERjP2tm
         W _ZNKSt3__18time_getIcNS_19istreambuf_iteratorIcNS_11char_traitsIcEEEEE11get_weekdayES4_S4_RNS_8ios_baseERjP2tm
         W _ZNKSt3__18time_getIcNS_19istreambuf_iteratorIcNS_11char_traitsIcEEEEE12__get_minuteERiRS4_S4_RjRKNS_5ctypeIcEE
         W _ZNKSt3__18time_getIcNS_19istreambuf_iteratorIcNS_11char_traitsIcEEEEE12__get_secondERiRS4_S4_RjRKNS_5ctypeIcEE
         W _ZNKSt3__18time_getIcNS_19istreambuf_iteratorIcNS_11char_traitsIcEEEEE13__get_12_hourERiRS4_S4_RjRKNS_5ctypeIcEE
         W _ZNKSt3__18time_getIcNS_19istreambuf_iteratorIcNS_11char_traitsIcEEEEE13__get_percentERS4_S4_RjRKNS_5ctypeIcEE
         W _ZNKSt3__18time_getIcNS_19istreambuf_iteratorIcNS_11char_traitsIcEEEEE13__get_weekdayERiRS4_S4_RjRKNS_5ctypeIcEE
         W _ZNKSt3__18time_getIcNS_19istreambuf_iteratorIcNS_11char_traitsIcEEEEE13do_date_orderEv
         W _ZNKSt3__18time_getIcNS_19istreambuf_iteratorIcNS_11char_traitsIcEEEEE13get_monthnameES4_S4_RNS_8ios_baseERjP2tm
         W _ZNKSt3__18time_getIcNS_19istreambuf_iteratorIcNS_11char_traitsIcEEEEE14do_get_weekdayES4_S4_RNS_8ios_baseERjP2tm
         W _ZNKSt3__18time_getIcNS_19istreambuf_iteratorIcNS_11char_traitsIcEEEEE15__get_monthnameERiRS4_S4_RjRKNS_5ctypeIcEE
         W _ZNKSt3__18time_getIcNS_19istreambuf_iteratorIcNS_11char_traitsIcEEEEE16do_get_monthnameES4_S4_RNS_8ios_baseERjP2tm
         W _ZNKSt3__18time_getIcNS_19istreambuf_iteratorIcNS_11char_traitsIcEEEEE17__get_weekdaynameERiRS4_S4_RjRKNS_5ctypeIcEE
         W _ZNKSt3__18time_getIcNS_19istreambuf_iteratorIcNS_11char_traitsIcEEEEE17__get_white_spaceERS4_S4_RjRKNS_5ctypeIcEE
         W _ZNKSt3__18time_getIcNS_19istreambuf_iteratorIcNS_11char_traitsIcEEEEE18__get_day_year_numERiRS4_S4_RjRKNS_5ctypeIcEE
         W _ZNKSt3__18time_getIcNS_19istreambuf_iteratorIcNS_11char_traitsIcEEEEE3getES4_S4_RNS_8ios_baseERjP2tmPKcSC_
         W _ZNKSt3__18time_getIcNS_19istreambuf_iteratorIcNS_11char_traitsIcEEEEE3getES4_S4_RNS_8ios_baseERjP2tmcc
         W _ZNKSt3__18time_getIcNS_19istreambuf_iteratorIcNS_11char_traitsIcEEEEE6do_getES4_S4_RNS_8ios_baseERjP2tmcc
         W _ZNKSt3__18time_getIcNS_19istreambuf_iteratorIcNS_11char_traitsIcEEEEE8get_dateES4_S4_RNS_8ios_baseERjP2tm
         W _ZNKSt3__18time_getIcNS_19istreambuf_iteratorIcNS_11char_traitsIcEEEEE8get_timeES4_S4_RNS_8ios_baseERjP2tm
         W _ZNKSt3__18time_getIcNS_19istreambuf_iteratorIcNS_11char_traitsIcEEEEE8get_yearES4_S4_RNS_8ios_baseERjP2tm
         W _ZNKSt3__18time_getIcNS_19istreambuf_iteratorIcNS_11char_traitsIcEEEEE9__get_dayERiRS4_S4_RjRKNS_5ctypeIcEE
         W _ZNKSt3__18time_getIwNS_19istreambuf_iteratorIwNS_11char_traitsIwEEEEE10__get_hourERiRS4_S4_RjRKNS_5ctypeIwEE
         W _ZNKSt3__18time_getIwNS_19istreambuf_iteratorIwNS_11char_traitsIwEEEEE10__get_yearERiRS4_S4_RjRKNS_5ctypeIwEE
         W _ZNKSt3__18time_getIwNS_19istreambuf_iteratorIwNS_11char_traitsIwEEEEE10date_orderEv
         W _ZNKSt3__18time_getIwNS_19istreambuf_iteratorIwNS_11char_traitsIwEEEEE11__get_am_pmERiRS4_S4_RjRKNS_5ctypeIwEE
         W _ZNKSt3__18time_getIwNS_19istreambuf_iteratorIwNS_11char_traitsIwEEEEE11__get_monthERiRS4_S4_RjRKNS_5ctypeIwEE
         W _ZNKSt3__18time_getIwNS_19istreambuf_iteratorIwNS_11char_traitsIwEEEEE11__get_year4ERiRS4_S4_RjRKNS_5ctypeIwEE
         W _ZNKSt3__18time_getIwNS_19istreambuf_iteratorIwNS_11char_traitsIwEEEEE11do_get_dateES4_S4_RNS_8ios_baseERjP2tm
         W _ZNKSt3__18time_getIwNS_19istreambuf_iteratorIwNS_11char_traitsIwEEEEE11do_get_timeES4_S4_RNS_8ios_baseERjP2tm
         W _ZNKSt3__18time_getIwNS_19istreambuf_iteratorIwNS_11char_traitsIwEEEEE11do_get_yearES4_S4_RNS_8ios_baseERjP2tm
         W _ZNKSt3__18time_getIwNS_19istreambuf_iteratorIwNS_11char_traitsIwEEEEE11get_weekdayES4_S4_RNS_8ios_baseERjP2tm
         W _ZNKSt3__18time_getIwNS_19istreambuf_iteratorIwNS_11char_traitsIwEEEEE12__get_minuteERiRS4_S4_RjRKNS_5ctypeIwEE
         W _ZNKSt3__18time_getIwNS_19istreambuf_iteratorIwNS_11char_traitsIwEEEEE12__get_secondERiRS4_S4_RjRKNS_5ctypeIwEE
         W _ZNKSt3__18time_getIwNS_19istreambuf_iteratorIwNS_11char_traitsIwEEEEE13__get_12_hourERiRS4_S4_RjRKNS_5ctypeIwEE
         W _ZNKSt3__18time_getIwNS_19istreambuf_iteratorIwNS_11char_traitsIwEEEEE13__get_percentERS4_S4_RjRKNS_5ctypeIwEE
         W _ZNKSt3__18time_getIwNS_19istreambuf_iteratorIwNS_11char_traitsIwEEEEE13__get_weekdayERiRS4_S4_RjRKNS_5ctypeIwEE
         W _ZNKSt3__18time_getIwNS_19istreambuf_iteratorIwNS_11char_traitsIwEEEEE13do_date_orderEv
         W _ZNKSt3__18time_getIwNS_19istreambuf_iteratorIwNS_11char_traitsIwEEEEE13get_monthnameES4_S4_RNS_8ios_baseERjP2tm
         W _ZNKSt3__18time_getIwNS_19istreambuf_iteratorIwNS_11char_traitsIwEEEEE14do_get_weekdayES4_S4_RNS_8ios_baseERjP2tm
         W _ZNKSt3__18time_getIwNS_19istreambuf_iteratorIwNS_11char_traitsIwEEEEE15__get_monthnameERiRS4_S4_RjRKNS_5ctypeIwEE
         W _ZNKSt3__18time_getIwNS_19istreambuf_iteratorIwNS_11char_traitsIwEEEEE16do_get_monthnameES4_S4_RNS_8ios_baseERjP2tm
         W _ZNKSt3__18time_getIwNS_19istreambuf_iteratorIwNS_11char_traitsIwEEEEE17__get_weekdaynameERiRS4_S4_RjRKNS_5ctypeIwEE
         W _ZNKSt3__18time_getIwNS_19istreambuf_iteratorIwNS_11char_traitsIwEEEEE17__get_white_spaceERS4_S4_RjRKNS_5ctypeIwEE
         W _ZNKSt3__18time_getIwNS_19istreambuf_iteratorIwNS_11char_traitsIwEEEEE18__get_day_year_numERiRS4_S4_RjRKNS_5ctypeIwEE
         W _ZNKSt3__18time_getIwNS_19istreambuf_iteratorIwNS_11char_traitsIwEEEEE3getES4_S4_RNS_8ios_baseERjP2tmPKwSC_
         W _ZNKSt3__18time_getIwNS_19istreambuf_iteratorIwNS_11char_traitsIwEEEEE3getES4_S4_RNS_8ios_baseERjP2tmcc
         W _ZNKSt3__18time_getIwNS_19istreambuf_iteratorIwNS_11char_traitsIwEEEEE6do_getES4_S4_RNS_8ios_baseERjP2tmcc
         W _ZNKSt3__18time_getIwNS_19istreambuf_iteratorIwNS_11char_traitsIwEEEEE8get_dateES4_S4_RNS_8ios_baseERjP2tm
         W _ZNKSt3__18time_getIwNS_19istreambuf_iteratorIwNS_11char_traitsIwEEEEE8get_timeES4_S4_RNS_8ios_baseERjP2tm
         W _ZNKSt3__18time_getIwNS_19istreambuf_iteratorIwNS_11char_traitsIwEEEEE8get_yearES4_S4_RNS_8ios_baseERjP2tm
         W _ZNKSt3__18time_getIwNS_19istreambuf_iteratorIwNS_11char_traitsIwEEEEE9__get_dayERiRS4_S4_RjRKNS_5ctypeIwEE
         W _ZNKSt3__18time_putIcNS_19ostreambuf_iteratorIcNS_11char_traitsIcEEEEE3putES4_RNS_8ios_baseEcPK2tmPKcSC_
         W _ZNKSt3__18time_putIcNS_19ostreambuf_iteratorIcNS_11char_traitsIcEEEEE3putES4_RNS_8ios_baseEcPK2tmcc
         W _ZNKSt3__18time_putIcNS_19ostreambuf_iteratorIcNS_11char_traitsIcEEEEE6do_putES4_RNS_8ios_baseEcPK2tmcc
         W _ZNKSt3__18time_putIwNS_19ostreambuf_iteratorIwNS_11char_traitsIwEEEEE3putES4_RNS_8ios_baseEwPK2tmPKwSC_
         W _ZNKSt3__18time_putIwNS_19ostreambuf_iteratorIwNS_11char_traitsIwEEEEE3putES4_RNS_8ios_baseEwPK2tmcc
         W _ZNKSt3__18time_putIwNS_19ostreambuf_iteratorIwNS_11char_traitsIwEEEEE6do_putES4_RNS_8ios_baseEwPK2tmcc
         W _ZNKSt3__19basic_iosIcNS_11char_traitsIcEEE10exceptionsEv
         W _ZNKSt3__19basic_iosIcNS_11char_traitsIcEEE3badEv
         W _ZNKSt3__19basic_iosIcNS_11char_traitsIcEEE3eofEv
         W _ZNKSt3__19basic_iosIcNS_11char_traitsIcEEE3tieEv
         W _ZNKSt3__19basic_iosIcNS_11char_traitsIcEEE4failEv
         W _ZNKSt3__19basic_iosIcNS_11char_traitsIcEEE4fillEv
         W _ZNKSt3__19basic_iosIcNS_11char_traitsIcEEE4goodEv
         W _ZNKSt3__19basic_iosIcNS_11char_traitsIcEEE5rdbufEv
         W _ZNKSt3__19basic_iosIcNS_11char_traitsIcEEE5widenEc
         W _ZNKSt3__19basic_iosIcNS_11char_traitsIcEEE6narrowEcc
         W _ZNKSt3__19basic_iosIcNS_11char_traitsIcEEE7rdstateEv
         W _ZNKSt3__19basic_iosIcNS_11char_traitsIcEEEcvbEv
         W _ZNKSt3__19basic_iosIcNS_11char_traitsIcEEEntEv
         W _ZNKSt3__19basic_iosIwNS_11char_traitsIwEEE10exceptionsEv
         W _ZNKSt3__19basic_iosIwNS_11char_traitsIwEEE3badEv
         W _ZNKSt3__19basic_iosIwNS_11char_traitsIwEEE3eofEv
         W _ZNKSt3__19basic_iosIwNS_11char_traitsIwEEE3tieEv
         W _ZNKSt3__19basic_iosIwNS_11char_traitsIwEEE4failEv
         W _ZNKSt3__19basic_iosIwNS_11char_traitsIwEEE4fillEv
         W _ZNKSt3__19basic_iosIwNS_11char_traitsIwEEE4goodEv
         W _ZNKSt3__19basic_iosIwNS_11char_traitsIwEEE5rdbufEv
         W _ZNKSt3__19basic_iosIwNS_11char_traitsIwEEE5widenEc
         W _ZNKSt3__19basic_iosIwNS_11char_traitsIwEEE6narrowEwc
         W _ZNKSt3__19basic_iosIwNS_11char_traitsIwEEE7rdstateEv
         W _ZNKSt3__19basic_iosIwNS_11char_traitsIwEEEcvbEv
         W _ZNKSt3__19basic_iosIwNS_11char_traitsIwEEEntEv
         W _ZNKSt3__19money_getIcNS_19istreambuf_iteratorIcNS_11char_traitsIcEEEEE3getES4_S4_bRNS_8ios_baseERjRNS_12basic_stringIcS3_NS_9allocatorIcEEEE
         W _ZNKSt3__19money_getIcNS_19istreambuf_iteratorIcNS_11char_traitsIcEEEEE3getES4_S4_bRNS_8ios_baseERjRe
         W _ZNKSt3__19money_getIcNS_19istreambuf_iteratorIcNS_11char_traitsIcEEEEE6do_getES4_S4_bRNS_8ios_baseERjRNS_12basic_stringIcS3_NS_9allocatorIcEEEE
         W _ZNKSt3__19money_getIcNS_19istreambuf_iteratorIcNS_11char_traitsIcEEEEE6do_getES4_S4_bRNS_8ios_baseERjRe
         W _ZNKSt3__19money_getIwNS_19istreambuf_iteratorIwNS_11char_traitsIwEEEEE3getES4_S4_bRNS_8ios_baseERjRNS_12basic_stringIwS3_NS_9allocatorIwEEEE
         W _ZNKSt3__19money_getIwNS_19istreambuf_iteratorIwNS_11char_traitsIwEEEEE3getES4_S4_bRNS_8ios_baseERjRe
         W _ZNKSt3__19money_getIwNS_19istreambuf_iteratorIwNS_11char_traitsIwEEEEE6do_getES4_S4_bRNS_8ios_baseERjRNS_12basic_stringIwS3_NS_9allocatorIwEEEE
         W _ZNKSt3__19money_getIwNS_19istreambuf_iteratorIwNS_11char_traitsIwEEEEE6do_getES4_S4_bRNS_8ios_baseERjRe
         W _ZNKSt3__19money_putIcNS_19ostreambuf_iteratorIcNS_11char_traitsIcEEEEE3putES4_bRNS_8ios_baseEcRKNS_12basic_stringIcS3_NS_9allocatorIcEEEE
         W _ZNKSt3__19money_putIcNS_19ostreambuf_iteratorIcNS_11char_traitsIcEEEEE3putES4_bRNS_8ios_baseEce
         W _ZNKSt3__19money_putIcNS_19ostreambuf_iteratorIcNS_11char_traitsIcEEEEE6do_putES4_bRNS_8ios_baseEcRKNS_12basic_stringIcS3_NS_9allocatorIcEEEE
         W _ZNKSt3__19money_putIcNS_19ostreambuf_iteratorIcNS_11char_traitsIcEEEEE6do_putES4_bRNS_8ios_baseEce
         W _ZNKSt3__19money_putIwNS_19ostreambuf_iteratorIwNS_11char_traitsIwEEEEE3putES4_bRNS_8ios_baseEwRKNS_12basic_stringIwS3_NS_9allocatorIwEEEE
         W _ZNKSt3__19money_putIwNS_19ostreambuf_iteratorIwNS_11char_traitsIwEEEEE3putES4_bRNS_8ios_baseEwe
         W _ZNKSt3__19money_putIwNS_19ostreambuf_iteratorIwNS_11char_traitsIwEEEEE6do_putES4_bRNS_8ios_baseEwRKNS_12basic_stringIwS3_NS_9allocatorIwEEEE
         W _ZNKSt3__19money_putIwNS_19ostreambuf_iteratorIwNS_11char_traitsIwEEEEE6do_putES4_bRNS_8ios_baseEwe
         T _ZNSt11logic_errorC1EPKc
         T _ZNSt11logic_errorC1ERKNSt3__112basic_stringIcNS0_11char_traitsIcEENS0_9allocatorIcEEEE
         T _ZNSt11logic_errorC1ERKS_
         T _ZNSt11logic_errorC2EPKc
         T _ZNSt11logic_errorC2ERKNSt3__112basic_stringIcNS0_11char_traitsIcEENS0_9allocatorIcEEEE
         T _ZNSt11logic_errorC2ERKS_
         T _ZNSt11logic_erroraSERKS_
         T _ZNSt13exception_ptrC1ERKS_
         T _ZNSt13exception_ptrC2ERKS_
         T _ZNSt13exception_ptrD1Ev
         T _ZNSt13exception_ptrD2Ev
         T _ZNSt13exception_ptraSERKS_
         T _ZNSt13runtime_errorC1EPKc
         T _ZNSt13runtime_errorC1ERKNSt3__112basic_stringIcNS0_11char_traitsIcEENS0_9allocatorIcEEEE
         T _ZNSt13runtime_errorC1ERKS_
         T _ZNSt13runtime_errorC2EPKc
         T _ZNSt13runtime_errorC2ERKNSt3__112basic_stringIcNS0_11char_traitsIcEENS0_9allocatorIcEEEE
         T _ZNSt13runtime_errorC2ERKS_
         T _ZNSt13runtime_erroraSERKS_
         T _ZNSt16nested_exceptionC1Ev
         T _ZNSt16nested_exceptionC2Ev
         T _ZNSt16nested_exceptionD0Ev
         T _ZNSt16nested_exceptionD1Ev
         T _ZNSt16nested_exceptionD2Ev
         C _ZNSt3__110__find_endIPFbwwEPKwS4_EET0_S5_S5_T1_S6_T_NS_26random_access_iterator_tagES8_
         C _ZNSt3__110__sscanf_lEPKcP15__locale_structS1_z
         C _ZNSt3__110__stdinbufIcE5imbueERKNS_6localeE
         C _ZNSt3__110__stdinbufIcE5uflowEv
         C _ZNSt3__110__stdinbufIcE9__getcharEb
         C _ZNSt3__110__stdinbufIcE9pbackfailEi
         C _ZNSt3__110__stdinbufIcE9underflowEv
         C _ZNSt3__110__stdinbufIcEC2EP8_IO_FILEP11__mbstate_t
         C _ZNSt3__110__stdinbufIcED0Ev
         C _ZNSt3__110__stdinbufIcED1Ev
         C _ZNSt3__110__stdinbufIwE5imbueERKNS_6localeE
         C _ZNSt3__110__stdinbufIwE5uflowEv
         C _ZNSt3__110__stdinbufIwE9__getcharEb
         C _ZNSt3__110__stdinbufIwE9pbackfailEj
         C _ZNSt3__110__stdinbufIwE9underflowEv
         C _ZNSt3__110__stdinbufIwEC2EP8_IO_FILEP11__mbstate_t
         C _ZNSt3__110__stdinbufIwED0Ev
         C _ZNSt3__110__stdinbufIwED1Ev
         T _ZNSt3__110__time_getC1EPKc
         T _ZNSt3__110__time_getC1ERKNS_12basic_stringIcNS_11char_traitsIcEENS_9allocatorIcEEEE
         T _ZNSt3__110__time_getC2EPKc
         T _ZNSt3__110__time_getC2ERKNS_12basic_stringIcNS_11char_traitsIcEENS_9allocatorIcEEEE
         T _ZNSt3__110__time_getD1Ev
         T _ZNSt3__110__time_getD2Ev
         T _ZNSt3__110__time_putC1EPKc
         T _ZNSt3__110__time_putC1ERKNS_12basic_stringIcNS_11char_traitsIcEENS_9allocatorIcEEEE
         T _ZNSt3__110__time_putC2EPKc
         T _ZNSt3__110__time_putC2ERKNS_12basic_stringIcNS_11char_traitsIcEENS_9allocatorIcEEEE
         T _ZNSt3__110__time_putD1Ev
         T _ZNSt3__110__time_putD2Ev
         D _ZNSt3__110adopt_lockE
         D _ZNSt3__110ctype_base5alnumE
         D _ZNSt3__110ctype_base5alphaE
         D _ZNSt3__110ctype_base5blankE
         D _ZNSt3__110ctype_base5cntrlE
         D _ZNSt3__110ctype_base5digitE
         D _ZNSt3__110ctype_base5graphE
         D _ZNSt3__110ctype_base5lowerE
         D _ZNSt3__110ctype_base5printE
         D _ZNSt3__110ctype_base5punctE
         D _ZNSt3__110ctype_base5spaceE
         D _ZNSt3__110ctype_base5upperE
         D _ZNSt3__110ctype_base6xdigitE
         D _ZNSt3__110defer_lockE
         T _ZNSt3__110istrstreamD0Ev
         T _ZNSt3__110istrstreamD1Ev
         T _ZNSt3__110istrstreamD2Ev
         W _ZNSt3__110moneypunctIcLb0EE2idE
         W _ZNSt3__110moneypunctIcLb0EE4intlE
         W _ZNSt3__110moneypunctIcLb0EEC1Ej
         W _ZNSt3__110moneypunctIcLb0EEC2Ej
         W _ZNSt3__110moneypunctIcLb0EED0Ev
         W _ZNSt3__110moneypunctIcLb0EED1Ev
         W _ZNSt3__110moneypunctIcLb0EED2Ev
         W _ZNSt3__110moneypunctIcLb1EE2idE
         W _ZNSt3__110moneypunctIcLb1EE4intlE
         W _ZNSt3__110moneypunctIcLb1EEC1Ej
         W _ZNSt3__110moneypunctIcLb1EEC2Ej
         W _ZNSt3__110moneypunctIcLb1EED0Ev
         W _ZNSt3__110moneypunctIcLb1EED1Ev
         W _ZNSt3__110moneypunctIcLb1EED2Ev
         W _ZNSt3__110moneypunctIwLb0EE2idE
         W _ZNSt3__110moneypunctIwLb0EE4intlE
         W _ZNSt3__110moneypunctIwLb0EEC1Ej
         W _ZNSt3__110moneypunctIwLb0EEC2Ej
         W _ZNSt3__110moneypunctIwLb0EED0Ev
         W _ZNSt3__110moneypunctIwLb0EED1Ev
         W _ZNSt3__110moneypunctIwLb0EED2Ev
         W _ZNSt3__110moneypunctIwLb1EE2idE
         W _ZNSt3__110moneypunctIwLb1EE4intlE
         W _ZNSt3__110moneypunctIwLb1EEC1Ej
         W _ZNSt3__110moneypunctIwLb1EEC2Ej
         W _ZNSt3__110moneypunctIwLb1EED0Ev
         W _ZNSt3__110moneypunctIwLb1EED1Ev
         W _ZNSt3__110moneypunctIwLb1EED2Ev
         T _ZNSt3__110ostrstreamD0Ev
         T _ZNSt3__110ostrstreamD1Ev
         T _ZNSt3__110ostrstreamD2Ev
         T _ZNSt3__110to_wstringEd
         T _ZNSt3__110to_wstringEe
         T _ZNSt3__110to_wstringEf
         T _ZNSt3__110to_wstringEi
         T _ZNSt3__110to_wstringEj
         T _ZNSt3__110to_wstringEl
         T _ZNSt3__110to_wstringEm
         T _ZNSt3__110to_wstringEx
         T _ZNSt3__110to_wstringEy
         T _ZNSt3__111__call_onceERVmPvPFvS2_E
         T _ZNSt3__111__libcpp_db10__insert_cEPv
         T _ZNSt3__111__libcpp_db10__insert_iEPv
         T _ZNSt3__111__libcpp_db11__insert_icEPvPKv
         T _ZNSt3__111__libcpp_db15__iterator_copyEPvPKv
         T _ZNSt3__111__libcpp_db16__invalidate_allEPv
         T _ZNSt3__111__libcpp_db17__insert_iteratorEPv
         T _ZNSt3__111__libcpp_db4swapEPvS1_
         T _ZNSt3__111__libcpp_db9__erase_cEPv
         T _ZNSt3__111__libcpp_db9__erase_iEPv
         T _ZNSt3__111__libcpp_dbC1Ev
         T _ZNSt3__111__libcpp_dbC2Ev
         T _ZNSt3__111__libcpp_dbD1Ev
         T _ZNSt3__111__libcpp_dbD2Ev
         W _ZNSt3__111__money_getIcE13__gather_infoEbRKNS_6localeERNS_10money_base7patternERcS8_RNS_12basic_stringIcNS_11char_traitsIcEENS_9allocatorIcEEEESF_SF_SF_Ri
         W _ZNSt3__111__money_getIcEC1Ev
         W _ZNSt3__111__money_getIcEC2Ev
         W _ZNSt3__111__money_getIwE13__gather_infoEbRKNS_6localeERNS_10money_base7patternERwS8_RNS_12basic_stringIcNS_11char_traitsIcEENS_9allocatorIcEEEERNS9_IwNSA_IwEENSC_IwEEEESJ_SJ_Ri
         W _ZNSt3__111__money_getIwEC1Ev
         W _ZNSt3__111__money_getIwEC2Ev
         W _ZNSt3__111__money_putIcE13__gather_infoEbbRKNS_6localeERNS_10money_base7patternERcS8_RNS_12basic_stringIcNS_11char_traitsIcEENS_9allocatorIcEEEESF_SF_Ri
         W _ZNSt3__111__money_putIcE8__formatEPcRS2_S3_jPKcS5_RKNS_5ctypeIcEEbRKNS_10money_base7patternEccRKNS_12basic_stringIcNS_11char_traitsIcEENS_9allocatorIcEEEESL_SL_i
         W _ZNSt3__111__money_putIcEC1Ev
         W _ZNSt3__111__money_putIcEC2Ev
         W _ZNSt3__111__money_putIwE13__gather_infoEbbRKNS_6localeERNS_10money_base7patternERwS8_RNS_12basic_stringIcNS_11char_traitsIcEENS_9allocatorIcEEEERNS9_IwNSA_IwEENSC_IwEEEESJ_Ri
         W _ZNSt3__111__money_putIwE8__formatEPwRS2_S3_jPKwS5_RKNS_5ctypeIwEEbRKNS_10money_base7patternEwwRKNS_12basic_stringIcNS_11char_traitsIcEENS_9allocatorIcEEEERKNSE_IwNSF_IwEENSH_IwEEEESQ_i
         W _ZNSt3__111__money_putIwEC1Ev
         W _ZNSt3__111__money_putIwEC2Ev
         C _ZNSt3__111__stdoutbufIcE4syncEv
         C _ZNSt3__111__stdoutbufIcE5imbueERKNS_6localeE
         C _ZNSt3__111__stdoutbufIcE6xsputnEPKci
         C _ZNSt3__111__stdoutbufIcE8overflowEi
         C _ZNSt3__111__stdoutbufIcEC2EP8_IO_FILEP11__mbstate_t
         C _ZNSt3__111__stdoutbufIcED0Ev
         C _ZNSt3__111__stdoutbufIcED1Ev
         C _ZNSt3__111__stdoutbufIwE4syncEv
         C _ZNSt3__111__stdoutbufIwE5imbueERKNS_6localeE
         C _ZNSt3__111__stdoutbufIwE6xsputnEPKwi
         C _ZNSt3__111__stdoutbufIwE8overflowEj
         C _ZNSt3__111__stdoutbufIwEC2EP8_IO_FILEP11__mbstate_t
         C _ZNSt3__111__stdoutbufIwED0Ev
         C _ZNSt3__111__stdoutbufIwED1Ev
         C _ZNSt3__111char_traitsIcE4findEPKcjRS2_
         C _ZNSt3__111char_traitsIwE2eqEww
         T _ZNSt3__111regex_errorC1ENS_15regex_constants10error_typeE
         T _ZNSt3__111regex_errorC2ENS_15regex_constants10error_typeE
         T _ZNSt3__111regex_errorD0Ev
         T _ZNSt3__111regex_errorD1Ev
         T _ZNSt3__111regex_errorD2Ev
         T _ZNSt3__111this_thread9sleep_forERKNS_6chrono8durationIxNS_5ratioILx1ELx1000000000EEEEE
         T _ZNSt3__111timed_mutex4lockEv
         T _ZNSt3__111timed_mutex6unlockEv
         T _ZNSt3__111timed_mutex8try_lockEv
         T _ZNSt3__111timed_mutexC1Ev
         T _ZNSt3__111timed_mutexC2Ev
         T _ZNSt3__111timed_mutexD1Ev
         T _ZNSt3__111timed_mutexD2Ev
         D _ZNSt3__111try_to_lockE
         C _ZNSt3__111unique_lockINS_5mutexEE6unlockEv
         C _ZNSt3__112__asprintf_lEPPcP15__locale_structPKcz
         C _ZNSt3__112__do_messageD0Ev
         C _ZNSt3__112__do_messageD1Ev
         T _ZNSt3__112__do_nothingEPv
         T _ZNSt3__112__get_sp_mutEPKv
         T _ZNSt3__112__next_primeEj
         C _ZNSt3__112__rotate_gcdINS_11__wrap_iterIPcEEEET_S4_S4_S4_
         C _ZNSt3__112__rotate_gcdINS_11__wrap_iterIPwEEEET_S4_S4_S4_
         D _ZNSt3__112__rs_default4__c_E
         T _ZNSt3__112__rs_defaultC1ERKS0_
         T _ZNSt3__112__rs_defaultC1Ev
         T _ZNSt3__112__rs_defaultC2ERKS0_
         T _ZNSt3__112__rs_defaultC2Ev
         T _ZNSt3__112__rs_defaultD1Ev
         T _ZNSt3__112__rs_defaultD2Ev
         T _ZNSt3__112__rs_defaultclEv
         C _ZNSt3__112__snprintf_lEPcjP15__locale_structPKcz
         T _ZNSt3__112bad_weak_ptrD0Ev
         T _ZNSt3__112bad_weak_ptrD1Ev
         T _ZNSt3__112bad_weak_ptrD2Ev
         W _ZNSt3__112basic_stringIcNS_11char_traitsIcEENS_9allocatorIcEEE10__set_sizeEj
         W _ZNSt3__112basic_stringIcNS_11char_traitsIcEENS_9allocatorIcEEE11__recommendEj
         W _ZNSt3__112basic_stringIcNS_11char_traitsIcEENS_9allocatorIcEEE12__swap_allocERS4_S6_
         W _ZNSt3__112basic_stringIcNS_11char_traitsIcEENS_9allocatorIcEEE12__swap_allocERS4_S6_NS_17integral_constantIbLb0EEE
         W _ZNSt3__112basic_stringIcNS_11char_traitsIcEENS_9allocatorIcEEE12__swap_allocERS4_S6_NS_17integral_constantIbLb1EEE
         W _ZNSt3__112basic_stringIcNS_11char_traitsIcEENS_9allocatorIcEEE13__get_pointerEv
         W _ZNSt3__112basic_stringIcNS_11char_traitsIcEENS_9allocatorIcEEE13__move_assignERS5_NS_17integral_constantIbLb0EEE
         W _ZNSt3__112basic_stringIcNS_11char_traitsIcEENS_9allocatorIcEEE13__move_assignERS5_NS_17integral_constantIbLb1EEE
         W _ZNSt3__112basic_stringIcNS_11char_traitsIcEENS_9allocatorIcEEE13shrink_to_fitEv
         W _ZNSt3__112basic_stringIcNS_11char_traitsIcEENS_9allocatorIcEEE14__erase_to_endEj
         W _ZNSt3__112basic_stringIcNS_11char_traitsIcEENS_9allocatorIcEEE14__set_long_capEj
         W _ZNSt3__112basic_stringIcNS_11char_traitsIcEENS_9allocatorIcEEE15__set_long_sizeEj
         W _ZNSt3__112basic_stringIcNS_11char_traitsIcEENS_9allocatorIcEEE16__set_short_sizeEj
         W _ZNSt3__112basic_stringIcNS_11char_traitsIcEENS_9allocatorIcEEE18__get_long_pointerEv
         W _ZNSt3__112basic_stringIcNS_11char_traitsIcEENS_9allocatorIcEEE18__set_long_pointerEPc
         W _ZNSt3__112basic_stringIcNS_11char_traitsIcEENS_9allocatorIcEEE19__copy_assign_allocERKS5_
         W _ZNSt3__112basic_stringIcNS_11char_traitsIcEENS_9allocatorIcEEE19__copy_assign_allocERKS5_NS_17integral_constantIbLb0EEE
         W _ZNSt3__112basic_stringIcNS_11char_traitsIcEENS_9allocatorIcEEE19__copy_assign_allocERKS5_NS_17integral_constantIbLb1EEE
         W _ZNSt3__112basic_stringIcNS_11char_traitsIcEENS_9allocatorIcEEE19__get_short_pointerEv
         W _ZNSt3__112basic_stringIcNS_11char_traitsIcEENS_9allocatorIcEEE19__move_assign_allocERS5_
         W _ZNSt3__112basic_stringIcNS_11char_traitsIcEENS_9allocatorIcEEE19__move_assign_allocERS5_NS_17integral_constantIbLb0EEE
         W _ZNSt3__112basic_stringIcNS_11char_traitsIcEENS_9allocatorIcEEE19__move_assign_allocERS5_NS_17integral_constantIbLb1EEE
         W _ZNSt3__112basic_stringIcNS_11char_traitsIcEENS_9allocatorIcEEE21__grow_by_and_replaceEjjjjjjPKc
         W _ZNSt3__112basic_stringIcNS_11char_traitsIcEENS_9allocatorIcEEE26__invalidate_all_iteratorsEv
         W _ZNSt3__112basic_stringIcNS_11char_traitsIcEENS_9allocatorIcEEE27__invalidate_iterators_pastEj
         W _ZNSt3__112basic_stringIcNS_11char_traitsIcEENS_9allocatorIcEEE2atEj
         W _ZNSt3__112basic_stringIcNS_11char_traitsIcEENS_9allocatorIcEEE3endEv
         W _ZNSt3__112basic_stringIcNS_11char_traitsIcEENS_9allocatorIcEEE4backEv
         W _ZNSt3__112basic_stringIcNS_11char_traitsIcEENS_9allocatorIcEEE4nposE
         W _ZNSt3__112basic_stringIcNS_11char_traitsIcEENS_9allocatorIcEEE4rendEv
         W _ZNSt3__112basic_stringIcNS_11char_traitsIcEENS_9allocatorIcEEE4swapERS5_
         W _ZNSt3__112basic_stringIcNS_11char_traitsIcEENS_9allocatorIcEEE5beginEv
         W _ZNSt3__112basic_stringIcNS_11char_traitsIcEENS_9allocatorIcEEE5clearEv
         W _ZNSt3__112basic_stringIcNS_11char_traitsIcEENS_9allocatorIcEEE5eraseENS_11__wrap_iterIPKcEE
         W _ZNSt3__112basic_stringIcNS_11char_traitsIcEENS_9allocatorIcEEE5eraseENS_11__wrap_iterIPKcEES9_
         W _ZNSt3__112basic_stringIcNS_11char_traitsIcEENS_9allocatorIcEEE5eraseEjj
         W _ZNSt3__112basic_stringIcNS_11char_traitsIcEENS_9allocatorIcEEE5frontEv
         W _ZNSt3__112basic_stringIcNS_11char_traitsIcEENS_9allocatorIcEEE6__initEPKcj
         W _ZNSt3__112basic_stringIcNS_11char_traitsIcEENS_9allocatorIcEEE6__initEPKcjj
         W _ZNSt3__112basic_stringIcNS_11char_traitsIcEENS_9allocatorIcEEE6__initEjc
         C _ZNSt3__112basic_stringIcNS_11char_traitsIcEENS_9allocatorIcEEE6__initIPKcEENS_9enable_ifIXsr21__is_forward_iteratorIT_EE5valueEvE4typeESA_SA_
         W _ZNSt3__112basic_stringIcNS_11char_traitsIcEENS_9allocatorIcEEE6__zeroEv
         W _ZNSt3__112basic_stringIcNS_11char_traitsIcEENS_9allocatorIcEEE6appendEPKc
         W _ZNSt3__112basic_stringIcNS_11char_traitsIcEENS_9allocatorIcEEE6appendEPKcj
         W _ZNSt3__112basic_stringIcNS_11char_traitsIcEENS_9allocatorIcEEE6appendERKS5_
         W _ZNSt3__112basic_stringIcNS_11char_traitsIcEENS_9allocatorIcEEE6appendERKS5_jj
         W _ZNSt3__112basic_stringIcNS_11char_traitsIcEENS_9allocatorIcEEE6appendESt16initializer_listIcE
         W _ZNSt3__112basic_stringIcNS_11char_traitsIcEENS_9allocatorIcEEE6appendEjc
         C _ZNSt3__112basic_stringIcNS_11char_traitsIcEENS_9allocatorIcEEE6appendIPcEENS_9enable_ifIXsr21__is_forward_iteratorIT_EE5valueERS5_E4typeES9_S9_
         W _ZNSt3__112basic_stringIcNS_11char_traitsIcEENS_9allocatorIcEEE6assignEOS5_
         W _ZNSt3__112basic_stringIcNS_11char_traitsIcEENS_9allocatorIcEEE6assignEPKc
         W _ZNSt3__112basic_stringIcNS_11char_traitsIcEENS_9allocatorIcEEE6assignEPKcj
         W _ZNSt3__112basic_stringIcNS_11char_traitsIcEENS_9allocatorIcEEE6assignERKS5_
         W _ZNSt3__112basic_stringIcNS_11char_traitsIcEENS_9allocatorIcEEE6assignERKS5_jj
         W _ZNSt3__112basic_stringIcNS_11char_traitsIcEENS_9allocatorIcEEE6assignESt16initializer_listIcE
         W _ZNSt3__112basic_stringIcNS_11char_traitsIcEENS_9allocatorIcEEE6assignEjc
         W _ZNSt3__112basic_stringIcNS_11char_traitsIcEENS_9allocatorIcEEE6insertENS_11__wrap_iterIPKcEESt16initializer_listIcE
         W _ZNSt3__112basic_stringIcNS_11char_traitsIcEENS_9allocatorIcEEE6insertENS_11__wrap_iterIPKcEEc
         W _ZNSt3__112basic_stringIcNS_11char_traitsIcEENS_9allocatorIcEEE6insertENS_11__wrap_iterIPKcEEjc
         W _ZNSt3__112basic_stringIcNS_11char_traitsIcEENS_9allocatorIcEEE6insertEjPKc
         W _ZNSt3__112basic_stringIcNS_11char_traitsIcEENS_9allocatorIcEEE6insertEjPKcj
         W _ZNSt3__112basic_stringIcNS_11char_traitsIcEENS_9allocatorIcEEE6insertEjRKS5_
         W _ZNSt3__112basic_stringIcNS_11char_traitsIcEENS_9allocatorIcEEE6insertEjRKS5_jj
         W _ZNSt3__112basic_stringIcNS_11char_traitsIcEENS_9allocatorIcEEE6insertEjjc
         C _ZNSt3__112basic_stringIcNS_11char_traitsIcEENS_9allocatorIcEEE6insertIPKcEENS_9enable_ifIXsr21__is_forward_iteratorIT_EE5valueENS_11__wrap_iterIPcEEE4typeENSB_IS8_EESA_SA_
         W _ZNSt3__112basic_stringIcNS_11char_traitsIcEENS_9allocatorIcEEE6rbeginEv
         W _ZNSt3__112basic_stringIcNS_11char_traitsIcEENS_9allocatorIcEEE6resizeEj
         W _ZNSt3__112basic_stringIcNS_11char_traitsIcEENS_9allocatorIcEEE6resizeEjc
         W _ZNSt3__112basic_stringIcNS_11char_traitsIcEENS_9allocatorIcEEE7__allocEv
         W _ZNSt3__112basic_stringIcNS_11char_traitsIcEENS_9allocatorIcEEE7replaceENS_11__wrap_iterIPKcEES9_RKS5_
         W _ZNSt3__112basic_stringIcNS_11char_traitsIcEENS_9allocatorIcEEE7replaceENS_11__wrap_iterIPKcEES9_S8_
         W _ZNSt3__112basic_stringIcNS_11char_traitsIcEENS_9allocatorIcEEE7replaceENS_11__wrap_iterIPKcEES9_S8_j
         W _ZNSt3__112basic_stringIcNS_11char_traitsIcEENS_9allocatorIcEEE7replaceENS_11__wrap_iterIPKcEES9_St16initializer_listIcE
         W _ZNSt3__112basic_stringIcNS_11char_traitsIcEENS_9allocatorIcEEE7replaceENS_11__wrap_iterIPKcEES9_jc
         W _ZNSt3__112basic_stringIcNS_11char_traitsIcEENS_9allocatorIcEEE7replaceEjjPKc
         W _ZNSt3__112basic_stringIcNS_11char_traitsIcEENS_9allocatorIcEEE7replaceEjjPKcj
         W _ZNSt3__112basic_stringIcNS_11char_traitsIcEENS_9allocatorIcEEE7replaceEjjRKS5_
         W _ZNSt3__112basic_stringIcNS_11char_traitsIcEENS_9allocatorIcEEE7replaceEjjRKS5_jj
         W _ZNSt3__112basic_stringIcNS_11char_traitsIcEENS_9allocatorIcEEE7replaceEjjjc
         C _ZNSt3__112basic_stringIcNS_11char_traitsIcEENS_9allocatorIcEEE7replaceIPKcEENS_9enable_ifIXsr19__is_input_iteratorIT_EE5valueERS5_E4typeENS_11__wrap_iterIS8_EESF_SA_SA_
         W _ZNSt3__112basic_stringIcNS_11char_traitsIcEENS_9allocatorIcEEE7reserveEj
         W _ZNSt3__112basic_stringIcNS_11char_traitsIcEENS_9allocatorIcEEE8pop_backEv
         W _ZNSt3__112basic_stringIcNS_11char_traitsIcEENS_9allocatorIcEEE9__grow_byEjjjjjj
         W _ZNSt3__112basic_stringIcNS_11char_traitsIcEENS_9allocatorIcEEE9push_backEc
         W _ZNSt3__112basic_stringIcNS_11char_traitsIcEENS_9allocatorIcEEEC1EOS5_
         W _ZNSt3__112basic_stringIcNS_11char_traitsIcEENS_9allocatorIcEEEC1EOS5_RKS4_
         W _ZNSt3__112basic_stringIcNS_11char_traitsIcEENS_9allocatorIcEEEC1EPKc
         W _ZNSt3__112basic_stringIcNS_11char_traitsIcEENS_9allocatorIcEEEC1EPKcRKS4_
         W _ZNSt3__112basic_stringIcNS_11char_traitsIcEENS_9allocatorIcEEEC1EPKcj
         W _ZNSt3__112basic_stringIcNS_11char_traitsIcEENS_9allocatorIcEEEC1EPKcjRKS4_
         W _ZNSt3__112basic_stringIcNS_11char_traitsIcEENS_9allocatorIcEEEC1ERKS4_
         W _ZNSt3__112basic_stringIcNS_11char_traitsIcEENS_9allocatorIcEEEC1ERKS5_
         W _ZNSt3__112basic_stringIcNS_11char_traitsIcEENS_9allocatorIcEEEC1ERKS5_RKS4_
         W _ZNSt3__112basic_stringIcNS_11char_traitsIcEENS_9allocatorIcEEEC1ERKS5_jjRKS4_
         W _ZNSt3__112basic_stringIcNS_11char_traitsIcEENS_9allocatorIcEEEC1ESt16initializer_listIcE
         W _ZNSt3__112basic_stringIcNS_11char_traitsIcEENS_9allocatorIcEEEC1ESt16initializer_listIcERKS4_
         W _ZNSt3__112basic_stringIcNS_11char_traitsIcEENS_9allocatorIcEEEC1Ejc
         W _ZNSt3__112basic_stringIcNS_11char_traitsIcEENS_9allocatorIcEEEC1EjcRKS4_
         W _ZNSt3__112basic_stringIcNS_11char_traitsIcEENS_9allocatorIcEEEC1Ev
         W _ZNSt3__112basic_stringIcNS_11char_traitsIcEENS_9allocatorIcEEEC2EOS5_
         W _ZNSt3__112basic_stringIcNS_11char_traitsIcEENS_9allocatorIcEEEC2EOS5_RKS4_
         W _ZNSt3__112basic_stringIcNS_11char_traitsIcEENS_9allocatorIcEEEC2EPKc
         W _ZNSt3__112basic_stringIcNS_11char_traitsIcEENS_9allocatorIcEEEC2EPKcRKS4_
         W _ZNSt3__112basic_stringIcNS_11char_traitsIcEENS_9allocatorIcEEEC2EPKcj
         W _ZNSt3__112basic_stringIcNS_11char_traitsIcEENS_9allocatorIcEEEC2EPKcjRKS4_
         W _ZNSt3__112basic_stringIcNS_11char_traitsIcEENS_9allocatorIcEEEC2ERKS4_
         W _ZNSt3__112basic_stringIcNS_11char_traitsIcEENS_9allocatorIcEEEC2ERKS5_
         W _ZNSt3__112basic_stringIcNS_11char_traitsIcEENS_9allocatorIcEEEC2ERKS5_RKS4_
         W _ZNSt3__112basic_stringIcNS_11char_traitsIcEENS_9allocatorIcEEEC2ERKS5_jjRKS4_
         W _ZNSt3__112basic_stringIcNS_11char_traitsIcEENS_9allocatorIcEEEC2ESt16initializer_listIcE
         W _ZNSt3__112basic_stringIcNS_11char_traitsIcEENS_9allocatorIcEEEC2ESt16initializer_listIcERKS4_
         W _ZNSt3__112basic_stringIcNS_11char_traitsIcEENS_9allocatorIcEEEC2Ejc
         W _ZNSt3__112basic_stringIcNS_11char_traitsIcEENS_9allocatorIcEEEC2EjcRKS4_
         W _ZNSt3__112basic_stringIcNS_11char_traitsIcEENS_9allocatorIcEEEC2Ev
         W _ZNSt3__112basic_stringIcNS_11char_traitsIcEENS_9allocatorIcEEED1Ev
         W _ZNSt3__112basic_stringIcNS_11char_traitsIcEENS_9allocatorIcEEED2Ev
         W _ZNSt3__112basic_stringIcNS_11char_traitsIcEENS_9allocatorIcEEEaSEOS5_
         W _ZNSt3__112basic_stringIcNS_11char_traitsIcEENS_9allocatorIcEEEaSEPKc
         W _ZNSt3__112basic_stringIcNS_11char_traitsIcEENS_9allocatorIcEEEaSERKS5_
         W _ZNSt3__112basic_stringIcNS_11char_traitsIcEENS_9allocatorIcEEEaSESt16initializer_listIcE
         W _ZNSt3__112basic_stringIcNS_11char_traitsIcEENS_9allocatorIcEEEaSEc
         W _ZNSt3__112basic_stringIcNS_11char_traitsIcEENS_9allocatorIcEEEixEj
         W _ZNSt3__112basic_stringIcNS_11char_traitsIcEENS_9allocatorIcEEEpLEPKc
         W _ZNSt3__112basic_stringIcNS_11char_traitsIcEENS_9allocatorIcEEEpLERKS5_
         W _ZNSt3__112basic_stringIcNS_11char_traitsIcEENS_9allocatorIcEEEpLESt16initializer_listIcE
         W _ZNSt3__112basic_stringIcNS_11char_traitsIcEENS_9allocatorIcEEEpLEc
         W _ZNSt3__112basic_stringIwNS_11char_traitsIwEENS_9allocatorIwEEE10__set_sizeEj
         W _ZNSt3__112basic_stringIwNS_11char_traitsIwEENS_9allocatorIwEEE11__recommendEj
         W _ZNSt3__112basic_stringIwNS_11char_traitsIwEENS_9allocatorIwEEE12__swap_allocERS4_S6_
         W _ZNSt3__112basic_stringIwNS_11char_traitsIwEENS_9allocatorIwEEE12__swap_allocERS4_S6_NS_17integral_constantIbLb0EEE
         W _ZNSt3__112basic_stringIwNS_11char_traitsIwEENS_9allocatorIwEEE12__swap_allocERS4_S6_NS_17integral_constantIbLb1EEE
         W _ZNSt3__112basic_stringIwNS_11char_traitsIwEENS_9allocatorIwEEE13__get_pointerEv
         W _ZNSt3__112basic_stringIwNS_11char_traitsIwEENS_9allocatorIwEEE13__move_assignERS5_NS_17integral_constantIbLb0EEE
         W _ZNSt3__112basic_stringIwNS_11char_traitsIwEENS_9allocatorIwEEE13__move_assignERS5_NS_17integral_constantIbLb1EEE
         W _ZNSt3__112basic_stringIwNS_11char_traitsIwEENS_9allocatorIwEEE13shrink_to_fitEv
         W _ZNSt3__112basic_stringIwNS_11char_traitsIwEENS_9allocatorIwEEE14__erase_to_endEj
         W _ZNSt3__112basic_stringIwNS_11char_traitsIwEENS_9allocatorIwEEE14__set_long_capEj
         W _ZNSt3__112basic_stringIwNS_11char_traitsIwEENS_9allocatorIwEEE15__set_long_sizeEj
         W _ZNSt3__112basic_stringIwNS_11char_traitsIwEENS_9allocatorIwEEE16__set_short_sizeEj
         W _ZNSt3__112basic_stringIwNS_11char_traitsIwEENS_9allocatorIwEEE18__get_long_pointerEv
         W _ZNSt3__112basic_stringIwNS_11char_traitsIwEENS_9allocatorIwEEE18__set_long_pointerEPw
         W _ZNSt3__112basic_stringIwNS_11char_traitsIwEENS_9allocatorIwEEE19__copy_assign_allocERKS5_
         W _ZNSt3__112basic_stringIwNS_11char_traitsIwEENS_9allocatorIwEEE19__copy_assign_allocERKS5_NS_17integral_constantIbLb0EEE
         W _ZNSt3__112basic_stringIwNS_11char_traitsIwEENS_9allocatorIwEEE19__copy_assign_allocERKS5_NS_17integral_constantIbLb1EEE
         W _ZNSt3__112basic_stringIwNS_11char_traitsIwEENS_9allocatorIwEEE19__get_short_pointerEv
         W _ZNSt3__112basic_stringIwNS_11char_traitsIwEENS_9allocatorIwEEE19__move_assign_allocERS5_
         W _ZNSt3__112basic_stringIwNS_11char_traitsIwEENS_9allocatorIwEEE19__move_assign_allocERS5_NS_17integral_constantIbLb0EEE
         W _ZNSt3__112basic_stringIwNS_11char_traitsIwEENS_9allocatorIwEEE19__move_assign_allocERS5_NS_17integral_constantIbLb1EEE
         W _ZNSt3__112basic_stringIwNS_11char_traitsIwEENS_9allocatorIwEEE21__grow_by_and_replaceEjjjjjjPKw
         W _ZNSt3__112basic_stringIwNS_11char_traitsIwEENS_9allocatorIwEEE26__invalidate_all_iteratorsEv
         W _ZNSt3__112basic_stringIwNS_11char_traitsIwEENS_9allocatorIwEEE27__invalidate_iterators_pastEj
         W _ZNSt3__112basic_stringIwNS_11char_traitsIwEENS_9allocatorIwEEE2atEj
         W _ZNSt3__112basic_stringIwNS_11char_traitsIwEENS_9allocatorIwEEE3endEv
         W _ZNSt3__112basic_stringIwNS_11char_traitsIwEENS_9allocatorIwEEE4backEv
         W _ZNSt3__112basic_stringIwNS_11char_traitsIwEENS_9allocatorIwEEE4nposE
         W _ZNSt3__112basic_stringIwNS_11char_traitsIwEENS_9allocatorIwEEE4rendEv
         W _ZNSt3__112basic_stringIwNS_11char_traitsIwEENS_9allocatorIwEEE4swapERS5_
         W _ZNSt3__112basic_stringIwNS_11char_traitsIwEENS_9allocatorIwEEE5beginEv
         W _ZNSt3__112basic_stringIwNS_11char_traitsIwEENS_9allocatorIwEEE5clearEv
         W _ZNSt3__112basic_stringIwNS_11char_traitsIwEENS_9allocatorIwEEE5eraseENS_11__wrap_iterIPKwEE
         W _ZNSt3__112basic_stringIwNS_11char_traitsIwEENS_9allocatorIwEEE5eraseENS_11__wrap_iterIPKwEES9_
         W _ZNSt3__112basic_stringIwNS_11char_traitsIwEENS_9allocatorIwEEE5eraseEjj
         W _ZNSt3__112basic_stringIwNS_11char_traitsIwEENS_9allocatorIwEEE5frontEv
         W _ZNSt3__112basic_stringIwNS_11char_traitsIwEENS_9allocatorIwEEE6__initEPKwj
         W _ZNSt3__112basic_stringIwNS_11char_traitsIwEENS_9allocatorIwEEE6__initEPKwjj
         W _ZNSt3__112basic_stringIwNS_11char_traitsIwEENS_9allocatorIwEEE6__initEjw
         C _ZNSt3__112basic_stringIwNS_11char_traitsIwEENS_9allocatorIwEEE6__initIPKwEENS_9enable_ifIXsr21__is_forward_iteratorIT_EE5valueEvE4typeESA_SA_
         W _ZNSt3__112basic_stringIwNS_11char_traitsIwEENS_9allocatorIwEEE6__zeroEv
         W _ZNSt3__112basic_stringIwNS_11char_traitsIwEENS_9allocatorIwEEE6appendEPKw
         W _ZNSt3__112basic_stringIwNS_11char_traitsIwEENS_9allocatorIwEEE6appendEPKwj
         W _ZNSt3__112basic_stringIwNS_11char_traitsIwEENS_9allocatorIwEEE6appendERKS5_
         W _ZNSt3__112basic_stringIwNS_11char_traitsIwEENS_9allocatorIwEEE6appendERKS5_jj
         W _ZNSt3__112basic_stringIwNS_11char_traitsIwEENS_9allocatorIwEEE6appendESt16initializer_listIwE
         W _ZNSt3__112basic_stringIwNS_11char_traitsIwEENS_9allocatorIwEEE6appendEjw
         C _ZNSt3__112basic_stringIwNS_11char_traitsIwEENS_9allocatorIwEEE6appendIPwEENS_9enable_ifIXsr21__is_forward_iteratorIT_EE5valueERS5_E4typeES9_S9_
         W _ZNSt3__112basic_stringIwNS_11char_traitsIwEENS_9allocatorIwEEE6assignEOS5_
         W _ZNSt3__112basic_stringIwNS_11char_traitsIwEENS_9allocatorIwEEE6assignEPKw
         W _ZNSt3__112basic_stringIwNS_11char_traitsIwEENS_9allocatorIwEEE6assignEPKwj
         W _ZNSt3__112basic_stringIwNS_11char_traitsIwEENS_9allocatorIwEEE6assignERKS5_
         W _ZNSt3__112basic_stringIwNS_11char_traitsIwEENS_9allocatorIwEEE6assignERKS5_jj
         W _ZNSt3__112basic_stringIwNS_11char_traitsIwEENS_9allocatorIwEEE6assignESt16initializer_listIwE
         W _ZNSt3__112basic_stringIwNS_11char_traitsIwEENS_9allocatorIwEEE6assignEjw
         C _ZNSt3__112basic_stringIwNS_11char_traitsIwEENS_9allocatorIwEEE6assignIPwEENS_9enable_ifIXsr21__is_forward_iteratorIT_EE5valueERS5_E4typeES9_S9_
         W _ZNSt3__112basic_stringIwNS_11char_traitsIwEENS_9allocatorIwEEE6insertENS_11__wrap_iterIPKwEESt16initializer_listIwE
         W _ZNSt3__112basic_stringIwNS_11char_traitsIwEENS_9allocatorIwEEE6insertENS_11__wrap_iterIPKwEEjw
         W _ZNSt3__112basic_stringIwNS_11char_traitsIwEENS_9allocatorIwEEE6insertENS_11__wrap_iterIPKwEEw
         W _ZNSt3__112basic_stringIwNS_11char_traitsIwEENS_9allocatorIwEEE6insertEjPKw
         W _ZNSt3__112basic_stringIwNS_11char_traitsIwEENS_9allocatorIwEEE6insertEjPKwj
         W _ZNSt3__112basic_stringIwNS_11char_traitsIwEENS_9allocatorIwEEE6insertEjRKS5_
         W _ZNSt3__112basic_stringIwNS_11char_traitsIwEENS_9allocatorIwEEE6insertEjRKS5_jj
         W _ZNSt3__112basic_stringIwNS_11char_traitsIwEENS_9allocatorIwEEE6insertEjjw
         C _ZNSt3__112basic_stringIwNS_11char_traitsIwEENS_9allocatorIwEEE6insertIPKwEENS_9enable_ifIXsr21__is_forward_iteratorIT_EE5valueENS_11__wrap_iterIPwEEE4typeENSB_IS8_EESA_SA_
         W _ZNSt3__112basic_stringIwNS_11char_traitsIwEENS_9allocatorIwEEE6rbeginEv
         W _ZNSt3__112basic_stringIwNS_11char_traitsIwEENS_9allocatorIwEEE6resizeEj
         W _ZNSt3__112basic_stringIwNS_11char_traitsIwEENS_9allocatorIwEEE6resizeEjw
         W _ZNSt3__112basic_stringIwNS_11char_traitsIwEENS_9allocatorIwEEE7__allocEv
         W _ZNSt3__112basic_stringIwNS_11char_traitsIwEENS_9allocatorIwEEE7replaceENS_11__wrap_iterIPKwEES9_RKS5_
         W _ZNSt3__112basic_stringIwNS_11char_traitsIwEENS_9allocatorIwEEE7replaceENS_11__wrap_iterIPKwEES9_S8_
         W _ZNSt3__112basic_stringIwNS_11char_traitsIwEENS_9allocatorIwEEE7replaceENS_11__wrap_iterIPKwEES9_S8_j
         W _ZNSt3__112basic_stringIwNS_11char_traitsIwEENS_9allocatorIwEEE7replaceENS_11__wrap_iterIPKwEES9_St16initializer_listIwE
         W _ZNSt3__112basic_stringIwNS_11char_traitsIwEENS_9allocatorIwEEE7replaceENS_11__wrap_iterIPKwEES9_jw
         W _ZNSt3__112basic_stringIwNS_11char_traitsIwEENS_9allocatorIwEEE7replaceEjjPKw
         W _ZNSt3__112basic_stringIwNS_11char_traitsIwEENS_9allocatorIwEEE7replaceEjjPKwj
         W _ZNSt3__112basic_stringIwNS_11char_traitsIwEENS_9allocatorIwEEE7replaceEjjRKS5_
         W _ZNSt3__112basic_stringIwNS_11char_traitsIwEENS_9allocatorIwEEE7replaceEjjRKS5_jj
         W _ZNSt3__112basic_stringIwNS_11char_traitsIwEENS_9allocatorIwEEE7replaceEjjjw
         C _ZNSt3__112basic_stringIwNS_11char_traitsIwEENS_9allocatorIwEEE7replaceIPKwEENS_9enable_ifIXsr19__is_input_iteratorIT_EE5valueERS5_E4typeENS_11__wrap_iterIS8_EESF_SA_SA_
         W _ZNSt3__112basic_stringIwNS_11char_traitsIwEENS_9allocatorIwEEE7reserveEj
         W _ZNSt3__112basic_stringIwNS_11char_traitsIwEENS_9allocatorIwEEE8pop_backEv
         W _ZNSt3__112basic_stringIwNS_11char_traitsIwEENS_9allocatorIwEEE9__grow_byEjjjjjj
         W _ZNSt3__112basic_stringIwNS_11char_traitsIwEENS_9allocatorIwEEE9push_backEw
         W _ZNSt3__112basic_stringIwNS_11char_traitsIwEENS_9allocatorIwEEEC1EOS5_
         W _ZNSt3__112basic_stringIwNS_11char_traitsIwEENS_9allocatorIwEEEC1EOS5_RKS4_
         W _ZNSt3__112basic_stringIwNS_11char_traitsIwEENS_9allocatorIwEEEC1EPKw
         W _ZNSt3__112basic_stringIwNS_11char_traitsIwEENS_9allocatorIwEEEC1EPKwRKS4_
         W _ZNSt3__112basic_stringIwNS_11char_traitsIwEENS_9allocatorIwEEEC1EPKwj
         W _ZNSt3__112basic_stringIwNS_11char_traitsIwEENS_9allocatorIwEEEC1EPKwjRKS4_
         W _ZNSt3__112basic_stringIwNS_11char_traitsIwEENS_9allocatorIwEEEC1ERKS4_
         W _ZNSt3__112basic_stringIwNS_11char_traitsIwEENS_9allocatorIwEEEC1ERKS5_
         W _ZNSt3__112basic_stringIwNS_11char_traitsIwEENS_9allocatorIwEEEC1ERKS5_RKS4_
         W _ZNSt3__112basic_stringIwNS_11char_traitsIwEENS_9allocatorIwEEEC1ERKS5_jjRKS4_
         W _ZNSt3__112basic_stringIwNS_11char_traitsIwEENS_9allocatorIwEEEC1ESt16initializer_listIwE
         W _ZNSt3__112basic_stringIwNS_11char_traitsIwEENS_9allocatorIwEEEC1ESt16initializer_listIwERKS4_
         W _ZNSt3__112basic_stringIwNS_11char_traitsIwEENS_9allocatorIwEEEC1Ejw
         W _ZNSt3__112basic_stringIwNS_11char_traitsIwEENS_9allocatorIwEEEC1EjwRKS4_
         W _ZNSt3__112basic_stringIwNS_11char_traitsIwEENS_9allocatorIwEEEC1Ev
         W _ZNSt3__112basic_stringIwNS_11char_traitsIwEENS_9allocatorIwEEEC2EOS5_
         W _ZNSt3__112basic_stringIwNS_11char_traitsIwEENS_9allocatorIwEEEC2EOS5_RKS4_
         W _ZNSt3__112basic_stringIwNS_11char_traitsIwEENS_9allocatorIwEEEC2EPKw
         W _ZNSt3__112basic_stringIwNS_11char_traitsIwEENS_9allocatorIwEEEC2EPKwRKS4_
         W _ZNSt3__112basic_stringIwNS_11char_traitsIwEENS_9allocatorIwEEEC2EPKwj
         W _ZNSt3__112basic_stringIwNS_11char_traitsIwEENS_9allocatorIwEEEC2EPKwjRKS4_
         W _ZNSt3__112basic_stringIwNS_11char_traitsIwEENS_9allocatorIwEEEC2ERKS4_
         W _ZNSt3__112basic_stringIwNS_11char_traitsIwEENS_9allocatorIwEEEC2ERKS5_
         W _ZNSt3__112basic_stringIwNS_11char_traitsIwEENS_9allocatorIwEEEC2ERKS5_RKS4_
         W _ZNSt3__112basic_stringIwNS_11char_traitsIwEENS_9allocatorIwEEEC2ERKS5_jjRKS4_
         W _ZNSt3__112basic_stringIwNS_11char_traitsIwEENS_9allocatorIwEEEC2ESt16initializer_listIwE
         W _ZNSt3__112basic_stringIwNS_11char_traitsIwEENS_9allocatorIwEEEC2ESt16initializer_listIwERKS4_
         W _ZNSt3__112basic_stringIwNS_11char_traitsIwEENS_9allocatorIwEEEC2Ejw
         W _ZNSt3__112basic_stringIwNS_11char_traitsIwEENS_9allocatorIwEEEC2EjwRKS4_
         W _ZNSt3__112basic_stringIwNS_11char_traitsIwEENS_9allocatorIwEEEC2Ev
         W _ZNSt3__112basic_stringIwNS_11char_traitsIwEENS_9allocatorIwEEED1Ev
         W _ZNSt3__112basic_stringIwNS_11char_traitsIwEENS_9allocatorIwEEED2Ev
         W _ZNSt3__112basic_stringIwNS_11char_traitsIwEENS_9allocatorIwEEEaSEOS5_
         W _ZNSt3__112basic_stringIwNS_11char_traitsIwEENS_9allocatorIwEEEaSEPKw
         W _ZNSt3__112basic_stringIwNS_11char_traitsIwEENS_9allocatorIwEEEaSERKS5_
         W _ZNSt3__112basic_stringIwNS_11char_traitsIwEENS_9allocatorIwEEEaSESt16initializer_listIwE
         W _ZNSt3__112basic_stringIwNS_11char_traitsIwEENS_9allocatorIwEEEaSEw
         W _ZNSt3__112basic_stringIwNS_11char_traitsIwEENS_9allocatorIwEEEixEj
         W _ZNSt3__112basic_stringIwNS_11char_traitsIwEENS_9allocatorIwEEEpLEPKw
         W _ZNSt3__112basic_stringIwNS_11char_traitsIwEENS_9allocatorIwEEEpLERKS5_
         W _ZNSt3__112basic_stringIwNS_11char_traitsIwEENS_9allocatorIwEEEpLESt16initializer_listIwE
         W _ZNSt3__112basic_stringIwNS_11char_traitsIwEENS_9allocatorIwEEEpLEw
         T _ZNSt3__112ctype_bynameIcEC1EPKcj
         T _ZNSt3__112ctype_bynameIcEC1ERKNS_12basic_stringIcNS_11char_traitsIcEENS_9allocatorIcEEEEj
         T _ZNSt3__112ctype_bynameIcEC2EPKcj
         T _ZNSt3__112ctype_bynameIcEC2ERKNS_12basic_stringIcNS_11char_traitsIcEENS_9allocatorIcEEEEj
         T _ZNSt3__112ctype_bynameIcED0Ev
         T _ZNSt3__112ctype_bynameIcED1Ev
         T _ZNSt3__112ctype_bynameIcED2Ev
         T _ZNSt3__112ctype_bynameIwEC1EPKcj
         T _ZNSt3__112ctype_bynameIwEC1ERKNS_12basic_stringIcNS_11char_traitsIcEENS_9allocatorIcEEEEj
         T _ZNSt3__112ctype_bynameIwEC2EPKcj
         T _ZNSt3__112ctype_bynameIwEC2ERKNS_12basic_stringIcNS_11char_traitsIcEENS_9allocatorIcEEEEj
         T _ZNSt3__112ctype_bynameIwED0Ev
         T _ZNSt3__112ctype_bynameIwED1Ev
         T _ZNSt3__112ctype_bynameIwED2Ev
         T _ZNSt3__112future_errorC1ENS_10error_codeE
         T _ZNSt3__112future_errorC2ENS_10error_codeE
         C _ZNSt3__112future_errorC2ERKS0_
         T _ZNSt3__112future_errorD0Ev
         T _ZNSt3__112future_errorD1Ev
         T _ZNSt3__112future_errorD2Ev
         D _ZNSt3__112placeholders2_1E
         D _ZNSt3__112placeholders2_2E
         D _ZNSt3__112placeholders2_3E
         D _ZNSt3__112placeholders2_4E
         D _ZNSt3__112placeholders2_5E
         D _ZNSt3__112placeholders2_6E
         D _ZNSt3__112placeholders2_7E
         D _ZNSt3__112placeholders2_8E
         D _ZNSt3__112placeholders2_9E
         D _ZNSt3__112placeholders3_10E
         T _ZNSt3__112strstreambuf3strEv
         T _ZNSt3__112strstreambuf4swapERS0_
         T _ZNSt3__112strstreambuf6__initEPciS1_
         T _ZNSt3__112strstreambuf6freezeEb
         T _ZNSt3__112strstreambuf7seekoffExNS_8ios_base7seekdirEj
         T _ZNSt3__112strstreambuf7seekposENS_4fposI11__mbstate_tEEj
         T _ZNSt3__112strstreambuf8overflowEi
         T _ZNSt3__112strstreambuf9pbackfailEi
         T _ZNSt3__112strstreambuf9underflowEv
         T _ZNSt3__112strstreambufC1EPFPvjEPFvS1_E
         T _ZNSt3__112strstreambufC1EPKai
         T _ZNSt3__112strstreambufC1EPKci
         T _ZNSt3__112strstreambufC1EPKhi
         T _ZNSt3__112strstreambufC1EPaiS1_
         T _ZNSt3__112strstreambufC1EPciS1_
         T _ZNSt3__112strstreambufC1EPhiS1_
         T _ZNSt3__112strstreambufC1Ei
         T _ZNSt3__112strstreambufC2EPFPvjEPFvS1_E
         T _ZNSt3__112strstreambufC2EPKai
         T _ZNSt3__112strstreambufC2EPKci
         T _ZNSt3__112strstreambufC2EPKhi
         T _ZNSt3__112strstreambufC2EPaiS1_
         T _ZNSt3__112strstreambufC2EPciS1_
         T _ZNSt3__112strstreambufC2EPhiS1_
         T _ZNSt3__112strstreambufC2Ei
         T _ZNSt3__112strstreambufD0Ev
         T _ZNSt3__112strstreambufD1Ev
         T _ZNSt3__112strstreambufD2Ev
         T _ZNSt3__112system_error6__initERKNS_10error_codeENS_12basic_stringIcNS_11char_traitsIcEENS_9allocatorIcEEEE
         T _ZNSt3__112system_errorC1ENS_10error_codeE
         T _ZNSt3__112system_errorC1ENS_10error_codeEPKc
         T _ZNSt3__112system_errorC1ENS_10error_codeERKNS_12basic_stringIcNS_11char_traitsIcEENS_9allocatorIcEEEE
         T _ZNSt3__112system_errorC1EiRKNS_14error_categoryE
         T _ZNSt3__112system_errorC1EiRKNS_14error_categoryEPKc
         T _ZNSt3__112system_errorC1EiRKNS_14error_categoryERKNS_12basic_stringIcNS_11char_traitsIcEENS_9allocatorIcEEEE
         T _ZNSt3__112system_errorC2ENS_10error_codeE
         T _ZNSt3__112system_errorC2ENS_10error_codeEPKc
         T _ZNSt3__112system_errorC2ENS_10error_codeERKNS_12basic_stringIcNS_11char_traitsIcEENS_9allocatorIcEEEE
         T _ZNSt3__112system_errorC2EiRKNS_14error_categoryE
         T _ZNSt3__112system_errorC2EiRKNS_14error_categoryEPKc
         T _ZNSt3__112system_errorC2EiRKNS_14error_categoryERKNS_12basic_stringIcNS_11char_traitsIcEENS_9allocatorIcEEEE
         T _ZNSt3__112system_errorD0Ev
         T _ZNSt3__112system_errorD1Ev
         T _ZNSt3__112system_errorD2Ev
         C _ZNSt3__113__lower_boundIRNS_6__lessIjjEEPKjjEET0_S6_S6_RKT1_T_
         C _ZNSt3__113__vector_baseINS_4pairIPNS_18condition_variableEPNS_5mutexEEENS_18__hidden_allocatorIS6_EEED2Ev
         C _ZNSt3__113__vector_baseIPNS_17__assoc_sub_stateENS_18__hidden_allocatorIS2_EEED2Ev
         C _ZNSt3__113__vector_baseIPNS_6locale5facetENS_15__sso_allocatorIS3_Lj28EEEED2Ev
         D _ZNSt3__113allocator_argE
         W _ZNSt3__113basic_istreamIcNS_11char_traitsIcEEE3getEPci
         W _ZNSt3__113basic_istreamIcNS_11char_traitsIcEEE3getEPcic
         W _ZNSt3__113basic_istreamIcNS_11char_traitsIcEEE3getERNS_15basic_streambufIcS2_EE
         W _ZNSt3__113basic_istreamIcNS_11char_traitsIcEEE3getERNS_15basic_streambufIcS2_EEc
         W _ZNSt3__113basic_istreamIcNS_11char_traitsIcEEE3getERc
         W _ZNSt3__113basic_istreamIcNS_11char_traitsIcEEE3getEv
         W _ZNSt3__113basic_istreamIcNS_11char_traitsIcEEE4peekEv
         W _ZNSt3__113basic_istreamIcNS_11char_traitsIcEEE4readEPci
         W _ZNSt3__113basic_istreamIcNS_11char_traitsIcEEE4swapERS3_
         W _ZNSt3__113basic_istreamIcNS_11char_traitsIcEEE4syncEv
         W _ZNSt3__113basic_istreamIcNS_11char_traitsIcEEE5seekgENS_4fposI11__mbstate_tEE
         W _ZNSt3__113basic_istreamIcNS_11char_traitsIcEEE5seekgExNS_8ios_base7seekdirE
         W _ZNSt3__113basic_istreamIcNS_11char_traitsIcEEE5tellgEv
         W _ZNSt3__113basic_istreamIcNS_11char_traitsIcEEE5ungetEv
         W _ZNSt3__113basic_istreamIcNS_11char_traitsIcEEE6ignoreEii
         W _ZNSt3__113basic_istreamIcNS_11char_traitsIcEEE6sentryC1ERS3_b
         W _ZNSt3__113basic_istreamIcNS_11char_traitsIcEEE6sentryC2ERS3_b
         W _ZNSt3__113basic_istreamIcNS_11char_traitsIcEEE7getlineEPci
         W _ZNSt3__113basic_istreamIcNS_11char_traitsIcEEE7getlineEPcic
         W _ZNSt3__113basic_istreamIcNS_11char_traitsIcEEE7putbackEc
         W _ZNSt3__113basic_istreamIcNS_11char_traitsIcEEE8readsomeEPci
         W _ZNSt3__113basic_istreamIcNS_11char_traitsIcEEEC1EOS3_
         W _ZNSt3__113basic_istreamIcNS_11char_traitsIcEEEC1EPNS_15basic_streambufIcS2_EE
         W _ZNSt3__113basic_istreamIcNS_11char_traitsIcEEEC2EOS3_
         W _ZNSt3__113basic_istreamIcNS_11char_traitsIcEEEC2EPNS_15basic_streambufIcS2_EE
         W _ZNSt3__113basic_istreamIcNS_11char_traitsIcEEED0Ev
         W _ZNSt3__113basic_istreamIcNS_11char_traitsIcEEED1Ev
         W _ZNSt3__113basic_istreamIcNS_11char_traitsIcEEED2Ev
         W _ZNSt3__113basic_istreamIcNS_11char_traitsIcEEEaSEOS3_
         W _ZNSt3__113basic_istreamIcNS_11char_traitsIcEEErsEPFRNS_8ios_baseES5_E
         W _ZNSt3__113basic_istreamIcNS_11char_traitsIcEEErsEPFRNS_9basic_iosIcS2_EES6_E
         W _ZNSt3__113basic_istreamIcNS_11char_traitsIcEEErsEPFRS3_S4_E
         W _ZNSt3__113basic_istreamIcNS_11char_traitsIcEEErsEPNS_15basic_streambufIcS2_EE
         W _ZNSt3__113basic_istreamIcNS_11char_traitsIcEEErsERPv
         W _ZNSt3__113basic_istreamIcNS_11char_traitsIcEEErsERb
         W _ZNSt3__113basic_istreamIcNS_11char_traitsIcEEErsERd
         W _ZNSt3__113basic_istreamIcNS_11char_traitsIcEEErsERe
         W _ZNSt3__113basic_istreamIcNS_11char_traitsIcEEErsERf
         W _ZNSt3__113basic_istreamIcNS_11char_traitsIcEEErsERi
         W _ZNSt3__113basic_istreamIcNS_11char_traitsIcEEErsERj
         W _ZNSt3__113basic_istreamIcNS_11char_traitsIcEEErsERl
         W _ZNSt3__113basic_istreamIcNS_11char_traitsIcEEErsERm
         W _ZNSt3__113basic_istreamIcNS_11char_traitsIcEEErsERs
         W _ZNSt3__113basic_istreamIcNS_11char_traitsIcEEErsERt
         W _ZNSt3__113basic_istreamIcNS_11char_traitsIcEEErsERx
         W _ZNSt3__113basic_istreamIcNS_11char_traitsIcEEErsERy
         W _ZNSt3__113basic_istreamIwNS_11char_traitsIwEEE3getEPwi
         W _ZNSt3__113basic_istreamIwNS_11char_traitsIwEEE3getEPwiw
         W _ZNSt3__113basic_istreamIwNS_11char_traitsIwEEE3getERNS_15basic_streambufIwS2_EE
         W _ZNSt3__113basic_istreamIwNS_11char_traitsIwEEE3getERNS_15basic_streambufIwS2_EEw
         W _ZNSt3__113basic_istreamIwNS_11char_traitsIwEEE3getERw
         W _ZNSt3__113basic_istreamIwNS_11char_traitsIwEEE3getEv
         W _ZNSt3__113basic_istreamIwNS_11char_traitsIwEEE4peekEv
         W _ZNSt3__113basic_istreamIwNS_11char_traitsIwEEE4readEPwi
         W _ZNSt3__113basic_istreamIwNS_11char_traitsIwEEE4swapERS3_
         W _ZNSt3__113basic_istreamIwNS_11char_traitsIwEEE4syncEv
         W _ZNSt3__113basic_istreamIwNS_11char_traitsIwEEE5seekgENS_4fposI11__mbstate_tEE
         W _ZNSt3__113basic_istreamIwNS_11char_traitsIwEEE5seekgExNS_8ios_base7seekdirE
         W _ZNSt3__113basic_istreamIwNS_11char_traitsIwEEE5tellgEv
         W _ZNSt3__113basic_istreamIwNS_11char_traitsIwEEE5ungetEv
         W _ZNSt3__113basic_istreamIwNS_11char_traitsIwEEE6ignoreEij
         W _ZNSt3__113basic_istreamIwNS_11char_traitsIwEEE6sentryC1ERS3_b
         W _ZNSt3__113basic_istreamIwNS_11char_traitsIwEEE6sentryC2ERS3_b
         W _ZNSt3__113basic_istreamIwNS_11char_traitsIwEEE7getlineEPwi
         W _ZNSt3__113basic_istreamIwNS_11char_traitsIwEEE7getlineEPwiw
         W _ZNSt3__113basic_istreamIwNS_11char_traitsIwEEE7putbackEw
         W _ZNSt3__113basic_istreamIwNS_11char_traitsIwEEE8readsomeEPwi
         W _ZNSt3__113basic_istreamIwNS_11char_traitsIwEEEC1EOS3_
         W _ZNSt3__113basic_istreamIwNS_11char_traitsIwEEEC1EPNS_15basic_streambufIwS2_EE
         W _ZNSt3__113basic_istreamIwNS_11char_traitsIwEEEC2EOS3_
         W _ZNSt3__113basic_istreamIwNS_11char_traitsIwEEEC2EPNS_15basic_streambufIwS2_EE
         W _ZNSt3__113basic_istreamIwNS_11char_traitsIwEEED0Ev
         W _ZNSt3__113basic_istreamIwNS_11char_traitsIwEEED1Ev
         W _ZNSt3__113basic_istreamIwNS_11char_traitsIwEEED2Ev
         W _ZNSt3__113basic_istreamIwNS_11char_traitsIwEEEaSEOS3_
         W _ZNSt3__113basic_istreamIwNS_11char_traitsIwEEErsEPFRNS_8ios_baseES5_E
         W _ZNSt3__113basic_istreamIwNS_11char_traitsIwEEErsEPFRNS_9basic_iosIwS2_EES6_E
         W _ZNSt3__113basic_istreamIwNS_11char_traitsIwEEErsEPFRS3_S4_E
         W _ZNSt3__113basic_istreamIwNS_11char_traitsIwEEErsEPNS_15basic_streambufIwS2_EE
         W _ZNSt3__113basic_istreamIwNS_11char_traitsIwEEErsERPv
         W _ZNSt3__113basic_istreamIwNS_11char_traitsIwEEErsERb
         W _ZNSt3__113basic_istreamIwNS_11char_traitsIwEEErsERd
         W _ZNSt3__113basic_istreamIwNS_11char_traitsIwEEErsERe
         W _ZNSt3__113basic_istreamIwNS_11char_traitsIwEEErsERf
         W _ZNSt3__113basic_istreamIwNS_11char_traitsIwEEErsERi
         W _ZNSt3__113basic_istreamIwNS_11char_traitsIwEEErsERj
         W _ZNSt3__113basic_istreamIwNS_11char_traitsIwEEErsERl
         W _ZNSt3__113basic_istreamIwNS_11char_traitsIwEEErsERm
         W _ZNSt3__113basic_istreamIwNS_11char_traitsIwEEErsERs
         W _ZNSt3__113basic_istreamIwNS_11char_traitsIwEEErsERt
         W _ZNSt3__113basic_istreamIwNS_11char_traitsIwEEErsERx
         W _ZNSt3__113basic_istreamIwNS_11char_traitsIwEEErsERy
         W _ZNSt3__113basic_ostreamIcNS_11char_traitsIcEEE3putEc
         W _ZNSt3__113basic_ostreamIcNS_11char_traitsIcEEE4swapERS3_
         W _ZNSt3__113basic_ostreamIcNS_11char_traitsIcEEE5flushEv
         W _ZNSt3__113basic_ostreamIcNS_11char_traitsIcEEE5seekpENS_4fposI11__mbstate_tEE
         W _ZNSt3__113basic_ostreamIcNS_11char_traitsIcEEE5seekpExNS_8ios_base7seekdirE
         W _ZNSt3__113basic_ostreamIcNS_11char_traitsIcEEE5tellpEv
         W _ZNSt3__113basic_ostreamIcNS_11char_traitsIcEEE5writeEPKci
         W _ZNSt3__113basic_ostreamIcNS_11char_traitsIcEEE6sentryC1ERS3_
         W _ZNSt3__113basic_ostreamIcNS_11char_traitsIcEEE6sentryC2ERS3_
         W _ZNSt3__113basic_ostreamIcNS_11char_traitsIcEEE6sentryD1Ev
         W _ZNSt3__113basic_ostreamIcNS_11char_traitsIcEEE6sentryD2Ev
         W _ZNSt3__113basic_ostreamIcNS_11char_traitsIcEEEC1EOS3_
         W _ZNSt3__113basic_ostreamIcNS_11char_traitsIcEEEC1EPNS_15basic_streambufIcS2_EE
         W _ZNSt3__113basic_ostreamIcNS_11char_traitsIcEEEC1Ev
         W _ZNSt3__113basic_ostreamIcNS_11char_traitsIcEEEC2EOS3_
         W _ZNSt3__113basic_ostreamIcNS_11char_traitsIcEEEC2EPNS_15basic_streambufIcS2_EE
         W _ZNSt3__113basic_ostreamIcNS_11char_traitsIcEEEC2Ev
         W _ZNSt3__113basic_ostreamIcNS_11char_traitsIcEEED0Ev
         W _ZNSt3__113basic_ostreamIcNS_11char_traitsIcEEED1Ev
         W _ZNSt3__113basic_ostreamIcNS_11char_traitsIcEEED2Ev
         W _ZNSt3__113basic_ostreamIcNS_11char_traitsIcEEEaSEOS3_
         W _ZNSt3__113basic_ostreamIcNS_11char_traitsIcEEElsEPFRNS_8ios_baseES5_E
         W _ZNSt3__113basic_ostreamIcNS_11char_traitsIcEEElsEPFRNS_9basic_iosIcS2_EES6_E
         W _ZNSt3__113basic_ostreamIcNS_11char_traitsIcEEElsEPFRS3_S4_E
         W _ZNSt3__113basic_ostreamIcNS_11char_traitsIcEEElsEPKv
         W _ZNSt3__113basic_ostreamIcNS_11char_traitsIcEEElsEPNS_15basic_streambufIcS2_EE
         W _ZNSt3__113basic_ostreamIcNS_11char_traitsIcEEElsEb
         W _ZNSt3__113basic_ostreamIcNS_11char_traitsIcEEElsEd
         W _ZNSt3__113basic_ostreamIcNS_11char_traitsIcEEElsEe
         W _ZNSt3__113basic_ostreamIcNS_11char_traitsIcEEElsEf
         W _ZNSt3__113basic_ostreamIcNS_11char_traitsIcEEElsEi
         W _ZNSt3__113basic_ostreamIcNS_11char_traitsIcEEElsEj
         W _ZNSt3__113basic_ostreamIcNS_11char_traitsIcEEElsEl
         W _ZNSt3__113basic_ostreamIcNS_11char_traitsIcEEElsEm
         W _ZNSt3__113basic_ostreamIcNS_11char_traitsIcEEElsEs
         W _ZNSt3__113basic_ostreamIcNS_11char_traitsIcEEElsEt
         W _ZNSt3__113basic_ostreamIcNS_11char_traitsIcEEElsEx
         W _ZNSt3__113basic_ostreamIcNS_11char_traitsIcEEElsEy
         W _ZNSt3__113basic_ostreamIwNS_11char_traitsIwEEE3putEw
         W _ZNSt3__113basic_ostreamIwNS_11char_traitsIwEEE4swapERS3_
         W _ZNSt3__113basic_ostreamIwNS_11char_traitsIwEEE5flushEv
         W _ZNSt3__113basic_ostreamIwNS_11char_traitsIwEEE5seekpENS_4fposI11__mbstate_tEE
         W _ZNSt3__113basic_ostreamIwNS_11char_traitsIwEEE5seekpExNS_8ios_base7seekdirE
         W _ZNSt3__113basic_ostreamIwNS_11char_traitsIwEEE5tellpEv
         W _ZNSt3__113basic_ostreamIwNS_11char_traitsIwEEE5writeEPKwi
         W _ZNSt3__113basic_ostreamIwNS_11char_traitsIwEEE6sentryC1ERS3_
         W _ZNSt3__113basic_ostreamIwNS_11char_traitsIwEEE6sentryC2ERS3_
         W _ZNSt3__113basic_ostreamIwNS_11char_traitsIwEEE6sentryD1Ev
         W _ZNSt3__113basic_ostreamIwNS_11char_traitsIwEEE6sentryD2Ev
         W _ZNSt3__113basic_ostreamIwNS_11char_traitsIwEEEC1EOS3_
         W _ZNSt3__113basic_ostreamIwNS_11char_traitsIwEEEC1EPNS_15basic_streambufIwS2_EE
         W _ZNSt3__113basic_ostreamIwNS_11char_traitsIwEEEC1Ev
         W _ZNSt3__113basic_ostreamIwNS_11char_traitsIwEEEC2EOS3_
         W _ZNSt3__113basic_ostreamIwNS_11char_traitsIwEEEC2EPNS_15basic_streambufIwS2_EE
         W _ZNSt3__113basic_ostreamIwNS_11char_traitsIwEEEC2Ev
         W _ZNSt3__113basic_ostreamIwNS_11char_traitsIwEEED0Ev
         W _ZNSt3__113basic_ostreamIwNS_11char_traitsIwEEED1Ev
         W _ZNSt3__113basic_ostreamIwNS_11char_traitsIwEEED2Ev
         W _ZNSt3__113basic_ostreamIwNS_11char_traitsIwEEEaSEOS3_
         W _ZNSt3__113basic_ostreamIwNS_11char_traitsIwEEElsEPFRNS_8ios_baseES5_E
         W _ZNSt3__113basic_ostreamIwNS_11char_traitsIwEEElsEPFRNS_9basic_iosIwS2_EES6_E
         W _ZNSt3__113basic_ostreamIwNS_11char_traitsIwEEElsEPFRS3_S4_E
         W _ZNSt3__113basic_ostreamIwNS_11char_traitsIwEEElsEPKv
         W _ZNSt3__113basic_ostreamIwNS_11char_traitsIwEEElsEPNS_15basic_streambufIwS2_EE
         W _ZNSt3__113basic_ostreamIwNS_11char_traitsIwEEElsEb
         W _ZNSt3__113basic_ostreamIwNS_11char_traitsIwEEElsEd
         W _ZNSt3__113basic_ostreamIwNS_11char_traitsIwEEElsEe
         W _ZNSt3__113basic_ostreamIwNS_11char_traitsIwEEElsEf
         W _ZNSt3__113basic_ostreamIwNS_11char_traitsIwEEElsEi
         W _ZNSt3__113basic_ostreamIwNS_11char_traitsIwEEElsEj
         W _ZNSt3__113basic_ostreamIwNS_11char_traitsIwEEElsEl
         W _ZNSt3__113basic_ostreamIwNS_11char_traitsIwEEElsEm
         W _ZNSt3__113basic_ostreamIwNS_11char_traitsIwEEElsEs
         W _ZNSt3__113basic_ostreamIwNS_11char_traitsIwEEElsEt
         W _ZNSt3__113basic_ostreamIwNS_11char_traitsIwEEElsEx
         W _ZNSt3__113basic_ostreamIwNS_11char_traitsIwEEElsEy
         T _ZNSt3__113random_deviceC1ERKNS_12basic_stringIcNS_11char_traitsIcEENS_9allocatorIcEEEE
         T _ZNSt3__113random_deviceC2ERKNS_12basic_stringIcNS_11char_traitsIcEENS_9allocatorIcEEEE
         T _ZNSt3__113random_deviceD1Ev
         T _ZNSt3__113random_deviceD2Ev
         T _ZNSt3__113random_deviceclEv
         T _ZNSt3__113shared_futureIvED1Ev
         T _ZNSt3__113shared_futureIvED2Ev
         T _ZNSt3__113shared_futureIvEaSERKS1_
         C _ZNSt3__114__codecvt_utf8IDiED0Ev
         C _ZNSt3__114__codecvt_utf8IDiED1Ev
         C _ZNSt3__114__codecvt_utf8IDsED0Ev
         C _ZNSt3__114__codecvt_utf8IDsED1Ev
         C _ZNSt3__114__codecvt_utf8IwED0Ev
         C _ZNSt3__114__codecvt_utf8IwED1Ev
         T _ZNSt3__114__get_const_dbEv
         T _ZNSt3__114__num_get_base10__get_baseERNS_8ios_baseE
         D _ZNSt3__114__num_get_base5__srcE
         T _ZNSt3__114__num_put_base12__format_intEPcPKcbj
         T _ZNSt3__114__num_put_base14__format_floatEPcPKcj
         T _ZNSt3__114__num_put_base18__identify_paddingEPcS1_RKNS_8ios_baseE
         C _ZNSt3__114__scan_keywordINS_19istreambuf_iteratorIcNS_11char_traitsIcEEEEPKNS_12basic_stringIcS3_NS_9allocatorIcEEEENS_5ctypeIcEEEET0_RT_SE_SD_SD_RKT1_Rjb
         C _ZNSt3__114__scan_keywordINS_19istreambuf_iteratorIwNS_11char_traitsIwEEEEPKNS_12basic_stringIwS3_NS_9allocatorIwEEEENS_5ctypeIwEEEET0_RT_SE_SD_SD_RKT1_Rjb
         C _ZNSt3__114__scan_keywordIPcPNS_12basic_stringIcNS_11char_traitsIcEENS_9allocatorIcEEEENS_5ctypeIcEEEET0_RT_SC_SB_SB_RKT1_Rjb
         C _ZNSt3__114__scan_keywordIPwPNS_12basic_stringIwNS_11char_traitsIwEENS_9allocatorIwEEEENS_5ctypeIwEEEET0_RT_SC_SB_SB_RKT1_Rjb
         T _ZNSt3__114__shared_count12__add_sharedEv
         T _ZNSt3__114__shared_count16__release_sharedEv
         T _ZNSt3__114__shared_countD0Ev
         T _ZNSt3__114__shared_countD1Ev
         T _ZNSt3__114__shared_countD2Ev
         C _ZNSt3__114__split_bufferINS_4pairIPNS_18condition_variableEPNS_5mutexEEERNS_18__hidden_allocatorIS6_EEEC2EjjS9_
         C _ZNSt3__114__split_bufferINS_4pairIPNS_18condition_variableEPNS_5mutexEEERNS_18__hidden_allocatorIS6_EEED2Ev
         C _ZNSt3__114__split_bufferIPNS_17__assoc_sub_stateERNS_18__hidden_allocatorIS2_EEEC2EjjS5_
         C _ZNSt3__114__split_bufferIPNS_17__assoc_sub_stateERNS_18__hidden_allocatorIS2_EEED2Ev
         C _ZNSt3__114__split_bufferIPNS_6locale5facetERNS_15__sso_allocatorIS3_Lj28EEEE18__construct_at_endEj
         C _ZNSt3__114__split_bufferIPNS_6locale5facetERNS_15__sso_allocatorIS3_Lj28EEEEC2EjjS6_
         C _ZNSt3__114__split_bufferIPNS_6locale5facetERNS_15__sso_allocatorIS3_Lj28EEEED2Ev
         W _ZNSt3__114basic_iostreamIcNS_11char_traitsIcEEE4swapERS3_
         W _ZNSt3__114basic_iostreamIcNS_11char_traitsIcEEEC1EOS3_
         W _ZNSt3__114basic_iostreamIcNS_11char_traitsIcEEEC1EPNS_15basic_streambufIcS2_EE
         W _ZNSt3__114basic_iostreamIcNS_11char_traitsIcEEEC2EOS3_
         W _ZNSt3__114basic_iostreamIcNS_11char_traitsIcEEEC2EPNS_15basic_streambufIcS2_EE
         W _ZNSt3__114basic_iostreamIcNS_11char_traitsIcEEED0Ev
         W _ZNSt3__114basic_iostreamIcNS_11char_traitsIcEEED1Ev
         W _ZNSt3__114basic_iostreamIcNS_11char_traitsIcEEED2Ev
         W _ZNSt3__114basic_iostreamIcNS_11char_traitsIcEEEaSEOS3_
         W _ZNSt3__114codecvt_bynameIDic11__mbstate_tEC1EPKcj
         W _ZNSt3__114codecvt_bynameIDic11__mbstate_tEC1ERKNS_12basic_stringIcNS_11char_traitsIcEENS_9allocatorIcEEEEj
         W _ZNSt3__114codecvt_bynameIDic11__mbstate_tEC2EPKcj
         W _ZNSt3__114codecvt_bynameIDic11__mbstate_tEC2ERKNS_12basic_stringIcNS_11char_traitsIcEENS_9allocatorIcEEEEj
         W _ZNSt3__114codecvt_bynameIDic11__mbstate_tED0Ev
         W _ZNSt3__114codecvt_bynameIDic11__mbstate_tED1Ev
         W _ZNSt3__114codecvt_bynameIDic11__mbstate_tED2Ev
         W _ZNSt3__114codecvt_bynameIDsc11__mbstate_tEC1EPKcj
         W _ZNSt3__114codecvt_bynameIDsc11__mbstate_tEC1ERKNS_12basic_stringIcNS_11char_traitsIcEENS_9allocatorIcEEEEj
         W _ZNSt3__114codecvt_bynameIDsc11__mbstate_tEC2EPKcj
         W _ZNSt3__114codecvt_bynameIDsc11__mbstate_tEC2ERKNS_12basic_stringIcNS_11char_traitsIcEENS_9allocatorIcEEEEj
         W _ZNSt3__114codecvt_bynameIDsc11__mbstate_tED0Ev
         W _ZNSt3__114codecvt_bynameIDsc11__mbstate_tED1Ev
         W _ZNSt3__114codecvt_bynameIDsc11__mbstate_tED2Ev
         W _ZNSt3__114codecvt_bynameIcc11__mbstate_tEC1EPKcj
         W _ZNSt3__114codecvt_bynameIcc11__mbstate_tEC1ERKNS_12basic_stringIcNS_11char_traitsIcEENS_9allocatorIcEEEEj
         W _ZNSt3__114codecvt_bynameIcc11__mbstate_tEC2EPKcj
         W _ZNSt3__114codecvt_bynameIcc11__mbstate_tEC2ERKNS_12basic_stringIcNS_11char_traitsIcEENS_9allocatorIcEEEEj
         W _ZNSt3__114codecvt_bynameIcc11__mbstate_tED0Ev
         W _ZNSt3__114codecvt_bynameIcc11__mbstate_tED1Ev
         W _ZNSt3__114codecvt_bynameIcc11__mbstate_tED2Ev
         W _ZNSt3__114codecvt_bynameIwc11__mbstate_tEC1EPKcj
         W _ZNSt3__114codecvt_bynameIwc11__mbstate_tEC1ERKNS_12basic_stringIcNS_11char_traitsIcEENS_9allocatorIcEEEEj
         W _ZNSt3__114codecvt_bynameIwc11__mbstate_tEC2EPKcj
         W _ZNSt3__114codecvt_bynameIwc11__mbstate_tEC2ERKNS_12basic_stringIcNS_11char_traitsIcEENS_9allocatorIcEEEEj
         W _ZNSt3__114codecvt_bynameIwc11__mbstate_tED0Ev
         W _ZNSt3__114codecvt_bynameIwc11__mbstate_tED1Ev
         W _ZNSt3__114codecvt_bynameIwc11__mbstate_tED2Ev
         T _ZNSt3__114collate_bynameIcEC1EPKcj
         T _ZNSt3__114collate_bynameIcEC1ERKNS_12basic_stringIcNS_11char_traitsIcEENS_9allocatorIcEEEEj
         T _ZNSt3__114collate_bynameIcEC2EPKcj
         T _ZNSt3__114collate_bynameIcEC2ERKNS_12basic_stringIcNS_11char_traitsIcEENS_9allocatorIcEEEEj
         T _ZNSt3__114collate_bynameIcED0Ev
         T _ZNSt3__114collate_bynameIcED1Ev
         T _ZNSt3__114collate_bynameIcED2Ev
         T _ZNSt3__114collate_bynameIwEC1EPKcj
         T _ZNSt3__114collate_bynameIwEC1ERKNS_12basic_stringIcNS_11char_traitsIcEENS_9allocatorIcEEEEj
         T _ZNSt3__114collate_bynameIwEC2EPKcj
         T _ZNSt3__114collate_bynameIwEC2ERKNS_12basic_stringIcNS_11char_traitsIcEENS_9allocatorIcEEEEj
         T _ZNSt3__114collate_bynameIwED0Ev
         T _ZNSt3__114collate_bynameIwED1Ev
         T _ZNSt3__114collate_bynameIwED2Ev
         T _ZNSt3__114error_categoryC2Ev
         T _ZNSt3__114error_categoryD0Ev
         T _ZNSt3__114error_categoryD1Ev
         T _ZNSt3__114error_categoryD2Ev
         C _ZNSt3__115__codecvt_utf16IDiLb0EED0Ev
         C _ZNSt3__115__codecvt_utf16IDiLb0EED1Ev
         C _ZNSt3__115__codecvt_utf16IDiLb1EED0Ev
         C _ZNSt3__115__codecvt_utf16IDiLb1EED1Ev
         C _ZNSt3__115__codecvt_utf16IDsLb0EED0Ev
         C _ZNSt3__115__codecvt_utf16IDsLb0EED1Ev
         C _ZNSt3__115__codecvt_utf16IDsLb1EED0Ev
         C _ZNSt3__115__codecvt_utf16IDsLb1EED1Ev
         C _ZNSt3__115__codecvt_utf16IwLb0EED0Ev
         C _ZNSt3__115__codecvt_utf16IwLb0EED1Ev
         C _ZNSt3__115__codecvt_utf16IwLb1EED0Ev
         C _ZNSt3__115__codecvt_utf16IwLb1EED1Ev
         T _ZNSt3__115__get_classnameEPKcb
         C _ZNSt3__115__num_get_floatIdEET_PKcS3_Rj
         C _ZNSt3__115__num_get_floatIeEET_PKcS3_Rj
         C _ZNSt3__115__num_get_floatIfEET_PKcS3_Rj
         T _ZNSt3__115__thread_struct25notify_all_at_thread_exitEPNS_18condition_variableEPNS_5mutexE
         T _ZNSt3__115__thread_struct27__make_ready_at_thread_exitEPNS_17__assoc_sub_stateE
         T _ZNSt3__115__thread_structC1Ev
         T _ZNSt3__115__thread_structC2Ev
         T _ZNSt3__115__thread_structD1Ev
         T _ZNSt3__115__thread_structD2Ev
         C _ZNSt3__115__time_get_tempIcEC2EPKc
         C _ZNSt3__115__time_get_tempIcEC2ERKNS_12basic_stringIcNS_11char_traitsIcEENS_9allocatorIcEEEE
         C _ZNSt3__115__time_get_tempIcED0Ev
         C _ZNSt3__115__time_get_tempIcED1Ev
         C _ZNSt3__115__time_get_tempIwEC2EPKc
         C _ZNSt3__115__time_get_tempIwEC2ERKNS_12basic_stringIcNS_11char_traitsIcEENS_9allocatorIcEEEE
         C _ZNSt3__115__time_get_tempIwED0Ev
         C _ZNSt3__115__time_get_tempIwED1Ev
         W _ZNSt3__115basic_streambufIcNS_11char_traitsIcEEE10pubseekoffExNS_8ios_base7seekdirEj
         W _ZNSt3__115basic_streambufIcNS_11char_traitsIcEEE10pubseekposENS_4fposI11__mbstate_tEEj
         W _ZNSt3__115basic_streambufIcNS_11char_traitsIcEEE4setgEPcS4_S4_
         W _ZNSt3__115basic_streambufIcNS_11char_traitsIcEEE4setpEPcS4_
         W _ZNSt3__115basic_streambufIcNS_11char_traitsIcEEE4swapERS3_
         W _ZNSt3__115basic_streambufIcNS_11char_traitsIcEEE4syncEv
         W _ZNSt3__115basic_streambufIcNS_11char_traitsIcEEE5gbumpEi
         W _ZNSt3__115basic_streambufIcNS_11char_traitsIcEEE5imbueERKNS_6localeE
         W _ZNSt3__115basic_streambufIcNS_11char_traitsIcEEE5pbumpEi
         W _ZNSt3__115basic_streambufIcNS_11char_traitsIcEEE5sgetcEv
         W _ZNSt3__115basic_streambufIcNS_11char_traitsIcEEE5sgetnEPci
         W _ZNSt3__115basic_streambufIcNS_11char_traitsIcEEE5sputcEc
         W _ZNSt3__115basic_streambufIcNS_11char_traitsIcEEE5sputnEPKci
         W _ZNSt3__115basic_streambufIcNS_11char_traitsIcEEE5uflowEv
         W _ZNSt3__115basic_streambufIcNS_11char_traitsIcEEE6sbumpcEv
         W _ZNSt3__115basic_streambufIcNS_11char_traitsIcEEE6setbufEPci
         W _ZNSt3__115basic_streambufIcNS_11char_traitsIcEEE6snextcEv
         W _ZNSt3__115basic_streambufIcNS_11char_traitsIcEEE6xsgetnEPci
         W _ZNSt3__115basic_streambufIcNS_11char_traitsIcEEE6xsputnEPKci
         W _ZNSt3__115basic_streambufIcNS_11char_traitsIcEEE7pubsyncEv
         W _ZNSt3__115basic_streambufIcNS_11char_traitsIcEEE7seekoffExNS_8ios_base7seekdirEj
         W _ZNSt3__115basic_streambufIcNS_11char_traitsIcEEE7seekposENS_4fposI11__mbstate_tEEj
         W _ZNSt3__115basic_streambufIcNS_11char_traitsIcEEE7sungetcEv
         W _ZNSt3__115basic_streambufIcNS_11char_traitsIcEEE8in_availEv
         W _ZNSt3__115basic_streambufIcNS_11char_traitsIcEEE8overflowEi
         W _ZNSt3__115basic_streambufIcNS_11char_traitsIcEEE8pubimbueERKNS_6localeE
         W _ZNSt3__115basic_streambufIcNS_11char_traitsIcEEE9pbackfailEi
         W _ZNSt3__115basic_streambufIcNS_11char_traitsIcEEE9pubsetbufEPci
         W _ZNSt3__115basic_streambufIcNS_11char_traitsIcEEE9showmanycEv
         W _ZNSt3__115basic_streambufIcNS_11char_traitsIcEEE9sputbackcEc
         W _ZNSt3__115basic_streambufIcNS_11char_traitsIcEEE9underflowEv
         W _ZNSt3__115basic_streambufIcNS_11char_traitsIcEEEC1ERKS3_
         W _ZNSt3__115basic_streambufIcNS_11char_traitsIcEEEC1Ev
         W _ZNSt3__115basic_streambufIcNS_11char_traitsIcEEEC2ERKS3_
         W _ZNSt3__115basic_streambufIcNS_11char_traitsIcEEEC2Ev
         W _ZNSt3__115basic_streambufIcNS_11char_traitsIcEEED0Ev
         W _ZNSt3__115basic_streambufIcNS_11char_traitsIcEEED1Ev
         W _ZNSt3__115basic_streambufIcNS_11char_traitsIcEEED2Ev
         W _ZNSt3__115basic_streambufIcNS_11char_traitsIcEEEaSERKS3_
         W _ZNSt3__115basic_streambufIwNS_11char_traitsIwEEE10pubseekoffExNS_8ios_base7seekdirEj
         W _ZNSt3__115basic_streambufIwNS_11char_traitsIwEEE10pubseekposENS_4fposI11__mbstate_tEEj
         W _ZNSt3__115basic_streambufIwNS_11char_traitsIwEEE4setgEPwS4_S4_
         W _ZNSt3__115basic_streambufIwNS_11char_traitsIwEEE4setpEPwS4_
         W _ZNSt3__115basic_streambufIwNS_11char_traitsIwEEE4swapERS3_
         W _ZNSt3__115basic_streambufIwNS_11char_traitsIwEEE4syncEv
         W _ZNSt3__115basic_streambufIwNS_11char_traitsIwEEE5gbumpEi
         W _ZNSt3__115basic_streambufIwNS_11char_traitsIwEEE5imbueERKNS_6localeE
         W _ZNSt3__115basic_streambufIwNS_11char_traitsIwEEE5pbumpEi
         W _ZNSt3__115basic_streambufIwNS_11char_traitsIwEEE5sgetcEv
         W _ZNSt3__115basic_streambufIwNS_11char_traitsIwEEE5sgetnEPwi
         W _ZNSt3__115basic_streambufIwNS_11char_traitsIwEEE5sputcEw
         W _ZNSt3__115basic_streambufIwNS_11char_traitsIwEEE5sputnEPKwi
         W _ZNSt3__115basic_streambufIwNS_11char_traitsIwEEE5uflowEv
         W _ZNSt3__115basic_streambufIwNS_11char_traitsIwEEE6sbumpcEv
         W _ZNSt3__115basic_streambufIwNS_11char_traitsIwEEE6setbufEPwi
         W _ZNSt3__115basic_streambufIwNS_11char_traitsIwEEE6snextcEv
         W _ZNSt3__115basic_streambufIwNS_11char_traitsIwEEE6xsgetnEPwi
         W _ZNSt3__115basic_streambufIwNS_11char_traitsIwEEE6xsputnEPKwi
         W _ZNSt3__115basic_streambufIwNS_11char_traitsIwEEE7pubsyncEv
         W _ZNSt3__115basic_streambufIwNS_11char_traitsIwEEE7seekoffExNS_8ios_base7seekdirEj
         W _ZNSt3__115basic_streambufIwNS_11char_traitsIwEEE7seekposENS_4fposI11__mbstate_tEEj
         W _ZNSt3__115basic_streambufIwNS_11char_traitsIwEEE7sungetcEv
         W _ZNSt3__115basic_streambufIwNS_11char_traitsIwEEE8in_availEv
         W _ZNSt3__115basic_streambufIwNS_11char_traitsIwEEE8overflowEj
         W _ZNSt3__115basic_streambufIwNS_11char_traitsIwEEE8pubimbueERKNS_6localeE
         W _ZNSt3__115basic_streambufIwNS_11char_traitsIwEEE9pbackfailEj
         W _ZNSt3__115basic_streambufIwNS_11char_traitsIwEEE9pubsetbufEPwi
         W _ZNSt3__115basic_streambufIwNS_11char_traitsIwEEE9showmanycEv
         W _ZNSt3__115basic_streambufIwNS_11char_traitsIwEEE9sputbackcEw
         W _ZNSt3__115basic_streambufIwNS_11char_traitsIwEEE9underflowEv
         W _ZNSt3__115basic_streambufIwNS_11char_traitsIwEEEC1ERKS3_
         W _ZNSt3__115basic_streambufIwNS_11char_traitsIwEEEC1Ev
         W _ZNSt3__115basic_streambufIwNS_11char_traitsIwEEEC2ERKS3_
         W _ZNSt3__115basic_streambufIwNS_11char_traitsIwEEEC2Ev
         W _ZNSt3__115basic_streambufIwNS_11char_traitsIwEEED0Ev
         W _ZNSt3__115basic_streambufIwNS_11char_traitsIwEEED1Ev
         W _ZNSt3__115basic_streambufIwNS_11char_traitsIwEEED2Ev
         W _ZNSt3__115basic_streambufIwNS_11char_traitsIwEEEaSERKS3_
         T _ZNSt3__115future_categoryEv
         W _ZNSt3__115messages_bynameIcEC1EPKcj
         W _ZNSt3__115messages_bynameIcEC1ERKNS_12basic_stringIcNS_11char_traitsIcEENS_9allocatorIcEEEEj
         W _ZNSt3__115messages_bynameIcEC2EPKcj
         W _ZNSt3__115messages_bynameIcEC2ERKNS_12basic_stringIcNS_11char_traitsIcEENS_9allocatorIcEEEEj
         W _ZNSt3__115messages_bynameIcED0Ev
         W _ZNSt3__115messages_bynameIcED1Ev
         W _ZNSt3__115messages_bynameIcED2Ev
         W _ZNSt3__115messages_bynameIwEC1EPKcj
         W _ZNSt3__115messages_bynameIwEC1ERKNS_12basic_stringIcNS_11char_traitsIcEENS_9allocatorIcEEEEj
         W _ZNSt3__115messages_bynameIwEC2EPKcj
         W _ZNSt3__115messages_bynameIwEC2ERKNS_12basic_stringIcNS_11char_traitsIcEENS_9allocatorIcEEEEj
         W _ZNSt3__115messages_bynameIwED0Ev
         W _ZNSt3__115messages_bynameIwED1Ev
         W _ZNSt3__115messages_bynameIwED2Ev
         T _ZNSt3__115numpunct_bynameIcE6__initEPKc
         T _ZNSt3__115numpunct_bynameIcEC1EPKcj
         T _ZNSt3__115numpunct_bynameIcEC1ERKNS_12basic_stringIcNS_11char_traitsIcEENS_9allocatorIcEEEEj
         T _ZNSt3__115numpunct_bynameIcEC2EPKcj
         T _ZNSt3__115numpunct_bynameIcEC2ERKNS_12basic_stringIcNS_11char_traitsIcEENS_9allocatorIcEEEEj
         T _ZNSt3__115numpunct_bynameIcED0Ev
         T _ZNSt3__115numpunct_bynameIcED1Ev
         T _ZNSt3__115numpunct_bynameIcED2Ev
         T _ZNSt3__115numpunct_bynameIwE6__initEPKc
         T _ZNSt3__115numpunct_bynameIwEC1EPKcj
         T _ZNSt3__115numpunct_bynameIwEC1ERKNS_12basic_stringIcNS_11char_traitsIcEENS_9allocatorIcEEEEj
         T _ZNSt3__115numpunct_bynameIwEC2EPKcj
         T _ZNSt3__115numpunct_bynameIwEC2ERKNS_12basic_stringIcNS_11char_traitsIcEENS_9allocatorIcEEEEj
         T _ZNSt3__115numpunct_bynameIwED0Ev
         T _ZNSt3__115numpunct_bynameIwED1Ev
         T _ZNSt3__115numpunct_bynameIwED2Ev
         T _ZNSt3__115recursive_mutex4lockEv
         T _ZNSt3__115recursive_mutex6unlockEv
         T _ZNSt3__115recursive_mutex8try_lockEv
         T _ZNSt3__115recursive_mutexC1Ev
         T _ZNSt3__115recursive_mutexC2Ev
         T _ZNSt3__115recursive_mutexD1Ev
         T _ZNSt3__115recursive_mutexD2Ev
         T _ZNSt3__115system_categoryEv
         W _ZNSt3__115time_get_bynameIcNS_19istreambuf_iteratorIcNS_11char_traitsIcEEEEEC1EPKcj
         W _ZNSt3__115time_get_bynameIcNS_19istreambuf_iteratorIcNS_11char_traitsIcEEEEEC1ERKNS_12basic_stringIcS3_NS_9allocatorIcEEEEj
         W _ZNSt3__115time_get_bynameIcNS_19istreambuf_iteratorIcNS_11char_traitsIcEEEEEC2EPKcj
         W _ZNSt3__115time_get_bynameIcNS_19istreambuf_iteratorIcNS_11char_traitsIcEEEEEC2ERKNS_12basic_stringIcS3_NS_9allocatorIcEEEEj
         W _ZNSt3__115time_get_bynameIcNS_19istreambuf_iteratorIcNS_11char_traitsIcEEEEED0Ev
         W _ZNSt3__115time_get_bynameIcNS_19istreambuf_iteratorIcNS_11char_traitsIcEEEEED1Ev
         W _ZNSt3__115time_get_bynameIcNS_19istreambuf_iteratorIcNS_11char_traitsIcEEEEED2Ev
         W _ZNSt3__115time_get_bynameIwNS_19istreambuf_iteratorIwNS_11char_traitsIwEEEEEC1EPKcj
         W _ZNSt3__115time_get_bynameIwNS_19istreambuf_iteratorIwNS_11char_traitsIwEEEEEC1ERKNS_12basic_stringIcNS2_IcEENS_9allocatorIcEEEEj
         W _ZNSt3__115time_get_bynameIwNS_19istreambuf_iteratorIwNS_11char_traitsIwEEEEEC2EPKcj
         W _ZNSt3__115time_get_bynameIwNS_19istreambuf_iteratorIwNS_11char_traitsIwEEEEEC2ERKNS_12basic_stringIcNS2_IcEENS_9allocatorIcEEEEj
         W _ZNSt3__115time_get_bynameIwNS_19istreambuf_iteratorIwNS_11char_traitsIwEEEEED0Ev
         W _ZNSt3__115time_get_bynameIwNS_19istreambuf_iteratorIwNS_11char_traitsIwEEEEED1Ev
         W _ZNSt3__115time_get_bynameIwNS_19istreambuf_iteratorIwNS_11char_traitsIwEEEEED2Ev
         W _ZNSt3__115time_put_bynameIcNS_19ostreambuf_iteratorIcNS_11char_traitsIcEEEEEC1EPKcj
         W _ZNSt3__115time_put_bynameIcNS_19ostreambuf_iteratorIcNS_11char_traitsIcEEEEEC1ERKNS_12basic_stringIcS3_NS_9allocatorIcEEEEj
         W _ZNSt3__115time_put_bynameIcNS_19ostreambuf_iteratorIcNS_11char_traitsIcEEEEEC2EPKcj
         W _ZNSt3__115time_put_bynameIcNS_19ostreambuf_iteratorIcNS_11char_traitsIcEEEEEC2ERKNS_12basic_stringIcS3_NS_9allocatorIcEEEEj
         W _ZNSt3__115time_put_bynameIcNS_19ostreambuf_iteratorIcNS_11char_traitsIcEEEEED0Ev
         W _ZNSt3__115time_put_bynameIcNS_19ostreambuf_iteratorIcNS_11char_traitsIcEEEEED1Ev
         W _ZNSt3__115time_put_bynameIcNS_19ostreambuf_iteratorIcNS_11char_traitsIcEEEEED2Ev
         W _ZNSt3__115time_put_bynameIwNS_19ostreambuf_iteratorIwNS_11char_traitsIwEEEEEC1EPKcj
         W _ZNSt3__115time_put_bynameIwNS_19ostreambuf_iteratorIwNS_11char_traitsIwEEEEEC1ERKNS_12basic_stringIcNS2_IcEENS_9allocatorIcEEEEj
         W _ZNSt3__115time_put_bynameIwNS_19ostreambuf_iteratorIwNS_11char_traitsIwEEEEEC2EPKcj
         W _ZNSt3__115time_put_bynameIwNS_19ostreambuf_iteratorIwNS_11char_traitsIwEEEEEC2ERKNS_12basic_stringIcNS2_IcEENS_9allocatorIcEEEEj
         W _ZNSt3__115time_put_bynameIwNS_19ostreambuf_iteratorIwNS_11char_traitsIwEEEEED0Ev
         W _ZNSt3__115time_put_bynameIwNS_19ostreambuf_iteratorIwNS_11char_traitsIwEEEEED1Ev
         W _ZNSt3__115time_put_bynameIwNS_19ostreambuf_iteratorIwNS_11char_traitsIwEEEEED2Ev
         T _ZNSt3__116__check_groupingERKNS_12basic_stringIcNS_11char_traitsIcEENS_9allocatorIcEEEEPjS8_Rj
         T _ZNSt3__116__narrow_to_utf8ILj16EED0Ev
         T _ZNSt3__116__narrow_to_utf8ILj16EED1Ev
         T _ZNSt3__116__narrow_to_utf8ILj16EED2Ev
         T _ZNSt3__116__narrow_to_utf8ILj32EED0Ev
         T _ZNSt3__116__narrow_to_utf8ILj32EED1Ev
         T _ZNSt3__116__narrow_to_utf8ILj32EED2Ev
         C _ZNSt3__116__pad_and_outputIcNS_11char_traitsIcEEEENS_19ostreambuf_iteratorIT_T0_EES6_PKS4_S8_S8_RNS_8ios_baseES4_
         C _ZNSt3__116__pad_and_outputIwNS_11char_traitsIwEEEENS_19ostreambuf_iteratorIT_T0_EES6_PKS4_S8_S8_RNS_8ios_baseES4_
         T _ZNSt3__116generic_categoryEv
         T _ZNSt3__117__assoc_sub_state10__sub_waitERNS_11unique_lockINS_5mutexEEE
         T _ZNSt3__117__assoc_sub_state12__make_readyEv
         T _ZNSt3__117__assoc_sub_state13set_exceptionESt13exception_ptr
         T _ZNSt3__117__assoc_sub_state16__on_zero_sharedEv
         T _ZNSt3__117__assoc_sub_state24set_value_at_thread_exitEv
         T _ZNSt3__117__assoc_sub_state28set_exception_at_thread_exitESt13exception_ptr
         T _ZNSt3__117__assoc_sub_state4copyEv
         T _ZNSt3__117__assoc_sub_state4waitEv
         T _ZNSt3__117__assoc_sub_state9__executeEv
         T _ZNSt3__117__assoc_sub_state9set_valueEv
         C _ZNSt3__117__assoc_sub_stateD0Ev
         C _ZNSt3__117__assoc_sub_stateD1Ev
         C _ZNSt3__117__assoc_sub_stateD2Ev
         T _ZNSt3__117__widen_from_utf8ILj16EED0Ev
         T _ZNSt3__117__widen_from_utf8ILj16EED1Ev
         T _ZNSt3__117__widen_from_utf8ILj16EED2Ev
         T _ZNSt3__117__widen_from_utf8ILj32EED0Ev
         T _ZNSt3__117__widen_from_utf8ILj32EED1Ev
         T _ZNSt3__117__widen_from_utf8ILj32EED2Ev
         T _ZNSt3__117declare_reachableEPv
         T _ZNSt3__117iostream_categoryEv
         T _ZNSt3__117moneypunct_bynameIcLb0EE4initEPKc
         W _ZNSt3__117moneypunct_bynameIcLb0EEC1EPKcj
         W _ZNSt3__117moneypunct_bynameIcLb0EEC1ERKNS_12basic_stringIcNS_11char_traitsIcEENS_9allocatorIcEEEEj
         W _ZNSt3__117moneypunct_bynameIcLb0EEC2EPKcj
         W _ZNSt3__117moneypunct_bynameIcLb0EEC2ERKNS_12basic_stringIcNS_11char_traitsIcEENS_9allocatorIcEEEEj
         W _ZNSt3__117moneypunct_bynameIcLb0EED0Ev
         W _ZNSt3__117moneypunct_bynameIcLb0EED1Ev
         W _ZNSt3__117moneypunct_bynameIcLb0EED2Ev
         T _ZNSt3__117moneypunct_bynameIcLb1EE4initEPKc
         W _ZNSt3__117moneypunct_bynameIcLb1EEC1EPKcj
         W _ZNSt3__117moneypunct_bynameIcLb1EEC1ERKNS_12basic_stringIcNS_11char_traitsIcEENS_9allocatorIcEEEEj
         W _ZNSt3__117moneypunct_bynameIcLb1EEC2EPKcj
         W _ZNSt3__117moneypunct_bynameIcLb1EEC2ERKNS_12basic_stringIcNS_11char_traitsIcEENS_9allocatorIcEEEEj
         W _ZNSt3__117moneypunct_bynameIcLb1EED0Ev
         W _ZNSt3__117moneypunct_bynameIcLb1EED1Ev
         W _ZNSt3__117moneypunct_bynameIcLb1EED2Ev
         T _ZNSt3__117moneypunct_bynameIwLb0EE4initEPKc
         W _ZNSt3__117moneypunct_bynameIwLb0EEC1EPKcj
         W _ZNSt3__117moneypunct_bynameIwLb0EEC1ERKNS_12basic_stringIcNS_11char_traitsIcEENS_9allocatorIcEEEEj
         W _ZNSt3__117moneypunct_bynameIwLb0EEC2EPKcj
         W _ZNSt3__117moneypunct_bynameIwLb0EEC2ERKNS_12basic_stringIcNS_11char_traitsIcEENS_9allocatorIcEEEEj
         W _ZNSt3__117moneypunct_bynameIwLb0EED0Ev
         W _ZNSt3__117moneypunct_bynameIwLb0EED1Ev
         W _ZNSt3__117moneypunct_bynameIwLb0EED2Ev
         T _ZNSt3__117moneypunct_bynameIwLb1EE4initEPKc
         W _ZNSt3__117moneypunct_bynameIwLb1EEC1EPKcj
         W _ZNSt3__117moneypunct_bynameIwLb1EEC1ERKNS_12basic_stringIcNS_11char_traitsIcEENS_9allocatorIcEEEEj
         W _ZNSt3__117moneypunct_bynameIwLb1EEC2EPKcj
         W _ZNSt3__117moneypunct_bynameIwLb1EEC2ERKNS_12basic_stringIcNS_11char_traitsIcEENS_9allocatorIcEEEEj
         W _ZNSt3__117moneypunct_bynameIwLb1EED0Ev
         W _ZNSt3__117moneypunct_bynameIwLb1EED1Ev
         W _ZNSt3__117moneypunct_bynameIwLb1EED2Ev
         C _ZNSt3__118__insertion_sort_3IRNS_6__lessIaaEEPaEEvT0_S5_T_
         C _ZNSt3__118__insertion_sort_3IRNS_6__lessIccEEPcEEvT0_S5_T_
         C _ZNSt3__118__insertion_sort_3IRNS_6__lessIddEEPdEEvT0_S5_T_
         C _ZNSt3__118__insertion_sort_3IRNS_6__lessIeeEEPeEEvT0_S5_T_
         C _ZNSt3__118__insertion_sort_3IRNS_6__lessIffEEPfEEvT0_S5_T_
         C _ZNSt3__118__insertion_sort_3IRNS_6__lessIhhEEPhEEvT0_S5_T_
         C _ZNSt3__118__insertion_sort_3IRNS_6__lessIiiEEPiEEvT0_S5_T_
         C _ZNSt3__118__insertion_sort_3IRNS_6__lessIjjEEPjEEvT0_S5_T_
         C _ZNSt3__118__insertion_sort_3IRNS_6__lessIllEEPlEEvT0_S5_T_
         C _ZNSt3__118__insertion_sort_3IRNS_6__lessImmEEPmEEvT0_S5_T_
         C _ZNSt3__118__insertion_sort_3IRNS_6__lessIssEEPsEEvT0_S5_T_
         C _ZNSt3__118__insertion_sort_3IRNS_6__lessIttEEPtEEvT0_S5_T_
         C _ZNSt3__118__insertion_sort_3IRNS_6__lessIwwEEPwEEvT0_S5_T_
         C _ZNSt3__118__insertion_sort_3IRNS_6__lessIxxEEPxEEvT0_S5_T_
         C _ZNSt3__118__insertion_sort_3IRNS_6__lessIyyEEPyEEvT0_S5_T_
         C _ZNSt3__118__libcpp_refstringC2EPKc
         C _ZNSt3__118__libcpp_refstringaSERKS0_
         T _ZNSt3__118__time_get_storageIcE4initERKNS_5ctypeIcEE
         T _ZNSt3__118__time_get_storageIcE9__analyzeEcRKNS_5ctypeIcEE
         T _ZNSt3__118__time_get_storageIcEC1EPKc
         T _ZNSt3__118__time_get_storageIcEC1ERKNS_12basic_stringIcNS_11char_traitsIcEENS_9allocatorIcEEEE
         T _ZNSt3__118__time_get_storageIcEC2EPKc
         T _ZNSt3__118__time_get_storageIcEC2ERKNS_12basic_stringIcNS_11char_traitsIcEENS_9allocatorIcEEEE
         T _ZNSt3__118__time_get_storageIwE4initERKNS_5ctypeIwEE
         T _ZNSt3__118__time_get_storageIwE9__analyzeEcRKNS_5ctypeIwEE
         T _ZNSt3__118__time_get_storageIwEC1EPKc
         T _ZNSt3__118__time_get_storageIwEC1ERKNS_12basic_stringIcNS_11char_traitsIcEENS_9allocatorIcEEEE
         T _ZNSt3__118__time_get_storageIwEC2EPKc
         T _ZNSt3__118__time_get_storageIwEC2ERKNS_12basic_stringIcNS_11char_traitsIcEENS_9allocatorIcEEEE
         T _ZNSt3__118condition_variable10notify_allEv
         T _ZNSt3__118condition_variable10notify_oneEv
         T _ZNSt3__118condition_variable15__do_timed_waitERNS_11unique_lockINS_5mutexEEENS_6chrono10time_pointINS5_12system_clockENS5_8durationIxNS_5ratioILx1ELx1000000000EEEEEEE
         T _ZNSt3__118condition_variable4waitERNS_11unique_lockINS_5mutexEEE
         T _ZNSt3__118condition_variableD1Ev
         T _ZNSt3__118condition_variableD2Ev
         T _ZNSt3__118get_pointer_safetyEv
         C _ZNSt3__119__double_or_nothingIcEEvRNS_10unique_ptrIT_PFvPvEEERPS2_S9_
         C _ZNSt3__119__double_or_nothingIjEEvRNS_10unique_ptrIT_PFvPvEEERPS2_S9_
         C _ZNSt3__119__double_or_nothingIwEEvRNS_10unique_ptrIT_PFvPvEEERPS2_S9_
         C _ZNSt3__119__iostream_categoryD0Ev
         C _ZNSt3__119__iostream_categoryD1Ev
         T _ZNSt3__119__shared_weak_count10__add_weakEv
         T _ZNSt3__119__shared_weak_count12__add_sharedEv
         T _ZNSt3__119__shared_weak_count14__release_weakEv
         T _ZNSt3__119__shared_weak_count16__release_sharedEv
         T _ZNSt3__119__shared_weak_count4lockEv
         T _ZNSt3__119__shared_weak_countD0Ev
         T _ZNSt3__119__shared_weak_countD1Ev
         T _ZNSt3__119__shared_weak_countD2Ev
         D _ZNSt3__119__start_std_streamsE
         T _ZNSt3__119__thread_local_dataEv
         T _ZNSt3__119__thread_struct_imp25notify_all_at_thread_exitEPNS_18condition_variableEPNS_5mutexE
         T _ZNSt3__119__thread_struct_imp27__make_ready_at_thread_exitEPNS_17__assoc_sub_stateE
         T _ZNSt3__119__thread_struct_impD1Ev
         T _ZNSt3__119__thread_struct_impD2Ev
         T _ZNSt3__119declare_no_pointersEPcj
         D _ZNSt3__119piecewise_constructE
         C _ZNSt3__120__codecvt_utf8_utf16IDiED0Ev
         C _ZNSt3__120__codecvt_utf8_utf16IDiED1Ev
         C _ZNSt3__120__codecvt_utf8_utf16IDsED0Ev
         C _ZNSt3__120__codecvt_utf8_utf16IDsED1Ev
         C _ZNSt3__120__codecvt_utf8_utf16IwED0Ev
         C _ZNSt3__120__codecvt_utf8_utf16IwED1Ev
         T _ZNSt3__120__get_collation_nameEPKc
         C _ZNSt3__120__get_up_to_n_digitsIcNS_19istreambuf_iteratorIcNS_11char_traitsIcEEEEEEiRT0_S5_RjRKNS_5ctypeIT_EEi
         C _ZNSt3__120__get_up_to_n_digitsIcPcEEiRT0_S2_RjRKNS_5ctypeIT_EEi
         C _ZNSt3__120__get_up_to_n_digitsIwNS_19istreambuf_iteratorIwNS_11char_traitsIwEEEEEEiRT0_S5_RjRKNS_5ctypeIT_EEi
         C _ZNSt3__120__get_up_to_n_digitsIwPwEEiRT0_S2_RjRKNS_5ctypeIT_EEi
         T _ZNSt3__120__throw_system_errorEiPKc
         W _ZNSt3__120__vector_base_commonILb1EEC1Ev
         W _ZNSt3__120__vector_base_commonILb1EEC2Ev
         C _ZNSt3__121__murmur2_or_cityhashIjLj32EEclEPKvj
         C _ZNSt3__121__thread_specific_ptrINS_15__thread_structEE16__at_thread_exitEPv
         C _ZNSt3__121__thread_specific_ptrINS_15__thread_structEEC2Ev
         C _ZNSt3__121__thread_specific_ptrINS_15__thread_structEED1Ev
         C _ZNSt3__121__thread_specific_ptrINS_15__thread_structEED2Ev
         T _ZNSt3__121__throw_runtime_errorEPKc
         T _ZNSt3__121__undeclare_reachableEPv
         T _ZNSt3__121recursive_timed_mutex4lockEv
         T _ZNSt3__121recursive_timed_mutex6unlockEv
         T _ZNSt3__121recursive_timed_mutex8try_lockEv
         T _ZNSt3__121recursive_timed_mutexC1Ev
         T _ZNSt3__121recursive_timed_mutexC2Ev
         T _ZNSt3__121recursive_timed_mutexD1Ev
         T _ZNSt3__121recursive_timed_mutexD2Ev
         T _ZNSt3__121undeclare_no_pointersEPcj
         C _ZNSt3__123__future_error_categoryD0Ev
         C _ZNSt3__123__future_error_categoryD1Ev
         C _ZNSt3__123__system_error_categoryD0Ev
         C _ZNSt3__123__system_error_categoryD1Ev
         C _ZNSt3__123mersenne_twister_engineIjLj32ELj624ELj397ELj31ELj2567483615ELj11ELj4294967295ELj7ELj2636928640ELj15ELj4022730752ELj18ELj1812433253EE4seedEj
         C _ZNSt3__123mersenne_twister_engineIjLj32ELj624ELj397ELj31ELj2567483615ELj11ELj4294967295ELj7ELj2636928640ELj15ELj4022730752ELj18ELj1812433253EEclEv
         C _ZNSt3__124__generic_error_categoryD0Ev
         C _ZNSt3__124__generic_error_categoryD1Ev
         C _ZNSt3__125__num_get_signed_integralIlEET_PKcS3_Rji
         C _ZNSt3__125__num_get_signed_integralIxEET_PKcS3_Rji
         T _ZNSt3__125notify_all_at_thread_exitERNS_18condition_variableENS_11unique_lockINS_5mutexEEE
         W _ZNSt3__127__insertion_sort_incompleteIRNS_6__lessIaaEEPaEEbT0_S5_T_
         W _ZNSt3__127__insertion_sort_incompleteIRNS_6__lessIccEEPcEEbT0_S5_T_
         W _ZNSt3__127__insertion_sort_incompleteIRNS_6__lessIddEEPdEEbT0_S5_T_
         W _ZNSt3__127__insertion_sort_incompleteIRNS_6__lessIeeEEPeEEbT0_S5_T_
         W _ZNSt3__127__insertion_sort_incompleteIRNS_6__lessIffEEPfEEbT0_S5_T_
         W _ZNSt3__127__insertion_sort_incompleteIRNS_6__lessIhhEEPhEEbT0_S5_T_
         W _ZNSt3__127__insertion_sort_incompleteIRNS_6__lessIiiEEPiEEbT0_S5_T_
         W _ZNSt3__127__insertion_sort_incompleteIRNS_6__lessIjjEEPjEEbT0_S5_T_
         W _ZNSt3__127__insertion_sort_incompleteIRNS_6__lessIllEEPlEEbT0_S5_T_
         W _ZNSt3__127__insertion_sort_incompleteIRNS_6__lessImmEEPmEEbT0_S5_T_
         W _ZNSt3__127__insertion_sort_incompleteIRNS_6__lessIssEEPsEEbT0_S5_T_
         W _ZNSt3__127__insertion_sort_incompleteIRNS_6__lessIttEEPtEEbT0_S5_T_
         W _ZNSt3__127__insertion_sort_incompleteIRNS_6__lessIwwEEPwEEbT0_S5_T_
         W _ZNSt3__127__insertion_sort_incompleteIRNS_6__lessIxxEEPxEEbT0_S5_T_
         W _ZNSt3__127__insertion_sort_incompleteIRNS_6__lessIyyEEPyEEbT0_S5_T_
         C _ZNSt3__127__num_get_unsigned_integralIjEET_PKcS3_Rji
         C _ZNSt3__127__num_get_unsigned_integralImEET_PKcS3_Rji
         C _ZNSt3__127__num_get_unsigned_integralItEET_PKcS3_Rji
         C _ZNSt3__127__num_get_unsigned_integralIyEET_PKcS3_Rji
         D _ZNSt3__13cinE
         D _ZNSt3__14cerrE
         D _ZNSt3__14clogE
         D _ZNSt3__14coutE
         T _ZNSt3__14stodERKNS_12basic_stringIcNS_11char_traitsIcEENS_9allocatorIcEEEEPj
         T _ZNSt3__14stodERKNS_12basic_stringIwNS_11char_traitsIwEENS_9allocatorIwEEEEPj
         T _ZNSt3__14stofERKNS_12basic_stringIcNS_11char_traitsIcEENS_9allocatorIcEEEEPj
         T _ZNSt3__14stofERKNS_12basic_stringIwNS_11char_traitsIwEENS_9allocatorIwEEEEPj
         T _ZNSt3__14stoiERKNS_12basic_stringIcNS_11char_traitsIcEENS_9allocatorIcEEEEPji
         T _ZNSt3__14stoiERKNS_12basic_stringIwNS_11char_traitsIwEENS_9allocatorIwEEEEPji
         T _ZNSt3__14stolERKNS_12basic_stringIcNS_11char_traitsIcEENS_9allocatorIcEEEEPji
         T _ZNSt3__14stolERKNS_12basic_stringIwNS_11char_traitsIwEENS_9allocatorIwEEEEPji
         D _ZNSt3__14wcinE
         T _ZNSt3__15alignEjjRPvRj
         T _ZNSt3__15ctypeIcE13classic_tableEv
         T _ZNSt3__15ctypeIcE21__classic_lower_tableEv
         T _ZNSt3__15ctypeIcE21__classic_upper_tableEv
         D _ZNSt3__15ctypeIcE2idE
         T _ZNSt3__15ctypeIcEC1EPKtbj
         T _ZNSt3__15ctypeIcEC2EPKtbj
         T _ZNSt3__15ctypeIcED0Ev
         T _ZNSt3__15ctypeIcED1Ev
         T _ZNSt3__15ctypeIcED2Ev
         D _ZNSt3__15ctypeIwE2idE
         T _ZNSt3__15ctypeIwED0Ev
         T _ZNSt3__15ctypeIwED1Ev
         T _ZNSt3__15ctypeIwED2Ev
         T _ZNSt3__15mutex4lockEv
         T _ZNSt3__15mutex6unlockEv
         T _ZNSt3__15mutex8try_lockEv
         T _ZNSt3__15mutexD1Ev
         T _ZNSt3__15mutexD2Ev
         T _ZNSt3__15stoldERKNS_12basic_stringIcNS_11char_traitsIcEENS_9allocatorIcEEEEPj
         T _ZNSt3__15stoldERKNS_12basic_stringIwNS_11char_traitsIwEENS_9allocatorIwEEEEPj
         T _ZNSt3__15stollERKNS_12basic_stringIcNS_11char_traitsIcEENS_9allocatorIcEEEEPji
         T _ZNSt3__15stollERKNS_12basic_stringIwNS_11char_traitsIwEENS_9allocatorIwEEEEPji
         T _ZNSt3__15stoulERKNS_12basic_stringIcNS_11char_traitsIcEENS_9allocatorIcEEEEPji
         T _ZNSt3__15stoulERKNS_12basic_stringIwNS_11char_traitsIwEENS_9allocatorIwEEEEPji
         D _ZNSt3__15wcerrE
         D _ZNSt3__15wclogE
         D _ZNSt3__15wcoutE
         T _ZNSt3__16__clocEv
         W _ZNSt3__16__sortIRNS_6__lessIaaEEPaEEvT0_S5_T_
         W _ZNSt3__16__sortIRNS_6__lessIccEEPcEEvT0_S5_T_
         W _ZNSt3__16__sortIRNS_6__lessIddEEPdEEvT0_S5_T_
         W _ZNSt3__16__sortIRNS_6__lessIeeEEPeEEvT0_S5_T_
         W _ZNSt3__16__sortIRNS_6__lessIffEEPfEEvT0_S5_T_
         W _ZNSt3__16__sortIRNS_6__lessIhhEEPhEEvT0_S5_T_
         W _ZNSt3__16__sortIRNS_6__lessIiiEEPiEEvT0_S5_T_
         W _ZNSt3__16__sortIRNS_6__lessIjjEEPjEEvT0_S5_T_
         W _ZNSt3__16__sortIRNS_6__lessIllEEPlEEvT0_S5_T_
         W _ZNSt3__16__sortIRNS_6__lessImmEEPmEEvT0_S5_T_
         W _ZNSt3__16__sortIRNS_6__lessIssEEPsEEvT0_S5_T_
         W _ZNSt3__16__sortIRNS_6__lessIttEEPtEEvT0_S5_T_
         W _ZNSt3__16__sortIRNS_6__lessIwwEEPwEEvT0_S5_T_
         W _ZNSt3__16__sortIRNS_6__lessIxxEEPxEEvT0_S5_T_
         W _ZNSt3__16__sortIRNS_6__lessIyyEEPyEEvT0_S5_T_
         T _ZNSt3__16chrono12steady_clock3nowEv
         D _ZNSt3__16chrono12steady_clock9is_steadyE
         T _ZNSt3__16chrono12system_clock11from_time_tEl
         T _ZNSt3__16chrono12system_clock3nowEv
         D _ZNSt3__16chrono12system_clock9is_steadyE
         T _ZNSt3__16chrono12system_clock9to_time_tERKNS0_10time_pointIS1_NS0_8durationIxNS_5ratioILx1ELx1000000EEEEEEE
         T _ZNSt3__16futureIvE3getEv
         T _ZNSt3__16futureIvEC1EPNS_17__assoc_sub_stateE
         T _ZNSt3__16futureIvEC2EPNS_17__assoc_sub_stateE
         T _ZNSt3__16futureIvED1Ev
         T _ZNSt3__16futureIvED2Ev
         T _ZNSt3__16gslice6__initEj
         T _ZNSt3__16locale14__install_ctorERKS0_PNS0_5facetEl
         T _ZNSt3__16locale2id5__getEv
         T _ZNSt3__16locale2id6__initEv
         D _ZNSt3__16locale2id9__next_idE
         D _ZNSt3__16locale3allE
         D _ZNSt3__16locale4noneE
         D _ZNSt3__16locale4timeE
         T _ZNSt3__16locale5__imp11make_globalEv
         C _ZNSt3__16locale5__imp12install_fromINS_10moneypunctIcLb0EEEEEvRKS1_
         C _ZNSt3__16locale5__imp12install_fromINS_10moneypunctIcLb1EEEEEvRKS1_
         C _ZNSt3__16locale5__imp12install_fromINS_10moneypunctIwLb0EEEEEvRKS1_
         C _ZNSt3__16locale5__imp12install_fromINS_10moneypunctIwLb1EEEEEvRKS1_
         C _ZNSt3__16locale5__imp12install_fromINS_5ctypeIcEEEEvRKS1_
         C _ZNSt3__16locale5__imp12install_fromINS_5ctypeIwEEEEvRKS1_
         C _ZNSt3__16locale5__imp12install_fromINS_7codecvtIDic11__mbstate_tEEEEvRKS1_
         C _ZNSt3__16locale5__imp12install_fromINS_7codecvtIDsc11__mbstate_tEEEEvRKS1_
         C _ZNSt3__16locale5__imp12install_fromINS_7codecvtIcc11__mbstate_tEEEEvRKS1_
         C _ZNSt3__16locale5__imp12install_fromINS_7codecvtIwc11__mbstate_tEEEEvRKS1_
         C _ZNSt3__16locale5__imp12install_fromINS_7collateIcEEEEvRKS1_
         C _ZNSt3__16locale5__imp12install_fromINS_7collateIwEEEEvRKS1_
         C _ZNSt3__16locale5__imp12install_fromINS_7num_getIcNS_19istreambuf_iteratorIcNS_11char_traitsIcEEEEEEEEvRKS1_
         C _ZNSt3__16locale5__imp12install_fromINS_7num_getIwNS_19istreambuf_iteratorIwNS_11char_traitsIwEEEEEEEEvRKS1_
         C _ZNSt3__16locale5__imp12install_fromINS_7num_putIcNS_19ostreambuf_iteratorIcNS_11char_traitsIcEEEEEEEEvRKS1_
         C _ZNSt3__16locale5__imp12install_fromINS_7num_putIwNS_19ostreambuf_iteratorIwNS_11char_traitsIwEEEEEEEEvRKS1_
         C _ZNSt3__16locale5__imp12install_fromINS_8messagesIcEEEEvRKS1_
         C _ZNSt3__16locale5__imp12install_fromINS_8messagesIwEEEEvRKS1_
         C _ZNSt3__16locale5__imp12install_fromINS_8numpunctIcEEEEvRKS1_
         C _ZNSt3__16locale5__imp12install_fromINS_8numpunctIwEEEEvRKS1_
         C _ZNSt3__16locale5__imp12install_fromINS_8time_getIcNS_19istreambuf_iteratorIcNS_11char_traitsIcEEEEEEEEvRKS1_
         C _ZNSt3__16locale5__imp12install_fromINS_8time_getIwNS_19istreambuf_iteratorIwNS_11char_traitsIwEEEEEEEEvRKS1_
         C _ZNSt3__16locale5__imp12install_fromINS_8time_putIcNS_19ostreambuf_iteratorIcNS_11char_traitsIcEEEEEEEEvRKS1_
         C _ZNSt3__16locale5__imp12install_fromINS_8time_putIwNS_19ostreambuf_iteratorIwNS_11char_traitsIwEEEEEEEEvRKS1_
         C _ZNSt3__16locale5__imp12install_fromINS_9money_getIcNS_19istreambuf_iteratorIcNS_11char_traitsIcEEEEEEEEvRKS1_
         C _ZNSt3__16locale5__imp12install_fromINS_9money_getIwNS_19istreambuf_iteratorIwNS_11char_traitsIwEEEEEEEEvRKS1_
         C _ZNSt3__16locale5__imp12install_fromINS_9money_putIcNS_19ostreambuf_iteratorIcNS_11char_traitsIcEEEEEEEEvRKS1_
         C _ZNSt3__16locale5__imp12install_fromINS_9money_putIwNS_19ostreambuf_iteratorIwNS_11char_traitsIwEEEEEEEEvRKS1_
         T _ZNSt3__16locale5__imp12make_classicEv
         T _ZNSt3__16locale5__imp7installEPNS0_5facetEl
         C _ZNSt3__16locale5__imp7installINS_10moneypunctIcLb0EEEEEvPT_
         C _ZNSt3__16locale5__imp7installINS_10moneypunctIcLb1EEEEEvPT_
         C _ZNSt3__16locale5__imp7installINS_10moneypunctIwLb0EEEEEvPT_
         C _ZNSt3__16locale5__imp7installINS_10moneypunctIwLb1EEEEEvPT_
         C _ZNSt3__16locale5__imp7installINS_12ctype_bynameIcEEEEvPT_
         C _ZNSt3__16locale5__imp7installINS_12ctype_bynameIwEEEEvPT_
         C _ZNSt3__16locale5__imp7installINS_14codecvt_bynameIDic11__mbstate_tEEEEvPT_
         C _ZNSt3__16locale5__imp7installINS_14codecvt_bynameIDsc11__mbstate_tEEEEvPT_
         C _ZNSt3__16locale5__imp7installINS_14codecvt_bynameIcc11__mbstate_tEEEEvPT_
         C _ZNSt3__16locale5__imp7installINS_14codecvt_bynameIwc11__mbstate_tEEEEvPT_
         C _ZNSt3__16locale5__imp7installINS_14collate_bynameIcEEEEvPT_
         C _ZNSt3__16locale5__imp7installINS_14collate_bynameIwEEEEvPT_
         C _ZNSt3__16locale5__imp7installINS_15messages_bynameIcEEEEvPT_
         C _ZNSt3__16locale5__imp7installINS_15messages_bynameIwEEEEvPT_
         C _ZNSt3__16locale5__imp7installINS_15numpunct_bynameIcEEEEvPT_
         C _ZNSt3__16locale5__imp7installINS_15numpunct_bynameIwEEEEvPT_
         C _ZNSt3__16locale5__imp7installINS_15time_get_bynameIcNS_19istreambuf_iteratorIcNS_11char_traitsIcEEEEEEEEvPT_
         C _ZNSt3__16locale5__imp7installINS_15time_get_bynameIwNS_19istreambuf_iteratorIwNS_11char_traitsIwEEEEEEEEvPT_
         C _ZNSt3__16locale5__imp7installINS_15time_put_bynameIcNS_19ostreambuf_iteratorIcNS_11char_traitsIcEEEEEEEEvPT_
         C _ZNSt3__16locale5__imp7installINS_15time_put_bynameIwNS_19ostreambuf_iteratorIwNS_11char_traitsIwEEEEEEEEvPT_
         C _ZNSt3__16locale5__imp7installINS_17moneypunct_bynameIcLb0EEEEEvPT_
         C _ZNSt3__16locale5__imp7installINS_17moneypunct_bynameIcLb1EEEEEvPT_
         C _ZNSt3__16locale5__imp7installINS_17moneypunct_bynameIwLb0EEEEEvPT_
         C _ZNSt3__16locale5__imp7installINS_17moneypunct_bynameIwLb1EEEEEvPT_
         C _ZNSt3__16locale5__imp7installINS_5ctypeIcEEEEvPT_
         C _ZNSt3__16locale5__imp7installINS_5ctypeIwEEEEvPT_
         C _ZNSt3__16locale5__imp7installINS_7codecvtIDic11__mbstate_tEEEEvPT_
         C _ZNSt3__16locale5__imp7installINS_7codecvtIDsc11__mbstate_tEEEEvPT_
         C _ZNSt3__16locale5__imp7installINS_7codecvtIcc11__mbstate_tEEEEvPT_
         C _ZNSt3__16locale5__imp7installINS_7codecvtIwc11__mbstate_tEEEEvPT_
         C _ZNSt3__16locale5__imp7installINS_7collateIcEEEEvPT_
         C _ZNSt3__16locale5__imp7installINS_7collateIwEEEEvPT_
         C _ZNSt3__16locale5__imp7installINS_7num_getIcNS_19istreambuf_iteratorIcNS_11char_traitsIcEEEEEEEEvPT_
         C _ZNSt3__16locale5__imp7installINS_7num_getIwNS_19istreambuf_iteratorIwNS_11char_traitsIwEEEEEEEEvPT_
         C _ZNSt3__16locale5__imp7installINS_7num_putIcNS_19ostreambuf_iteratorIcNS_11char_traitsIcEEEEEEEEvPT_
         C _ZNSt3__16locale5__imp7installINS_7num_putIwNS_19ostreambuf_iteratorIwNS_11char_traitsIwEEEEEEEEvPT_
         C _ZNSt3__16locale5__imp7installINS_8messagesIcEEEEvPT_
         C _ZNSt3__16locale5__imp7installINS_8messagesIwEEEEvPT_
         C _ZNSt3__16locale5__imp7installINS_8numpunctIcEEEEvPT_
         C _ZNSt3__16locale5__imp7installINS_8numpunctIwEEEEvPT_
         C _ZNSt3__16locale5__imp7installINS_8time_getIcNS_19istreambuf_iteratorIcNS_11char_traitsIcEEEEEEEEvPT_
         C _ZNSt3__16locale5__imp7installINS_8time_getIwNS_19istreambuf_iteratorIwNS_11char_traitsIwEEEEEEEEvPT_
         C _ZNSt3__16locale5__imp7installINS_8time_putIcNS_19ostreambuf_iteratorIcNS_11char_traitsIcEEEEEEEEvPT_
         C _ZNSt3__16locale5__imp7installINS_8time_putIwNS_19ostreambuf_iteratorIwNS_11char_traitsIwEEEEEEEEvPT_
         C _ZNSt3__16locale5__imp7installINS_9money_getIcNS_19istreambuf_iteratorIcNS_11char_traitsIcEEEEEEEEvPT_
         C _ZNSt3__16locale5__imp7installINS_9money_getIwNS_19istreambuf_iteratorIwNS_11char_traitsIwEEEEEEEEvPT_
         C _ZNSt3__16locale5__imp7installINS_9money_putIcNS_19ostreambuf_iteratorIcNS_11char_traitsIcEEEEEEEEvPT_
         C _ZNSt3__16locale5__imp7installINS_9money_putIwNS_19ostreambuf_iteratorIwNS_11char_traitsIwEEEEEEEEvPT_
         T _ZNSt3__16locale5__impC1ERKNS_12basic_stringIcNS_11char_traitsIcEENS_9allocatorIcEEEEj
         T _ZNSt3__16locale5__impC1ERKS1_
         T _ZNSt3__16locale5__impC1ERKS1_PNS0_5facetEl
         T _ZNSt3__16locale5__impC1ERKS1_RKNS_12basic_stringIcNS_11char_traitsIcEENS_9allocatorIcEEEEi
         T _ZNSt3__16locale5__impC1ERKS1_S3_i
         T _ZNSt3__16locale5__impC1Ej
         T _ZNSt3__16locale5__impC2ERKNS_12basic_stringIcNS_11char_traitsIcEENS_9allocatorIcEEEEj
         T _ZNSt3__16locale5__impC2ERKS1_
         T _ZNSt3__16locale5__impC2ERKS1_PNS0_5facetEl
         T _ZNSt3__16locale5__impC2ERKS1_RKNS_12basic_stringIcNS_11char_traitsIcEENS_9allocatorIcEEEEi
         T _ZNSt3__16locale5__impC2ERKS1_S3_i
         T _ZNSt3__16locale5__impC2Ej
         T _ZNSt3__16locale5__impD0Ev
         T _ZNSt3__16locale5__impD1Ev
         T _ZNSt3__16locale5__impD2Ev
         D _ZNSt3__16locale5ctypeE
         T _ZNSt3__16locale5facet16__on_zero_sharedEv
         T _ZNSt3__16locale5facetD0Ev
         T _ZNSt3__16locale5facetD1Ev
         T _ZNSt3__16locale5facetD2Ev
         T _ZNSt3__16locale6globalERKS0_
         T _ZNSt3__16locale7classicEv
         D _ZNSt3__16locale7collateE
         D _ZNSt3__16locale7numericE
         T _ZNSt3__16locale8__globalEv
         D _ZNSt3__16locale8messagesE
         D _ZNSt3__16locale8monetaryE
         T _ZNSt3__16localeC1EPKc
         T _ZNSt3__16localeC1ERKNS_12basic_stringIcNS_11char_traitsIcEENS_9allocatorIcEEEE
         T _ZNSt3__16localeC1ERKS0_
         T _ZNSt3__16localeC1ERKS0_PKci
         T _ZNSt3__16localeC1ERKS0_RKNS_12basic_stringIcNS_11char_traitsIcEENS_9allocatorIcEEEEi
         T _ZNSt3__16localeC1ERKS0_S2_i
         T _ZNSt3__16localeC1Ev
         T _ZNSt3__16localeC2EPKc
         T _ZNSt3__16localeC2ERKNS_12basic_stringIcNS_11char_traitsIcEENS_9allocatorIcEEEE
         T _ZNSt3__16localeC2ERKS0_
         T _ZNSt3__16localeC2ERKS0_PKci
         T _ZNSt3__16localeC2ERKS0_RKNS_12basic_stringIcNS_11char_traitsIcEENS_9allocatorIcEEEEi
         T _ZNSt3__16localeC2ERKS0_S2_i
         T _ZNSt3__16localeC2Ev
         T _ZNSt3__16localeD1Ev
         T _ZNSt3__16localeD2Ev
         T _ZNSt3__16localeaSERKS0_
         T _ZNSt3__16stoullERKNS_12basic_stringIcNS_11char_traitsIcEENS_9allocatorIcEEEEPji
         T _ZNSt3__16stoullERKNS_12basic_stringIwNS_11char_traitsIwEENS_9allocatorIwEEEEPji
         T _ZNSt3__16thread20hardware_concurrencyEv
         T _ZNSt3__16thread4joinEv
         T _ZNSt3__16thread6detachEv
         T _ZNSt3__16threadD1Ev
         T _ZNSt3__16threadD2Ev
         C _ZNSt3__16vectorINS_4pairIPNS_18condition_variableEPNS_5mutexEEENS_18__hidden_allocatorIS6_EEE21__push_back_slow_pathIS6_EEvOT_
         C _ZNSt3__16vectorINS_4pairIPNS_18condition_variableEPNS_5mutexEEENS_18__hidden_allocatorIS6_EEE26__swap_out_circular_bufferERNS_14__split_bufferIS6_RS8_EE
         C _ZNSt3__16vectorIPNS_17__assoc_sub_stateENS_18__hidden_allocatorIS2_EEE21__push_back_slow_pathIRKS2_EEvOT_
         C _ZNSt3__16vectorIPNS_17__assoc_sub_stateENS_18__hidden_allocatorIS2_EEE26__swap_out_circular_bufferERNS_14__split_bufferIS2_RS4_EE
         C _ZNSt3__16vectorIPNS_6locale5facetENS_15__sso_allocatorIS3_Lj28EEEE10deallocateEv
         C _ZNSt3__16vectorIPNS_6locale5facetENS_15__sso_allocatorIS3_Lj28EEEE18__construct_at_endEj
         C _ZNSt3__16vectorIPNS_6locale5facetENS_15__sso_allocatorIS3_Lj28EEEE18__construct_at_endIPS3_EENS_9enable_ifIXsr21__is_forward_iteratorIT_EE5valueEvE4typeESA_SA_
         C _ZNSt3__16vectorIPNS_6locale5facetENS_15__sso_allocatorIS3_Lj28EEEE26__swap_out_circular_bufferERNS_14__split_bufferIS3_RS5_EE
         C _ZNSt3__16vectorIPNS_6locale5facetENS_15__sso_allocatorIS3_Lj28EEEE6assignIPS3_EENS_9enable_ifIXaasr21__is_forward_iteratorIT_EE5valuesr16is_constructibleIS3_NS_15iterator_traitsISA_E9referenceEEE5valueEvE4typeESA_SA_
         C _ZNSt3__16vectorIPNS_6locale5facetENS_15__sso_allocatorIS3_Lj28EEEE6resizeEj
         C _ZNSt3__16vectorIPNS_6locale5facetENS_15__sso_allocatorIS3_Lj28EEEE8__appendEj
         C _ZNSt3__16vectorIPNS_6locale5facetENS_15__sso_allocatorIS3_Lj28EEEE8allocateEj
         C _ZNSt3__16vectorIPNS_6locale5facetENS_15__sso_allocatorIS3_Lj28EEEEC2Ej
         C _ZNSt3__17__sort3IRNS_6__lessIaaEEPaEEjT0_S5_S5_T_
         C _ZNSt3__17__sort3IRNS_6__lessIccEEPcEEjT0_S5_S5_T_
         C _ZNSt3__17__sort3IRNS_6__lessIddEEPdEEjT0_S5_S5_T_
         C _ZNSt3__17__sort3IRNS_6__lessIeeEEPeEEjT0_S5_S5_T_
         C _ZNSt3__17__sort3IRNS_6__lessIffEEPfEEjT0_S5_S5_T_
         C _ZNSt3__17__sort3IRNS_6__lessIhhEEPhEEjT0_S5_S5_T_
         C _ZNSt3__17__sort3IRNS_6__lessIiiEEPiEEjT0_S5_S5_T_
         C _ZNSt3__17__sort3IRNS_6__lessIjjEEPjEEjT0_S5_S5_T_
         C _ZNSt3__17__sort3IRNS_6__lessIllEEPlEEjT0_S5_S5_T_
         C _ZNSt3__17__sort3IRNS_6__lessImmEEPmEEjT0_S5_S5_T_
         C _ZNSt3__17__sort3IRNS_6__lessIssEEPsEEjT0_S5_S5_T_
         C _ZNSt3__17__sort3IRNS_6__lessIttEEPtEEjT0_S5_S5_T_
         C _ZNSt3__17__sort3IRNS_6__lessIwwEEPwEEjT0_S5_S5_T_
         C _ZNSt3__17__sort3IRNS_6__lessIxxEEPxEEjT0_S5_S5_T_
         C _ZNSt3__17__sort3IRNS_6__lessIyyEEPyEEjT0_S5_S5_T_
         C _ZNSt3__17__sort4IRNS_6__lessIaaEEPaEEjT0_S5_S5_S5_T_
         C _ZNSt3__17__sort4IRNS_6__lessIccEEPcEEjT0_S5_S5_S5_T_
         C _ZNSt3__17__sort4IRNS_6__lessIddEEPdEEjT0_S5_S5_S5_T_
         C _ZNSt3__17__sort4IRNS_6__lessIeeEEPeEEjT0_S5_S5_S5_T_
         C _ZNSt3__17__sort4IRNS_6__lessIffEEPfEEjT0_S5_S5_S5_T_
         C _ZNSt3__17__sort4IRNS_6__lessIhhEEPhEEjT0_S5_S5_S5_T_
         C _ZNSt3__17__sort4IRNS_6__lessIiiEEPiEEjT0_S5_S5_S5_T_
         C _ZNSt3__17__sort4IRNS_6__lessIjjEEPjEEjT0_S5_S5_S5_T_
         C _ZNSt3__17__sort4IRNS_6__lessIllEEPlEEjT0_S5_S5_S5_T_
         C _ZNSt3__17__sort4IRNS_6__lessImmEEPmEEjT0_S5_S5_S5_T_
         C _ZNSt3__17__sort4IRNS_6__lessIssEEPsEEjT0_S5_S5_S5_T_
         C _ZNSt3__17__sort4IRNS_6__lessIttEEPtEEjT0_S5_S5_S5_T_
         C _ZNSt3__17__sort4IRNS_6__lessIwwEEPwEEjT0_S5_S5_S5_T_
         C _ZNSt3__17__sort4IRNS_6__lessIxxEEPxEEjT0_S5_S5_S5_T_
         C _ZNSt3__17__sort4IRNS_6__lessIyyEEPyEEjT0_S5_S5_S5_T_
         C _ZNSt3__17__sort5IRNS_6__lessIaaEEPaEEjT0_S5_S5_S5_S5_T_
         C _ZNSt3__17__sort5IRNS_6__lessIccEEPcEEjT0_S5_S5_S5_S5_T_
         C _ZNSt3__17__sort5IRNS_6__lessIddEEPdEEjT0_S5_S5_S5_S5_T_
         W _ZNSt3__17__sort5IRNS_6__lessIeeEEPeEEjT0_S5_S5_S5_S5_T_
         C _ZNSt3__17__sort5IRNS_6__lessIffEEPfEEjT0_S5_S5_S5_S5_T_
         C _ZNSt3__17__sort5IRNS_6__lessIhhEEPhEEjT0_S5_S5_S5_S5_T_
         C _ZNSt3__17__sort5IRNS_6__lessIiiEEPiEEjT0_S5_S5_S5_S5_T_
         C _ZNSt3__17__sort5IRNS_6__lessIjjEEPjEEjT0_S5_S5_S5_S5_T_
         C _ZNSt3__17__sort5IRNS_6__lessIllEEPlEEjT0_S5_S5_S5_S5_T_
         C _ZNSt3__17__sort5IRNS_6__lessImmEEPmEEjT0_S5_S5_S5_S5_T_
         C _ZNSt3__17__sort5IRNS_6__lessIssEEPsEEjT0_S5_S5_S5_S5_T_
         C _ZNSt3__17__sort5IRNS_6__lessIttEEPtEEjT0_S5_S5_S5_S5_T_
         C _ZNSt3__17__sort5IRNS_6__lessIwwEEPwEEjT0_S5_S5_S5_S5_T_
         C _ZNSt3__17__sort5IRNS_6__lessIxxEEPxEEjT0_S5_S5_S5_S5_T_
         C _ZNSt3__17__sort5IRNS_6__lessIyyEEPyEEjT0_S5_S5_S5_S5_T_
         D _ZNSt3__17codecvtIDic11__mbstate_tE2idE
         T _ZNSt3__17codecvtIDic11__mbstate_tED0Ev
         T _ZNSt3__17codecvtIDic11__mbstate_tED1Ev
         T _ZNSt3__17codecvtIDic11__mbstate_tED2Ev
         D _ZNSt3__17codecvtIDsc11__mbstate_tE2idE
         T _ZNSt3__17codecvtIDsc11__mbstate_tED0Ev
         T _ZNSt3__17codecvtIDsc11__mbstate_tED1Ev
         T _ZNSt3__17codecvtIDsc11__mbstate_tED2Ev
         D _ZNSt3__17codecvtIcc11__mbstate_tE2idE
         T _ZNSt3__17codecvtIcc11__mbstate_tED0Ev
         T _ZNSt3__17codecvtIcc11__mbstate_tED1Ev
         T _ZNSt3__17codecvtIcc11__mbstate_tED2Ev
         D _ZNSt3__17codecvtIwc11__mbstate_tE2idE
         T _ZNSt3__17codecvtIwc11__mbstate_tEC1EPKcj
         T _ZNSt3__17codecvtIwc11__mbstate_tEC1Ej
         T _ZNSt3__17codecvtIwc11__mbstate_tEC2EPKcj
         T _ZNSt3__17codecvtIwc11__mbstate_tEC2Ej
         T _ZNSt3__17codecvtIwc11__mbstate_tED0Ev
         T _ZNSt3__17codecvtIwc11__mbstate_tED1Ev
         T _ZNSt3__17codecvtIwc11__mbstate_tED2Ev
         W _ZNSt3__17collateIcE2idE
         W _ZNSt3__17collateIcEC1Ej
         W _ZNSt3__17collateIcEC2Ej
         W _ZNSt3__17collateIcED0Ev
         W _ZNSt3__17collateIcED1Ev
         W _ZNSt3__17collateIcED2Ev
         W _ZNSt3__17collateIwE2idE
         W _ZNSt3__17collateIwEC1Ej
         W _ZNSt3__17collateIwEC2Ej
         W _ZNSt3__17collateIwED0Ev
         W _ZNSt3__17collateIwED1Ev
         W _ZNSt3__17collateIwED2Ev
         W _ZNSt3__17num_getIcNS_19istreambuf_iteratorIcNS_11char_traitsIcEEEEE2idE
         W _ZNSt3__17num_getIcNS_19istreambuf_iteratorIcNS_11char_traitsIcEEEEEC1Ej
         W _ZNSt3__17num_getIcNS_19istreambuf_iteratorIcNS_11char_traitsIcEEEEEC2Ej
         W _ZNSt3__17num_getIcNS_19istreambuf_iteratorIcNS_11char_traitsIcEEEEED0Ev
         W _ZNSt3__17num_getIcNS_19istreambuf_iteratorIcNS_11char_traitsIcEEEEED1Ev
         W _ZNSt3__17num_getIcNS_19istreambuf_iteratorIcNS_11char_traitsIcEEEEED2Ev
         W _ZNSt3__17num_getIwNS_19istreambuf_iteratorIwNS_11char_traitsIwEEEEE2idE
         W _ZNSt3__17num_getIwNS_19istreambuf_iteratorIwNS_11char_traitsIwEEEEEC1Ej
         W _ZNSt3__17num_getIwNS_19istreambuf_iteratorIwNS_11char_traitsIwEEEEEC2Ej
         W _ZNSt3__17num_getIwNS_19istreambuf_iteratorIwNS_11char_traitsIwEEEEED0Ev
         W _ZNSt3__17num_getIwNS_19istreambuf_iteratorIwNS_11char_traitsIwEEEEED1Ev
         W _ZNSt3__17num_getIwNS_19istreambuf_iteratorIwNS_11char_traitsIwEEEEED2Ev
         W _ZNSt3__17num_putIcNS_19ostreambuf_iteratorIcNS_11char_traitsIcEEEEE2idE
         W _ZNSt3__17num_putIcNS_19ostreambuf_iteratorIcNS_11char_traitsIcEEEEEC1Ej
         W _ZNSt3__17num_putIcNS_19ostreambuf_iteratorIcNS_11char_traitsIcEEEEEC2Ej
         W _ZNSt3__17num_putIcNS_19ostreambuf_iteratorIcNS_11char_traitsIcEEEEED0Ev
         W _ZNSt3__17num_putIcNS_19ostreambuf_iteratorIcNS_11char_traitsIcEEEEED1Ev
         W _ZNSt3__17num_putIcNS_19ostreambuf_iteratorIcNS_11char_traitsIcEEEEED2Ev
         W _ZNSt3__17num_putIwNS_19ostreambuf_iteratorIwNS_11char_traitsIwEEEEE2idE
         W _ZNSt3__17num_putIwNS_19ostreambuf_iteratorIwNS_11char_traitsIwEEEEEC1Ej
         W _ZNSt3__17num_putIwNS_19ostreambuf_iteratorIwNS_11char_traitsIwEEEEEC2Ej
         W _ZNSt3__17num_putIwNS_19ostreambuf_iteratorIwNS_11char_traitsIwEEEEED0Ev
         W _ZNSt3__17num_putIwNS_19ostreambuf_iteratorIwNS_11char_traitsIwEEEEED1Ev
         W _ZNSt3__17num_putIwNS_19ostreambuf_iteratorIwNS_11char_traitsIwEEEEED2Ev
         T _ZNSt3__17promiseIvE10get_futureEv
         T _ZNSt3__17promiseIvE13set_exceptionESt13exception_ptr
         T _ZNSt3__17promiseIvE24set_value_at_thread_exitEv
         T _ZNSt3__17promiseIvE28set_exception_at_thread_exitESt13exception_ptr
         T _ZNSt3__17promiseIvE9set_valueEv
         T _ZNSt3__17promiseIvEC1Ev
         T _ZNSt3__17promiseIvEC2Ev
         T _ZNSt3__17promiseIvED1Ev
         T _ZNSt3__17promiseIvED2Ev
         T _ZNSt3__18__c_node5__addEPNS_8__i_nodeE
         T _ZNSt3__18__c_node8__removeEPNS_8__i_nodeE
         T _ZNSt3__18__c_nodeD0Ev
         T _ZNSt3__18__c_nodeD1Ev
         T _ZNSt3__18__c_nodeD2Ev
         T _ZNSt3__18__get_dbEv
         T _ZNSt3__18__i_nodeD1Ev
         T _ZNSt3__18__i_nodeD2Ev
         T _ZNSt3__18__rs_getEv
         C _ZNSt3__18__searchIPFbwwEPKwS4_EET0_S5_S5_T1_S6_T_NS_26random_access_iterator_tagES8_
         T _ZNSt3__18__sp_mut4lockEv
         T _ZNSt3__18__sp_mut6unlockEv
         D _ZNSt3__18ios_base10floatfieldE
         D _ZNSt3__18ios_base10scientificE
         D _ZNSt3__18ios_base11adjustfieldE
         T _ZNSt3__18ios_base15sync_with_stdioEb
         T _ZNSt3__18ios_base16__call_callbacksENS0_5eventE
         T _ZNSt3__18ios_base17register_callbackEPFvNS0_5eventERS0_iEi
         D _ZNSt3__18ios_base2inE
         T _ZNSt3__18ios_base33__set_badbit_and_consider_rethrowEv
         T _ZNSt3__18ios_base34__set_failbit_and_consider_rethrowEv
         D _ZNSt3__18ios_base3appE
         D _ZNSt3__18ios_base3ateE
         D _ZNSt3__18ios_base3decE
         D _ZNSt3__18ios_base3hexE
         D _ZNSt3__18ios_base3octE
         D _ZNSt3__18ios_base3outE
         T _ZNSt3__18ios_base4InitC1Ev
         T _ZNSt3__18ios_base4InitC2Ev
         T _ZNSt3__18ios_base4InitD1Ev
         T _ZNSt3__18ios_base4InitD2Ev
         T _ZNSt3__18ios_base4initEPv
         D _ZNSt3__18ios_base4leftE
         T _ZNSt3__18ios_base4moveERS0_
         T _ZNSt3__18ios_base4swapERS0_
         T _ZNSt3__18ios_base5clearEj
         D _ZNSt3__18ios_base5fixedE
         T _ZNSt3__18ios_base5imbueERKNS_6localeE
         T _ZNSt3__18ios_base5iwordEi
         T _ZNSt3__18ios_base5pwordEi
         D _ZNSt3__18ios_base5rightE
         D _ZNSt3__18ios_base5truncE
         D _ZNSt3__18ios_base6badbitE
         D _ZNSt3__18ios_base6binaryE
         D _ZNSt3__18ios_base6eofbitE
         D _ZNSt3__18ios_base6skipwsE
         T _ZNSt3__18ios_base6xallocEv
         T _ZNSt3__18ios_base7copyfmtERKS0_
         D _ZNSt3__18ios_base7failbitE
         T _ZNSt3__18ios_base7failureC1EPKcRKNS_10error_codeE
         T _ZNSt3__18ios_base7failureC1ERKNS_12basic_stringIcNS_11char_traitsIcEENS_9allocatorIcEEEERKNS_10error_codeE
         T _ZNSt3__18ios_base7failureC2EPKcRKNS_10error_codeE
         T _ZNSt3__18ios_base7failureC2ERKNS_12basic_stringIcNS_11char_traitsIcEENS_9allocatorIcEEEERKNS_10error_codeE
         T _ZNSt3__18ios_base7failureD0Ev
         T _ZNSt3__18ios_base7failureD1Ev
         T _ZNSt3__18ios_base7failureD2Ev
         D _ZNSt3__18ios_base7goodbitE
         D _ZNSt3__18ios_base7showposE
         D _ZNSt3__18ios_base7unitbufE
         D _ZNSt3__18ios_base8internalE
         D _ZNSt3__18ios_base8showbaseE
         D _ZNSt3__18ios_base9__xindex_E
         D _ZNSt3__18ios_base9basefieldE
         D _ZNSt3__18ios_base9boolalphaE
         D _ZNSt3__18ios_base9showpointE
         D _ZNSt3__18ios_base9uppercaseE
         T _ZNSt3__18ios_baseD0Ev
         T _ZNSt3__18ios_baseD1Ev
         T _ZNSt3__18ios_baseD2Ev
         W _ZNSt3__18messagesIcE2idE
         W _ZNSt3__18messagesIcEC1Ej
         W _ZNSt3__18messagesIcEC2Ej
         W _ZNSt3__18messagesIcED0Ev
         W _ZNSt3__18messagesIcED1Ev
         W _ZNSt3__18messagesIcED2Ev
         W _ZNSt3__18messagesIwE2idE
         W _ZNSt3__18messagesIwEC1Ej
         W _ZNSt3__18messagesIwEC2Ej
         W _ZNSt3__18messagesIwED0Ev
         W _ZNSt3__18messagesIwED1Ev
         W _ZNSt3__18messagesIwED2Ev
         D _ZNSt3__18numpunctIcE2idE
         T _ZNSt3__18numpunctIcEC1Ej
         T _ZNSt3__18numpunctIcEC2Ej
         T _ZNSt3__18numpunctIcED0Ev
         T _ZNSt3__18numpunctIcED1Ev
         T _ZNSt3__18numpunctIcED2Ev
         D _ZNSt3__18numpunctIwE2idE
         T _ZNSt3__18numpunctIwEC1Ej
         T _ZNSt3__18numpunctIwEC2Ej
         T _ZNSt3__18numpunctIwED0Ev
         T _ZNSt3__18numpunctIwED1Ev
         T _ZNSt3__18numpunctIwED2Ev
         W _ZNSt3__18time_getIcNS_19istreambuf_iteratorIcNS_11char_traitsIcEEEEE2idE
         W _ZNSt3__18time_getIcNS_19istreambuf_iteratorIcNS_11char_traitsIcEEEEEC1Ej
         W _ZNSt3__18time_getIcNS_19istreambuf_iteratorIcNS_11char_traitsIcEEEEEC2Ej
         W _ZNSt3__18time_getIcNS_19istreambuf_iteratorIcNS_11char_traitsIcEEEEED0Ev
         W _ZNSt3__18time_getIcNS_19istreambuf_iteratorIcNS_11char_traitsIcEEEEED1Ev
         W _ZNSt3__18time_getIcNS_19istreambuf_iteratorIcNS_11char_traitsIcEEEEED2Ev
         W _ZNSt3__18time_getIwNS_19istreambuf_iteratorIwNS_11char_traitsIwEEEEE2idE
         W _ZNSt3__18time_getIwNS_19istreambuf_iteratorIwNS_11char_traitsIwEEEEEC1Ej
         W _ZNSt3__18time_getIwNS_19istreambuf_iteratorIwNS_11char_traitsIwEEEEEC2Ej
         W _ZNSt3__18time_getIwNS_19istreambuf_iteratorIwNS_11char_traitsIwEEEEED0Ev
         W _ZNSt3__18time_getIwNS_19istreambuf_iteratorIwNS_11char_traitsIwEEEEED1Ev
         W _ZNSt3__18time_getIwNS_19istreambuf_iteratorIwNS_11char_traitsIwEEEEED2Ev
         W _ZNSt3__18time_putIcNS_19ostreambuf_iteratorIcNS_11char_traitsIcEEEEE2idE
         W _ZNSt3__18time_putIcNS_19ostreambuf_iteratorIcNS_11char_traitsIcEEEEEC1EPKcj
         W _ZNSt3__18time_putIcNS_19ostreambuf_iteratorIcNS_11char_traitsIcEEEEEC1ERKNS_12basic_stringIcS3_NS_9allocatorIcEEEEj
         W _ZNSt3__18time_putIcNS_19ostreambuf_iteratorIcNS_11char_traitsIcEEEEEC1Ej
         W _ZNSt3__18time_putIcNS_19ostreambuf_iteratorIcNS_11char_traitsIcEEEEEC2EPKcj
         W _ZNSt3__18time_putIcNS_19ostreambuf_iteratorIcNS_11char_traitsIcEEEEEC2ERKNS_12basic_stringIcS3_NS_9allocatorIcEEEEj
         W _ZNSt3__18time_putIcNS_19ostreambuf_iteratorIcNS_11char_traitsIcEEEEEC2Ej
         W _ZNSt3__18time_putIcNS_19ostreambuf_iteratorIcNS_11char_traitsIcEEEEED0Ev
         W _ZNSt3__18time_putIcNS_19ostreambuf_iteratorIcNS_11char_traitsIcEEEEED1Ev
         W _ZNSt3__18time_putIcNS_19ostreambuf_iteratorIcNS_11char_traitsIcEEEEED2Ev
         W _ZNSt3__18time_putIwNS_19ostreambuf_iteratorIwNS_11char_traitsIwEEEEE2idE
         W _ZNSt3__18time_putIwNS_19ostreambuf_iteratorIwNS_11char_traitsIwEEEEEC1EPKcj
         W _ZNSt3__18time_putIwNS_19ostreambuf_iteratorIwNS_11char_traitsIwEEEEEC1ERKNS_12basic_stringIcNS2_IcEENS_9allocatorIcEEEEj
         W _ZNSt3__18time_putIwNS_19ostreambuf_iteratorIwNS_11char_traitsIwEEEEEC1Ej
         W _ZNSt3__18time_putIwNS_19ostreambuf_iteratorIwNS_11char_traitsIwEEEEEC2EPKcj
         W _ZNSt3__18time_putIwNS_19ostreambuf_iteratorIwNS_11char_traitsIwEEEEEC2ERKNS_12basic_stringIcNS2_IcEENS_9allocatorIcEEEEj
         W _ZNSt3__18time_putIwNS_19ostreambuf_iteratorIwNS_11char_traitsIwEEEEEC2Ej
         W _ZNSt3__18time_putIwNS_19ostreambuf_iteratorIwNS_11char_traitsIwEEEEED0Ev
         W _ZNSt3__18time_putIwNS_19ostreambuf_iteratorIwNS_11char_traitsIwEEEEED1Ev
         W _ZNSt3__18time_putIwNS_19ostreambuf_iteratorIwNS_11char_traitsIwEEEEED2Ev
         W _ZNSt3__18valarrayIjE6resizeEjj
         W _ZNSt3__18valarrayIjEC1Ej
         W _ZNSt3__18valarrayIjEC2Ej
         W _ZNSt3__18valarrayIjED1Ev
         W _ZNSt3__18valarrayIjED2Ev
         W _ZNSt3__19__num_getIcE17__stage2_int_loopEciPcRS2_RjcRKNS_12basic_stringIcNS_11char_traitsIcEENS_9allocatorIcEEEEPjRSD_S2_
         W _ZNSt3__19__num_getIcE17__stage2_int_prepERNS_8ios_baseEPcRc
         W _ZNSt3__19__num_getIcE19__stage2_float_loopEcRbRcPcRS4_ccRKNS_12basic_stringIcNS_11char_traitsIcEENS_9allocatorIcEEEEPjRSE_RjS4_
         W _ZNSt3__19__num_getIcE19__stage2_float_prepERNS_8ios_baseEPcRcS5_
         W _ZNSt3__19__num_getIwE17__stage2_int_loopEwiPcRS2_RjwRKNS_12basic_stringIcNS_11char_traitsIcEENS_9allocatorIcEEEEPjRSD_Pw
         W _ZNSt3__19__num_getIwE17__stage2_int_prepERNS_8ios_baseEPwRw
         W _ZNSt3__19__num_getIwE19__stage2_float_loopEwRbRcPcRS4_wwRKNS_12basic_stringIcNS_11char_traitsIcEENS_9allocatorIcEEEEPjRSE_RjPw
         W _ZNSt3__19__num_getIwE19__stage2_float_prepERNS_8ios_baseEPwRwS5_
         W _ZNSt3__19__num_putIcE21__widen_and_group_intEPcS2_S2_S2_RS2_S3_RKNS_6localeE
         W _ZNSt3__19__num_putIcE23__widen_and_group_floatEPcS2_S2_S2_RS2_S3_RKNS_6localeE
         W _ZNSt3__19__num_putIwE21__widen_and_group_intEPcS2_S2_PwRS3_S4_RKNS_6localeE
         W _ZNSt3__19__num_putIwE23__widen_and_group_floatEPcS2_S2_PwRS3_S4_RKNS_6localeE
         W _ZNSt3__19basic_iosIcNS_11char_traitsIcEEE10exceptionsEj
         W _ZNSt3__19basic_iosIcNS_11char_traitsIcEEE3tieEPNS_13basic_ostreamIcS2_EE
         W _ZNSt3__19basic_iosIcNS_11char_traitsIcEEE4fillEc
         W _ZNSt3__19basic_iosIcNS_11char_traitsIcEEE4initEPNS_15basic_streambufIcS2_EE
         W _ZNSt3__19basic_iosIcNS_11char_traitsIcEEE4moveEOS3_
         W _ZNSt3__19basic_iosIcNS_11char_traitsIcEEE4moveERS3_
         W _ZNSt3__19basic_iosIcNS_11char_traitsIcEEE4swapERS3_
         W _ZNSt3__19basic_iosIcNS_11char_traitsIcEEE5clearEj
         W _ZNSt3__19basic_iosIcNS_11char_traitsIcEEE5imbueERKNS_6localeE
         W _ZNSt3__19basic_iosIcNS_11char_traitsIcEEE5rdbufEPNS_15basic_streambufIcS2_EE
         W _ZNSt3__19basic_iosIcNS_11char_traitsIcEEE7copyfmtERKS3_
         W _ZNSt3__19basic_iosIcNS_11char_traitsIcEEE8setstateEj
         W _ZNSt3__19basic_iosIcNS_11char_traitsIcEEE9set_rdbufEPNS_15basic_streambufIcS2_EE
         W _ZNSt3__19basic_iosIcNS_11char_traitsIcEEEC1EPNS_15basic_streambufIcS2_EE
         W _ZNSt3__19basic_iosIcNS_11char_traitsIcEEEC1Ev
         W _ZNSt3__19basic_iosIcNS_11char_traitsIcEEEC2EPNS_15basic_streambufIcS2_EE
         W _ZNSt3__19basic_iosIcNS_11char_traitsIcEEEC2Ev
         W _ZNSt3__19basic_iosIcNS_11char_traitsIcEEED0Ev
         W _ZNSt3__19basic_iosIcNS_11char_traitsIcEEED1Ev
         W _ZNSt3__19basic_iosIcNS_11char_traitsIcEEED2Ev
         W _ZNSt3__19basic_iosIwNS_11char_traitsIwEEE10exceptionsEj
         W _ZNSt3__19basic_iosIwNS_11char_traitsIwEEE3tieEPNS_13basic_ostreamIwS2_EE
         W _ZNSt3__19basic_iosIwNS_11char_traitsIwEEE4fillEw
         W _ZNSt3__19basic_iosIwNS_11char_traitsIwEEE4initEPNS_15basic_streambufIwS2_EE
         W _ZNSt3__19basic_iosIwNS_11char_traitsIwEEE4moveEOS3_
         W _ZNSt3__19basic_iosIwNS_11char_traitsIwEEE4moveERS3_
         W _ZNSt3__19basic_iosIwNS_11char_traitsIwEEE4swapERS3_
         W _ZNSt3__19basic_iosIwNS_11char_traitsIwEEE5clearEj
         W _ZNSt3__19basic_iosIwNS_11char_traitsIwEEE5imbueERKNS_6localeE
         W _ZNSt3__19basic_iosIwNS_11char_traitsIwEEE5rdbufEPNS_15basic_streambufIwS2_EE
         W _ZNSt3__19basic_iosIwNS_11char_traitsIwEEE7copyfmtERKS3_
         W _ZNSt3__19basic_iosIwNS_11char_traitsIwEEE8setstateEj
         W _ZNSt3__19basic_iosIwNS_11char_traitsIwEEE9set_rdbufEPNS_15basic_streambufIwS2_EE
         W _ZNSt3__19basic_iosIwNS_11char_traitsIwEEEC1EPNS_15basic_streambufIwS2_EE
         W _ZNSt3__19basic_iosIwNS_11char_traitsIwEEEC1Ev
         W _ZNSt3__19basic_iosIwNS_11char_traitsIwEEEC2EPNS_15basic_streambufIwS2_EE
         W _ZNSt3__19basic_iosIwNS_11char_traitsIwEEEC2Ev
         W _ZNSt3__19basic_iosIwNS_11char_traitsIwEEED0Ev
         W _ZNSt3__19basic_iosIwNS_11char_traitsIwEEED1Ev
         W _ZNSt3__19basic_iosIwNS_11char_traitsIwEEED2Ev
         W _ZNSt3__19money_getIcNS_19istreambuf_iteratorIcNS_11char_traitsIcEEEEE2idE
         W _ZNSt3__19money_getIcNS_19istreambuf_iteratorIcNS_11char_traitsIcEEEEE8__do_getERS4_S4_bRKNS_6localeEjRjRbRKNS_5ctypeIcEERNS_10unique_ptrIcPFvPvEEERPcSM_
         W _ZNSt3__19money_getIcNS_19istreambuf_iteratorIcNS_11char_traitsIcEEEEEC1Ej
         W _ZNSt3__19money_getIcNS_19istreambuf_iteratorIcNS_11char_traitsIcEEEEEC2Ej
         W _ZNSt3__19money_getIcNS_19istreambuf_iteratorIcNS_11char_traitsIcEEEEED0Ev
         W _ZNSt3__19money_getIcNS_19istreambuf_iteratorIcNS_11char_traitsIcEEEEED1Ev
         W _ZNSt3__19money_getIcNS_19istreambuf_iteratorIcNS_11char_traitsIcEEEEED2Ev
         W _ZNSt3__19money_getIwNS_19istreambuf_iteratorIwNS_11char_traitsIwEEEEE2idE
         W _ZNSt3__19money_getIwNS_19istreambuf_iteratorIwNS_11char_traitsIwEEEEE8__do_getERS4_S4_bRKNS_6localeEjRjRbRKNS_5ctypeIwEERNS_10unique_ptrIwPFvPvEEERPwSM_
         W _ZNSt3__19money_getIwNS_19istreambuf_iteratorIwNS_11char_traitsIwEEEEEC1Ej
         W _ZNSt3__19money_getIwNS_19istreambuf_iteratorIwNS_11char_traitsIwEEEEEC2Ej
         W _ZNSt3__19money_getIwNS_19istreambuf_iteratorIwNS_11char_traitsIwEEEEED0Ev
         W _ZNSt3__19money_getIwNS_19istreambuf_iteratorIwNS_11char_traitsIwEEEEED1Ev
         W _ZNSt3__19money_getIwNS_19istreambuf_iteratorIwNS_11char_traitsIwEEEEED2Ev
         W _ZNSt3__19money_putIcNS_19ostreambuf_iteratorIcNS_11char_traitsIcEEEEE2idE
         W _ZNSt3__19money_putIcNS_19ostreambuf_iteratorIcNS_11char_traitsIcEEEEEC1Ej
         W _ZNSt3__19money_putIcNS_19ostreambuf_iteratorIcNS_11char_traitsIcEEEEEC2Ej
         W _ZNSt3__19money_putIcNS_19ostreambuf_iteratorIcNS_11char_traitsIcEEEEED0Ev
         W _ZNSt3__19money_putIcNS_19ostreambuf_iteratorIcNS_11char_traitsIcEEEEED1Ev
         W _ZNSt3__19money_putIcNS_19ostreambuf_iteratorIcNS_11char_traitsIcEEEEED2Ev
         W _ZNSt3__19money_putIwNS_19ostreambuf_iteratorIwNS_11char_traitsIwEEEEE2idE
         W _ZNSt3__19money_putIwNS_19ostreambuf_iteratorIwNS_11char_traitsIwEEEEEC1Ej
         W _ZNSt3__19money_putIwNS_19ostreambuf_iteratorIwNS_11char_traitsIwEEEEEC2Ej
         W _ZNSt3__19money_putIwNS_19ostreambuf_iteratorIwNS_11char_traitsIwEEEEED0Ev
         W _ZNSt3__19money_putIwNS_19ostreambuf_iteratorIwNS_11char_traitsIwEEEEED1Ev
         W _ZNSt3__19money_putIwNS_19ostreambuf_iteratorIwNS_11char_traitsIwEEEEED2Ev
         T _ZNSt3__19strstreamD0Ev
         T _ZNSt3__19strstreamD1Ev
         T _ZNSt3__19strstreamD2Ev
         T _ZNSt3__19to_stringEd
         T _ZNSt3__19to_stringEe
         T _ZNSt3__19to_stringEf
         T _ZNSt3__19to_stringEi
         T _ZNSt3__19to_stringEj
         T _ZNSt3__19to_stringEl
         T _ZNSt3__19to_stringEm
         T _ZNSt3__19to_stringEx
         T _ZNSt3__19to_stringEy
         W _ZNSt3__1plIcNS_11char_traitsIcEENS_9allocatorIcEEEENS_12basic_stringIT_T0_T1_EEPKS6_RKS9_
         C _ZNSt3__1plIcNS_11char_traitsIcEENS_9allocatorIcEEEENS_12basic_stringIT_T0_T1_EERKS9_PKS6_
         T _ZSt17current_exceptionv
         T _ZSt17rethrow_exceptionSt13exception_ptr
         C _ZSt18make_exception_ptrINSt3__112future_errorEESt13exception_ptrT_
         D _ZTCNSt3__110istrstreamE0_NS_13basic_istreamIcNS_11char_traitsIcEEEE
         D _ZTCNSt3__110ostrstreamE0_NS_13basic_ostreamIcNS_11char_traitsIcEEEE
         W _ZTCNSt3__114basic_iostreamIcNS_11char_traitsIcEEEE0_NS_13basic_istreamIcS2_EE
         W _ZTCNSt3__114basic_iostreamIcNS_11char_traitsIcEEEE8_NS_13basic_ostreamIcS2_EE
         D _ZTCNSt3__19strstreamE0_NS_13basic_istreamIcNS_11char_traitsIcEEEE
         D _ZTCNSt3__19strstreamE0_NS_14basic_iostreamIcNS_11char_traitsIcEEEE
         D _ZTCNSt3__19strstreamE8_NS_13basic_ostreamIcNS_11char_traitsIcEEEE
         C _ZTINSt3__110__stdinbufIcEE
         C _ZTINSt3__110__stdinbufIwEE
         C _ZTINSt3__110__time_getE
         C _ZTINSt3__110__time_putE
         C _ZTINSt3__110ctype_baseE
         D _ZTINSt3__110istrstreamE
         C _ZTINSt3__110money_baseE
         W _ZTINSt3__110moneypunctIcLb0EEE
         W _ZTINSt3__110moneypunctIcLb1EEE
         W _ZTINSt3__110moneypunctIwLb0EEE
         W _ZTINSt3__110moneypunctIwLb1EEE
         D _ZTINSt3__110ostrstreamE
         C _ZTINSt3__111__money_getIcEE
         C _ZTINSt3__111__money_getIwEE
         C _ZTINSt3__111__money_putIcEE
         C _ZTINSt3__111__money_putIwEE
         C _ZTINSt3__111__stdoutbufIcEE
         C _ZTINSt3__111__stdoutbufIwEE
         D _ZTINSt3__111regex_errorE
         D _ZTINSt3__112__do_messageE
         D _ZTINSt3__112bad_weak_ptrE
         C _ZTINSt3__112codecvt_baseE
         D _ZTINSt3__112ctype_bynameIcEE
         D _ZTINSt3__112ctype_bynameIwEE
         D _ZTINSt3__112future_errorE
         D _ZTINSt3__112strstreambufE
         D _ZTINSt3__112system_errorE
         W _ZTINSt3__113basic_istreamIcNS_11char_traitsIcEEEE
         W _ZTINSt3__113basic_istreamIwNS_11char_traitsIwEEEE
         W _ZTINSt3__113basic_ostreamIcNS_11char_traitsIcEEEE
         W _ZTINSt3__113basic_ostreamIwNS_11char_traitsIwEEEE
         C _ZTINSt3__113messages_baseE
         D _ZTINSt3__114__codecvt_utf8IDiEE
         D _ZTINSt3__114__codecvt_utf8IDsEE
         D _ZTINSt3__114__codecvt_utf8IwEE
         C _ZTINSt3__114__num_get_baseE
         C _ZTINSt3__114__num_put_baseE
         D _ZTINSt3__114__shared_countE
         W _ZTINSt3__114basic_iostreamIcNS_11char_traitsIcEEEE
         W _ZTINSt3__114codecvt_bynameIDic11__mbstate_tEE
         W _ZTINSt3__114codecvt_bynameIDsc11__mbstate_tEE
         W _ZTINSt3__114codecvt_bynameIcc11__mbstate_tEE
         W _ZTINSt3__114codecvt_bynameIwc11__mbstate_tEE
         D _ZTINSt3__114collate_bynameIcEE
         D _ZTINSt3__114collate_bynameIwEE
         D _ZTINSt3__114error_categoryE
         D _ZTINSt3__115__codecvt_utf16IDiLb0EEE
         D _ZTINSt3__115__codecvt_utf16IDiLb1EEE
         D _ZTINSt3__115__codecvt_utf16IDsLb0EEE
         D _ZTINSt3__115__codecvt_utf16IDsLb1EEE
         D _ZTINSt3__115__codecvt_utf16IwLb0EEE
         D _ZTINSt3__115__codecvt_utf16IwLb1EEE
         C _ZTINSt3__115__time_get_tempIcEE
         C _ZTINSt3__115__time_get_tempIwEE
         W _ZTINSt3__115basic_streambufIcNS_11char_traitsIcEEEE
         W _ZTINSt3__115basic_streambufIwNS_11char_traitsIwEEEE
         W _ZTINSt3__115messages_bynameIcEE
         W _ZTINSt3__115messages_bynameIwEE
         D _ZTINSt3__115numpunct_bynameIcEE
         D _ZTINSt3__115numpunct_bynameIwEE
         W _ZTINSt3__115time_get_bynameIcNS_19istreambuf_iteratorIcNS_11char_traitsIcEEEEEE
         W _ZTINSt3__115time_get_bynameIwNS_19istreambuf_iteratorIwNS_11char_traitsIwEEEEEE
         W _ZTINSt3__115time_put_bynameIcNS_19ostreambuf_iteratorIcNS_11char_traitsIcEEEEEE
         W _ZTINSt3__115time_put_bynameIwNS_19ostreambuf_iteratorIwNS_11char_traitsIwEEEEEE
         D _ZTINSt3__116__narrow_to_utf8ILj16EEE
         D _ZTINSt3__116__narrow_to_utf8ILj32EEE
         D _ZTINSt3__117__assoc_sub_stateE
         D _ZTINSt3__117__widen_from_utf8ILj16EEE
         D _ZTINSt3__117__widen_from_utf8ILj32EEE
         W _ZTINSt3__117moneypunct_bynameIcLb0EEE
         W _ZTINSt3__117moneypunct_bynameIcLb1EEE
         W _ZTINSt3__117moneypunct_bynameIwLb0EEE
         W _ZTINSt3__117moneypunct_bynameIwLb1EEE
         C _ZTINSt3__118__time_get_storageIcEE
         C _ZTINSt3__118__time_get_storageIwEE
         D _ZTINSt3__119__iostream_categoryE
         D _ZTINSt3__119__shared_weak_countE
         D _ZTINSt3__120__codecvt_utf8_utf16IDiEE
         D _ZTINSt3__120__codecvt_utf8_utf16IDsEE
         D _ZTINSt3__120__codecvt_utf8_utf16IwEE
         C _ZTINSt3__120__time_get_c_storageIcEE
         C _ZTINSt3__120__time_get_c_storageIwEE
         D _ZTINSt3__123__future_error_categoryE
         D _ZTINSt3__123__system_error_categoryE
         D _ZTINSt3__124__generic_error_categoryE
         D _ZTINSt3__15ctypeIcEE
         D _ZTINSt3__15ctypeIwEE
         D _ZTINSt3__16locale5__impE
         D _ZTINSt3__16locale5facetE
         D _ZTINSt3__17codecvtIDic11__mbstate_tEE
         D _ZTINSt3__17codecvtIDsc11__mbstate_tEE
         D _ZTINSt3__17codecvtIcc11__mbstate_tEE
         D _ZTINSt3__17codecvtIwc11__mbstate_tEE
         W _ZTINSt3__17collateIcEE
         W _ZTINSt3__17collateIwEE
         W _ZTINSt3__17num_getIcNS_19istreambuf_iteratorIcNS_11char_traitsIcEEEEEE
         W _ZTINSt3__17num_getIwNS_19istreambuf_iteratorIwNS_11char_traitsIwEEEEEE
         W _ZTINSt3__17num_putIcNS_19ostreambuf_iteratorIcNS_11char_traitsIcEEEEEE
         W _ZTINSt3__17num_putIwNS_19ostreambuf_iteratorIwNS_11char_traitsIwEEEEEE
         D _ZTINSt3__18__c_nodeE
         D _ZTINSt3__18ios_base7failureE
         D _ZTINSt3__18ios_baseE
         W _ZTINSt3__18messagesIcEE
         W _ZTINSt3__18messagesIwEE
         D _ZTINSt3__18numpunctIcEE
         D _ZTINSt3__18numpunctIwEE
         W _ZTINSt3__18time_getIcNS_19istreambuf_iteratorIcNS_11char_traitsIcEEEEEE
         W _ZTINSt3__18time_getIwNS_19istreambuf_iteratorIwNS_11char_traitsIwEEEEEE
         W _ZTINSt3__18time_putIcNS_19ostreambuf_iteratorIcNS_11char_traitsIcEEEEEE
         W _ZTINSt3__18time_putIwNS_19ostreambuf_iteratorIwNS_11char_traitsIwEEEEEE
         C _ZTINSt3__19__num_getIcEE
         C _ZTINSt3__19__num_getIwEE
         C _ZTINSt3__19__num_putIcEE
         C _ZTINSt3__19__num_putIwEE
         W _ZTINSt3__19basic_iosIcNS_11char_traitsIcEEEE
         W _ZTINSt3__19basic_iosIwNS_11char_traitsIwEEEE
         W _ZTINSt3__19money_getIcNS_19istreambuf_iteratorIcNS_11char_traitsIcEEEEEE
         W _ZTINSt3__19money_getIwNS_19istreambuf_iteratorIwNS_11char_traitsIwEEEEEE
         W _ZTINSt3__19money_putIcNS_19ostreambuf_iteratorIcNS_11char_traitsIcEEEEEE
         W _ZTINSt3__19money_putIwNS_19ostreambuf_iteratorIwNS_11char_traitsIwEEEEEE
         D _ZTINSt3__19strstreamE
         C _ZTINSt3__19time_baseE
         D _ZTISt16nested_exception
         C _ZTSNSt3__110__stdinbufIcEE
         C _ZTSNSt3__110__stdinbufIwEE
         C _ZTSNSt3__110__time_getE
         C _ZTSNSt3__110__time_putE
         C _ZTSNSt3__110ctype_baseE
         D _ZTSNSt3__110istrstreamE
         C _ZTSNSt3__110money_baseE
         W _ZTSNSt3__110moneypunctIcLb0EEE
         W _ZTSNSt3__110moneypunctIcLb1EEE
         W _ZTSNSt3__110moneypunctIwLb0EEE
         W _ZTSNSt3__110moneypunctIwLb1EEE
         D _ZTSNSt3__110ostrstreamE
         C _ZTSNSt3__111__money_getIcEE
         C _ZTSNSt3__111__money_getIwEE
         C _ZTSNSt3__111__money_putIcEE
         C _ZTSNSt3__111__money_putIwEE
         C _ZTSNSt3__111__stdoutbufIcEE
         C _ZTSNSt3__111__stdoutbufIwEE
         D _ZTSNSt3__111regex_errorE
         D _ZTSNSt3__112__do_messageE
         D _ZTSNSt3__112bad_weak_ptrE
         C _ZTSNSt3__112codecvt_baseE
         D _ZTSNSt3__112ctype_bynameIcEE
         D _ZTSNSt3__112ctype_bynameIwEE
         D _ZTSNSt3__112future_errorE
         D _ZTSNSt3__112strstreambufE
         D _ZTSNSt3__112system_errorE
         W _ZTSNSt3__113basic_istreamIcNS_11char_traitsIcEEEE
         W _ZTSNSt3__113basic_istreamIwNS_11char_traitsIwEEEE
         W _ZTSNSt3__113basic_ostreamIcNS_11char_traitsIcEEEE
         W _ZTSNSt3__113basic_ostreamIwNS_11char_traitsIwEEEE
         C _ZTSNSt3__113messages_baseE
         D _ZTSNSt3__114__codecvt_utf8IDiEE
         D _ZTSNSt3__114__codecvt_utf8IDsEE
         D _ZTSNSt3__114__codecvt_utf8IwEE
         C _ZTSNSt3__114__num_get_baseE
         C _ZTSNSt3__114__num_put_baseE
         D _ZTSNSt3__114__shared_countE
         W _ZTSNSt3__114basic_iostreamIcNS_11char_traitsIcEEEE
         W _ZTSNSt3__114codecvt_bynameIDic11__mbstate_tEE
         W _ZTSNSt3__114codecvt_bynameIDsc11__mbstate_tEE
         W _ZTSNSt3__114codecvt_bynameIcc11__mbstate_tEE
         W _ZTSNSt3__114codecvt_bynameIwc11__mbstate_tEE
         D _ZTSNSt3__114collate_bynameIcEE
         D _ZTSNSt3__114collate_bynameIwEE
         D _ZTSNSt3__114error_categoryE
         D _ZTSNSt3__115__codecvt_utf16IDiLb0EEE
         D _ZTSNSt3__115__codecvt_utf16IDiLb1EEE
         D _ZTSNSt3__115__codecvt_utf16IDsLb0EEE
         D _ZTSNSt3__115__codecvt_utf16IDsLb1EEE
         D _ZTSNSt3__115__codecvt_utf16IwLb0EEE
         D _ZTSNSt3__115__codecvt_utf16IwLb1EEE
         C _ZTSNSt3__115__time_get_tempIcEE
         C _ZTSNSt3__115__time_get_tempIwEE
         W _ZTSNSt3__115basic_streambufIcNS_11char_traitsIcEEEE
         W _ZTSNSt3__115basic_streambufIwNS_11char_traitsIwEEEE
         W _ZTSNSt3__115messages_bynameIcEE
         W _ZTSNSt3__115messages_bynameIwEE
         D _ZTSNSt3__115numpunct_bynameIcEE
         D _ZTSNSt3__115numpunct_bynameIwEE
         W _ZTSNSt3__115time_get_bynameIcNS_19istreambuf_iteratorIcNS_11char_traitsIcEEEEEE
         W _ZTSNSt3__115time_get_bynameIwNS_19istreambuf_iteratorIwNS_11char_traitsIwEEEEEE
         W _ZTSNSt3__115time_put_bynameIcNS_19ostreambuf_iteratorIcNS_11char_traitsIcEEEEEE
         W _ZTSNSt3__115time_put_bynameIwNS_19ostreambuf_iteratorIwNS_11char_traitsIwEEEEEE
         D _ZTSNSt3__116__narrow_to_utf8ILj16EEE
         D _ZTSNSt3__116__narrow_to_utf8ILj32EEE
         D _ZTSNSt3__117__assoc_sub_stateE
         D _ZTSNSt3__117__widen_from_utf8ILj16EEE
         D _ZTSNSt3__117__widen_from_utf8ILj32EEE
         W _ZTSNSt3__117moneypunct_bynameIcLb0EEE
         W _ZTSNSt3__117moneypunct_bynameIcLb1EEE
         W _ZTSNSt3__117moneypunct_bynameIwLb0EEE
         W _ZTSNSt3__117moneypunct_bynameIwLb1EEE
         C _ZTSNSt3__118__time_get_storageIcEE
         C _ZTSNSt3__118__time_get_storageIwEE
         D _ZTSNSt3__119__iostream_categoryE
         D _ZTSNSt3__119__shared_weak_countE
         D _ZTSNSt3__120__codecvt_utf8_utf16IDiEE
         D _ZTSNSt3__120__codecvt_utf8_utf16IDsEE
         D _ZTSNSt3__120__codecvt_utf8_utf16IwEE
         C _ZTSNSt3__120__time_get_c_storageIcEE
         C _ZTSNSt3__120__time_get_c_storageIwEE
         D _ZTSNSt3__123__future_error_categoryE
         D _ZTSNSt3__123__system_error_categoryE
         D _ZTSNSt3__124__generic_error_categoryE
         D _ZTSNSt3__15ctypeIcEE
         D _ZTSNSt3__15ctypeIwEE
         D _ZTSNSt3__16locale5__impE
         D _ZTSNSt3__16locale5facetE
         D _ZTSNSt3__17codecvtIDic11__mbstate_tEE
         D _ZTSNSt3__17codecvtIDsc11__mbstate_tEE
         D _ZTSNSt3__17codecvtIcc11__mbstate_tEE
         D _ZTSNSt3__17codecvtIwc11__mbstate_tEE
         W _ZTSNSt3__17collateIcEE
         W _ZTSNSt3__17collateIwEE
         W _ZTSNSt3__17num_getIcNS_19istreambuf_iteratorIcNS_11char_traitsIcEEEEEE
         W _ZTSNSt3__17num_getIwNS_19istreambuf_iteratorIwNS_11char_traitsIwEEEEEE
         W _ZTSNSt3__17num_putIcNS_19ostreambuf_iteratorIcNS_11char_traitsIcEEEEEE
         W _ZTSNSt3__17num_putIwNS_19ostreambuf_iteratorIwNS_11char_traitsIwEEEEEE
         D _ZTSNSt3__18__c_nodeE
         D _ZTSNSt3__18ios_base7failureE
         D _ZTSNSt3__18ios_baseE
         W _ZTSNSt3__18messagesIcEE
         W _ZTSNSt3__18messagesIwEE
         D _ZTSNSt3__18numpunctIcEE
         D _ZTSNSt3__18numpunctIwEE
         W _ZTSNSt3__18time_getIcNS_19istreambuf_iteratorIcNS_11char_traitsIcEEEEEE
         W _ZTSNSt3__18time_getIwNS_19istreambuf_iteratorIwNS_11char_traitsIwEEEEEE
         W _ZTSNSt3__18time_putIcNS_19ostreambuf_iteratorIcNS_11char_traitsIcEEEEEE
         W _ZTSNSt3__18time_putIwNS_19ostreambuf_iteratorIwNS_11char_traitsIwEEEEEE
         C _ZTSNSt3__19__num_getIcEE
         C _ZTSNSt3__19__num_getIwEE
         C _ZTSNSt3__19__num_putIcEE
         C _ZTSNSt3__19__num_putIwEE
         W _ZTSNSt3__19basic_iosIcNS_11char_traitsIcEEEE
         W _ZTSNSt3__19basic_iosIwNS_11char_traitsIwEEEE
         W _ZTSNSt3__19money_getIcNS_19istreambuf_iteratorIcNS_11char_traitsIcEEEEEE
         W _ZTSNSt3__19money_getIwNS_19istreambuf_iteratorIwNS_11char_traitsIwEEEEEE
         W _ZTSNSt3__19money_putIcNS_19ostreambuf_iteratorIcNS_11char_traitsIcEEEEEE
         W _ZTSNSt3__19money_putIwNS_19ostreambuf_iteratorIwNS_11char_traitsIwEEEEEE
         D _ZTSNSt3__19strstreamE
         C _ZTSNSt3__19time_baseE
         D _ZTSSt16nested_exception
         D _ZTTNSt3__110istrstreamE
         D _ZTTNSt3__110ostrstreamE
         W _ZTTNSt3__113basic_istreamIcNS_11char_traitsIcEEEE
         W _ZTTNSt3__113basic_istreamIwNS_11char_traitsIwEEEE
         W _ZTTNSt3__113basic_ostreamIcNS_11char_traitsIcEEEE
         W _ZTTNSt3__113basic_ostreamIwNS_11char_traitsIwEEEE
         W _ZTTNSt3__114basic_iostreamIcNS_11char_traitsIcEEEE
         D _ZTTNSt3__19strstreamE
         C _ZTVNSt3__110__stdinbufIcEE
         C _ZTVNSt3__110__stdinbufIwEE
         D _ZTVNSt3__110istrstreamE
         W _ZTVNSt3__110moneypunctIcLb0EEE
         W _ZTVNSt3__110moneypunctIcLb1EEE
         W _ZTVNSt3__110moneypunctIwLb0EEE
         W _ZTVNSt3__110moneypunctIwLb1EEE
         D _ZTVNSt3__110ostrstreamE
         C _ZTVNSt3__111__stdoutbufIcEE
         C _ZTVNSt3__111__stdoutbufIwEE
         D _ZTVNSt3__111regex_errorE
         D _ZTVNSt3__112__do_messageE
         D _ZTVNSt3__112bad_weak_ptrE
         D _ZTVNSt3__112ctype_bynameIcEE
         D _ZTVNSt3__112ctype_bynameIwEE
         D _ZTVNSt3__112future_errorE
         D _ZTVNSt3__112strstreambufE
         D _ZTVNSt3__112system_errorE
         W _ZTVNSt3__113basic_istreamIcNS_11char_traitsIcEEEE
         W _ZTVNSt3__113basic_istreamIwNS_11char_traitsIwEEEE
         W _ZTVNSt3__113basic_ostreamIcNS_11char_traitsIcEEEE
         W _ZTVNSt3__113basic_ostreamIwNS_11char_traitsIwEEEE
         D _ZTVNSt3__114__codecvt_utf8IDiEE
         D _ZTVNSt3__114__codecvt_utf8IDsEE
         D _ZTVNSt3__114__codecvt_utf8IwEE
         D _ZTVNSt3__114__shared_countE
         W _ZTVNSt3__114basic_iostreamIcNS_11char_traitsIcEEEE
         W _ZTVNSt3__114codecvt_bynameIDic11__mbstate_tEE
         W _ZTVNSt3__114codecvt_bynameIDsc11__mbstate_tEE
         W _ZTVNSt3__114codecvt_bynameIcc11__mbstate_tEE
         W _ZTVNSt3__114codecvt_bynameIwc11__mbstate_tEE
         D _ZTVNSt3__114collate_bynameIcEE
         D _ZTVNSt3__114collate_bynameIwEE
         D _ZTVNSt3__114error_categoryE
         D _ZTVNSt3__115__codecvt_utf16IDiLb0EEE
         D _ZTVNSt3__115__codecvt_utf16IDiLb1EEE
         D _ZTVNSt3__115__codecvt_utf16IDsLb0EEE
         D _ZTVNSt3__115__codecvt_utf16IDsLb1EEE
         D _ZTVNSt3__115__codecvt_utf16IwLb0EEE
         D _ZTVNSt3__115__codecvt_utf16IwLb1EEE
         C _ZTVNSt3__115__time_get_tempIcEE
         C _ZTVNSt3__115__time_get_tempIwEE
         W _ZTVNSt3__115basic_streambufIcNS_11char_traitsIcEEEE
         W _ZTVNSt3__115basic_streambufIwNS_11char_traitsIwEEEE
         W _ZTVNSt3__115messages_bynameIcEE
         W _ZTVNSt3__115messages_bynameIwEE
         D _ZTVNSt3__115numpunct_bynameIcEE
         D _ZTVNSt3__115numpunct_bynameIwEE
         W _ZTVNSt3__115time_get_bynameIcNS_19istreambuf_iteratorIcNS_11char_traitsIcEEEEEE
         W _ZTVNSt3__115time_get_bynameIwNS_19istreambuf_iteratorIwNS_11char_traitsIwEEEEEE
         W _ZTVNSt3__115time_put_bynameIcNS_19ostreambuf_iteratorIcNS_11char_traitsIcEEEEEE
         W _ZTVNSt3__115time_put_bynameIwNS_19ostreambuf_iteratorIwNS_11char_traitsIwEEEEEE
         D _ZTVNSt3__116__narrow_to_utf8ILj16EEE
         D _ZTVNSt3__116__narrow_to_utf8ILj32EEE
         D _ZTVNSt3__117__assoc_sub_stateE
         D _ZTVNSt3__117__widen_from_utf8ILj16EEE
         D _ZTVNSt3__117__widen_from_utf8ILj32EEE
         W _ZTVNSt3__117moneypunct_bynameIcLb0EEE
         W _ZTVNSt3__117moneypunct_bynameIcLb1EEE
         W _ZTVNSt3__117moneypunct_bynameIwLb0EEE
         W _ZTVNSt3__117moneypunct_bynameIwLb1EEE
         D _ZTVNSt3__119__iostream_categoryE
         D _ZTVNSt3__119__shared_weak_countE
         D _ZTVNSt3__120__codecvt_utf8_utf16IDiEE
         D _ZTVNSt3__120__codecvt_utf8_utf16IDsEE
         D _ZTVNSt3__120__codecvt_utf8_utf16IwEE
         D _ZTVNSt3__123__future_error_categoryE
         D _ZTVNSt3__123__system_error_categoryE
         D _ZTVNSt3__124__generic_error_categoryE
         D _ZTVNSt3__15ctypeIcEE
         D _ZTVNSt3__15ctypeIwEE
         D _ZTVNSt3__16locale5__impE
         D _ZTVNSt3__16locale5facetE
         D _ZTVNSt3__17codecvtIDic11__mbstate_tEE
         D _ZTVNSt3__17codecvtIDsc11__mbstate_tEE
         D _ZTVNSt3__17codecvtIcc11__mbstate_tEE
         D _ZTVNSt3__17codecvtIwc11__mbstate_tEE
         W _ZTVNSt3__17collateIcEE
         W _ZTVNSt3__17collateIwEE
         W _ZTVNSt3__17num_getIcNS_19istreambuf_iteratorIcNS_11char_traitsIcEEEEEE
         W _ZTVNSt3__17num_getIwNS_19istreambuf_iteratorIwNS_11char_traitsIwEEEEEE
         W _ZTVNSt3__17num_putIcNS_19ostreambuf_iteratorIcNS_11char_traitsIcEEEEEE
         W _ZTVNSt3__17num_putIwNS_19ostreambuf_iteratorIwNS_11char_traitsIwEEEEEE
         D _ZTVNSt3__18__c_nodeE
         D _ZTVNSt3__18ios_base7failureE
         D _ZTVNSt3__18ios_baseE
         W _ZTVNSt3__18messagesIcEE
         W _ZTVNSt3__18messagesIwEE
         D _ZTVNSt3__18numpunctIcEE
         D _ZTVNSt3__18numpunctIwEE
         W _ZTVNSt3__18time_getIcNS_19istreambuf_iteratorIcNS_11char_traitsIcEEEEEE
         W _ZTVNSt3__18time_getIwNS_19istreambuf_iteratorIwNS_11char_traitsIwEEEEEE
         W _ZTVNSt3__18time_putIcNS_19ostreambuf_iteratorIcNS_11char_traitsIcEEEEEE
         W _ZTVNSt3__18time_putIwNS_19ostreambuf_iteratorIwNS_11char_traitsIwEEEEEE
         W _ZTVNSt3__19basic_iosIcNS_11char_traitsIcEEEE
         W _ZTVNSt3__19basic_iosIwNS_11char_traitsIwEEEE
         W _ZTVNSt3__19money_getIcNS_19istreambuf_iteratorIcNS_11char_traitsIcEEEEEE
         W _ZTVNSt3__19money_getIwNS_19istreambuf_iteratorIwNS_11char_traitsIwEEEEEE
         W _ZTVNSt3__19money_putIcNS_19ostreambuf_iteratorIcNS_11char_traitsIcEEEEEE
         W _ZTVNSt3__19money_putIwNS_19ostreambuf_iteratorIwNS_11char_traitsIwEEEEEE
         D _ZTVNSt3__19strstreamE
         D _ZTVSt16nested_exception
         W _ZThn8_NKSt3__115time_get_bynameIcNS_19istreambuf_iteratorIcNS_11char_traitsIcEEEEE3__XEv
         W _ZThn8_NKSt3__115time_get_bynameIcNS_19istreambuf_iteratorIcNS_11char_traitsIcEEEEE3__cEv
         W _ZThn8_NKSt3__115time_get_bynameIcNS_19istreambuf_iteratorIcNS_11char_traitsIcEEEEE3__rEv
         W _ZThn8_NKSt3__115time_get_bynameIcNS_19istreambuf_iteratorIcNS_11char_traitsIcEEEEE3__xEv
         W _ZThn8_NKSt3__115time_get_bynameIcNS_19istreambuf_iteratorIcNS_11char_traitsIcEEEEE7__am_pmEv
         W _ZThn8_NKSt3__115time_get_bynameIcNS_19istreambuf_iteratorIcNS_11char_traitsIcEEEEE7__weeksEv
         W _ZThn8_NKSt3__115time_get_bynameIcNS_19istreambuf_iteratorIcNS_11char_traitsIcEEEEE8__monthsEv
         W _ZThn8_NKSt3__115time_get_bynameIwNS_19istreambuf_iteratorIwNS_11char_traitsIwEEEEE3__XEv
         W _ZThn8_NKSt3__115time_get_bynameIwNS_19istreambuf_iteratorIwNS_11char_traitsIwEEEEE3__cEv
         W _ZThn8_NKSt3__115time_get_bynameIwNS_19istreambuf_iteratorIwNS_11char_traitsIwEEEEE3__rEv
         W _ZThn8_NKSt3__115time_get_bynameIwNS_19istreambuf_iteratorIwNS_11char_traitsIwEEEEE3__xEv
         W _ZThn8_NKSt3__115time_get_bynameIwNS_19istreambuf_iteratorIwNS_11char_traitsIwEEEEE7__am_pmEv
         W _ZThn8_NKSt3__115time_get_bynameIwNS_19istreambuf_iteratorIwNS_11char_traitsIwEEEEE7__weeksEv
         W _ZThn8_NKSt3__115time_get_bynameIwNS_19istreambuf_iteratorIwNS_11char_traitsIwEEEEE8__monthsEv
         W _ZThn8_NSt3__114basic_iostreamIcNS_11char_traitsIcEEED0Ev
         W _ZThn8_NSt3__114basic_iostreamIcNS_11char_traitsIcEEED1Ev
         T _ZThn8_NSt3__19strstreamD0Ev
         T _ZThn8_NSt3__19strstreamD1Ev
         T _ZTv0_n12_NSt3__110istrstreamD0Ev
         T _ZTv0_n12_NSt3__110istrstreamD1Ev
         T _ZTv0_n12_NSt3__110ostrstreamD0Ev
         T _ZTv0_n12_NSt3__110ostrstreamD1Ev
         W _ZTv0_n12_NSt3__113basic_istreamIcNS_11char_traitsIcEEED0Ev
         W _ZTv0_n12_NSt3__113basic_istreamIcNS_11char_traitsIcEEED1Ev
         W _ZTv0_n12_NSt3__113basic_istreamIwNS_11char_traitsIwEEED0Ev
         W _ZTv0_n12_NSt3__113basic_istreamIwNS_11char_traitsIwEEED1Ev
         W _ZTv0_n12_NSt3__113basic_ostreamIcNS_11char_traitsIcEEED0Ev
         W _ZTv0_n12_NSt3__113basic_ostreamIcNS_11char_traitsIcEEED1Ev
         W _ZTv0_n12_NSt3__113basic_ostreamIwNS_11char_traitsIwEEED0Ev
         W _ZTv0_n12_NSt3__113basic_ostreamIwNS_11char_traitsIwEEED1Ev
         W _ZTv0_n12_NSt3__114basic_iostreamIcNS_11char_traitsIcEEED0Ev
         W _ZTv0_n12_NSt3__114basic_iostreamIcNS_11char_traitsIcEEED1Ev
         T _ZTv0_n12_NSt3__19strstreamD0Ev
         T _ZTv0_n12_NSt3__19strstreamD1Ev
         C __clang_call_terminate
