; ModuleID = 'lua'
target datalayout = "e-p:32:32:32-i1:8:8-i8:8:8-i16:16:16-i32:32:32-i64:32:64-f32:32:32-f64:32:64-v64:64:64-v128:128:128-a0:0:64-f80:32:32-n8:16:32"
target triple = "i386-pc-linux-gnu"

%0 = type { %struct.lua_TValue }
%1 = type { %union.anon, i32, %struct.Node* }
%2 = type { %3 }
%3 = type { i32, i32 }
%4 = type { %union.GCObject*, i8, i8, %struct.Table*, %struct.Table*, i32 }
%5 = type { i8*, i8* }
%6 = type { i8*, i8*, i32, i8* }
%7 = type { %8, i32 }
%8 = type { %union.GCObject*, [4 x i8] }
%9 = type { %7, %10 }
%10 = type { %11 }
%11 = type { %8, i32, %struct.Node* }
%12 = type { %struct.lua_State*, i32 (%struct.lua_State*, i8*, i32, i8*)*, i8*, i32, i32 }
%13 = type { %struct.UpVal*, %struct.UpVal* }
%14 = type { %struct.lua_State*, %struct.Zio*, %struct.Mbuffer*, i8* }
%enum.BinOpr = type i32
%enum.OpArgMask = type i32
%enum.OpMode = type i32
%enum.UnOpr = type i32
%enum.anon = type i32
%struct.BlockCnt = type { %struct.BlockCnt*, i32, i8, i8, i8 }
%struct.CCallS = type { i32 (%struct.lua_State*)*, i8* }
%struct.CClosure = type { %union.GCObject*, i8, i8, i8, i8, %union.GCObject*, %struct.Table*, i32 (%struct.lua_State*)*, [1 x %struct.lua_TValue] }
%struct.CallInfo = type { %struct.lua_TValue*, %struct.lua_TValue*, %struct.lua_TValue*, i32*, i32, i32 }
%struct.CallS = type { %struct.lua_TValue*, i32 }
%struct.ConsControl = type { %struct.expdesc, %struct.expdesc*, i32, i32, i32 }
%struct.FuncState = type { %struct.Proto*, %struct.Table*, %struct.FuncState*, %struct.LexState*, %struct.lua_State*, %struct.BlockCnt*, i32, i32, i32, i32, i32, i32, i16, i8, [60 x %struct.upvaldesc], [200 x i16] }
%struct.GCheader = type { %union.GCObject*, i8, i8 }
%struct.LClosure = type { %union.GCObject*, i8, i8, i8, i8, %union.GCObject*, %struct.Table*, %struct.Proto*, [1 x %struct.UpVal*] }
%struct.LG = type { %struct.lua_State, %struct.global_State }
%struct.LHS_assign = type { %struct.LHS_assign*, %struct.expdesc }
%struct.LexState = type { i32, i32, i32, %struct.Token, %struct.Token, %struct.FuncState*, %struct.lua_State*, %struct.Zio*, %struct.Mbuffer*, %union.TString*, i8 }
%struct.LoadF = type { i32, %struct._IO_FILE*, [8192 x i8] }
%struct.LoadS = type { i8*, i32 }
%struct.LocVar = type { %union.TString*, i32, i32 }
%struct.MatchState = type { i8*, i8*, %struct.lua_State*, i32, [32 x %struct.LoadS] }
%struct.Mbuffer = type { i8*, i32, i32 }
%struct.Node = type { %struct.lua_TValue, %union.TKey }
%struct.Proto = type { %union.GCObject*, i8, i8, %struct.lua_TValue*, i32*, %struct.Proto**, i32*, %struct.LocVar*, %union.TString**, %union.TString*, i32, i32, i32, i32, i32, i32, i32, i32, %union.GCObject*, i8, i8, i8, i8 }
%struct.SParser = type { %struct.Zio*, %struct.Mbuffer, i8* }
%struct.Smain = type { i32, i8**, i32 }
%struct.Table = type { %union.GCObject*, i8, i8, i8, i8, %struct.Table*, %struct.lua_TValue*, %struct.Node*, %struct.Node*, %union.GCObject*, i32 }
%struct.Token = type { i32, %union.anon }
%struct.UpVal = type { %union.GCObject*, i8, i8, %struct.lua_TValue*, %0 }
%struct.Zio = type { i32, i8*, i8* (%struct.lua_State*, i8*, i32*)*, i8*, %struct.lua_State* }
%struct._IO_FILE = type { i32, i8*, i8*, i8*, i8*, i8*, i8*, i8*, i8*, i8*, i8*, i8*, %struct._IO_marker*, %struct._IO_FILE*, i32, i32, i32, i16, i8, [1 x i8], i8*, i64, i8*, i8*, i8*, i8*, i32, i32, [40 x i8] }
%struct._IO_marker = type { %struct._IO_marker*, %struct._IO_FILE*, i32 }
%struct.anon = type { %union.GCObject*, i8, i8, i8, i32, i32 }
%struct.expdesc = type { i32, %2, i32, i32 }
%struct.global_State = type { %struct.stringtable, i8* (i8*, i8*, i32, i32)*, i8*, i8, i8, i32, %union.GCObject*, %union.GCObject**, %union.GCObject*, %union.GCObject*, %union.GCObject*, %union.GCObject*, %struct.Mbuffer, i32, i32, i32, i32, i32, i32, i32 (%struct.lua_State*)*, %struct.lua_TValue, %struct.lua_State*, %struct.UpVal, [9 x %struct.Table*], [17 x %union.TString*] }
%struct.lconv = type { i8*, i8*, i8*, i8*, i8*, i8*, i8*, i8*, i8*, i8*, i8, i8, i8, i8, i8, i8, i8, i8, i8, i8, i8, i8, i8, i8 }
%struct.luaL_Buffer = type { i8*, i32, %struct.lua_State*, [8192 x i8] }
%struct.luaL_Reg = type { i8*, i32 (%struct.lua_State*)* }
%struct.lua_Debug = type { i32, i8*, i8*, i8*, i8*, i32, i32, i32, i32, [60 x i8], i32 }
%struct.lua_State = type { %union.GCObject*, i8, i8, i8, %struct.lua_TValue*, %struct.lua_TValue*, %struct.global_State*, %struct.CallInfo*, i32*, %struct.lua_TValue*, %struct.lua_TValue*, %struct.CallInfo*, %struct.CallInfo*, i32, i32, i16, i16, i8, i8, i32, i32, void (%struct.lua_State*, %struct.lua_Debug*)*, %struct.lua_TValue, %struct.lua_TValue, %union.GCObject*, %union.GCObject*, %struct.lua_longjmp*, i32 }
%struct.lua_TValue = type { %union.anon, i32 }
%struct.lua_longjmp = type { %struct.lua_longjmp*, i32, i32 }
%struct.stringtable = type { %union.GCObject**, i32, i32 }
%struct.tm = type { i32, i32, i32, i32, i32, i32, i32, i32, i32, i32, i8* }
%struct.upvaldesc = type { i8, i8 }
%union.Closure = type { %struct.CClosure }
%union.GCObject = type { %struct.lua_State }
%union.TKey = type { %1 }
%union.TString = type { %struct.anon }
%union.Udata = type { %4 }
%union.anon = type { double }

@_ZL7globalL = internal global %struct.lua_State* null, align 4 ; [#uses=2]
@.str = private constant [39 x i8] c"cannot create state: not enough memory\00" ; [#uses=1]
@.str1 = private constant [31 x i8] c"(error object is not a string)\00" ; [#uses=1]
@_ZL8progname = internal global i8* getelementptr inbounds ([4 x i8]* @.str2, i32 0, i32 0), align 4 ; [#uses=7]
@.str2 = private constant [4 x i8] c"lua\00"      ; [#uses=1]
@.str3 = private constant [6 x i8] c"print\00"    ; [#uses=1]
@.str4 = private constant [27 x i8] c"error calling 'print' (%s)\00" ; [#uses=1]
@.str5 = private constant [2 x i8] c"\0A\00"      ; [#uses=1]
@stdout = external global %struct._IO_FILE*       ; [#uses=8]
@.str6 = private constant [13 x i8] c"interrupted!\00" ; [#uses=1]
@.str7 = private constant [6 x i8] c"debug\00"    ; [#uses=1]
@.str8 = private constant [10 x i8] c"traceback\00" ; [#uses=1]
@.str9 = private constant [7 x i8] c"=stdin\00"   ; [#uses=1]
@.str10 = private constant [8 x i8] c"'<eof>'\00" ; [#uses=1]
@stdin = external global %struct._IO_FILE*        ; [#uses=4]
@.str11 = private constant [10 x i8] c"return %s\00" ; [#uses=1]
@.str12 = private constant [8 x i8] c"_PROMPT\00" ; [#uses=1]
@.str13 = private constant [9 x i8] c"_PROMPT2\00" ; [#uses=1]
@.str14 = private constant [3 x i8] c"> \00"      ; [#uses=1]
@.str15 = private constant [4 x i8] c">> \00"     ; [#uses=1]
@.str16 = private constant [4 x i8] c"arg\00"     ; [#uses=1]
@.str17 = private constant [2 x i8] c"-\00"       ; [#uses=1]
@.str18 = private constant [3 x i8] c"--\00"      ; [#uses=1]
@.str19 = private constant [29 x i8] c"too many arguments to script\00" ; [#uses=1]
@.str20 = private constant [16 x i8] c"=(command line)\00" ; [#uses=1]
@.str21 = private constant [8 x i8] c"require\00" ; [#uses=1]
@.str22 = private constant [52 x i8] c"Lua 5.1.4  Copyright (C) 1994-2008 Lua.org, PUC-Rio\00" ; [#uses=1]
@stderr = external global %struct._IO_FILE*       ; [#uses=10]
@.str23 = private constant [307 x i8] c"usage: %s [options] [script [args]].\0AAvailable options are:\0A  -e stat  execute string 'stat'\0A  -l name  require library 'name'\0A  -i       enter interactive mode after executing 'script'\0A  -v       show version information\0A  --       stop handling options\0A  -        execute stdin and stop handling options\0A\00" ; [#uses=1]
@.str24 = private constant [9 x i8] c"LUA_INIT\00" ; [#uses=1]
@.str25 = private constant [10 x i8] c"=LUA_INIT\00" ; [#uses=1]
@.str26 = private constant [5 x i8] c"%s: \00"    ; [#uses=1]
@.str27 = private constant [4 x i8] c"%s\0A\00"   ; [#uses=1]
@.str28 = private constant [23 x i8] c"no calling environment\00" ; [#uses=1]
@.str129 = private constant [9 x i8] c"no value\00" ; [#uses=1]
@.str230 = private constant [2 x i8] c"?\00"      ; [#uses=1]
@.str331 = private constant [1 x i8] zeroinitializer ; [#uses=1]
@.str432 = private constant [35 x i8] c"function or expression too complex\00" ; [#uses=1]
@.str1533 = private constant [19 x i8] c"code size overflow\00" ; [#uses=1]
@.str2634 = private constant [24 x i8] c"constant table overflow\00" ; [#uses=1]
@.str37 = private constant [27 x i8] c"control structure too long\00" ; [#uses=1]
@.str835 = private constant [35 x i8] c"attempt to %s %s '%s' (a %s value)\00" ; [#uses=1]
@.str1936 = private constant [25 x i8] c"attempt to %s a %s value\00" ; [#uses=1]
@.str210 = private constant [12 x i8] c"concatenate\00" ; [#uses=1]
@.str311 = private constant [22 x i8] c"perform arithmetic on\00" ; [#uses=1]
@.str412 = private constant [33 x i8] c"attempt to compare two %s values\00" ; [#uses=1]
@.str537 = private constant [30 x i8] c"attempt to compare %s with %s\00" ; [#uses=1]
@.str638 = private constant [10 x i8] c"%s:%d: %s\00" ; [#uses=1]
@.str739 = private constant [6 x i8] c"local\00"  ; [#uses=1]
@.str813 = private constant [7 x i8] c"global\00" ; [#uses=1]
@.str940 = private constant [6 x i8] c"field\00"  ; [#uses=1]
@.str1041 = private constant [2 x i8] c"?\00"     ; [#uses=1]
@.str1142 = private constant [8 x i8] c"upvalue\00" ; [#uses=1]
@.str1243 = private constant [7 x i8] c"method\00" ; [#uses=1]
@.str1344 = private constant [1 x i8] zeroinitializer ; [#uses=1]
@.str1445 = private constant [5 x i8] c"=[C]\00"  ; [#uses=1]
@.str1514 = private constant [2 x i8] c"C\00"     ; [#uses=1]
@.str1646 = private constant [5 x i8] c"main\00"  ; [#uses=1]
@.str1747 = private constant [4 x i8] c"Lua\00"   ; [#uses=1]
@.str1848 = private constant [5 x i8] c"tail\00"  ; [#uses=1]
@.str1915 = private constant [13 x i8] c"=(tail call)\00" ; [#uses=1]
@.str2049 = private constant [13 x i8] c"(*temporary)\00" ; [#uses=1]
@.str2150 = private constant [18 x i8] c"not enough memory\00" ; [#uses=1]
@.str122 = private constant [24 x i8] c"error in error handling\00" ; [#uses=1]
@_ZTVN10__cxxabiv119__pointer_type_infoE = external global i8* ; [#uses=1]
@_ZTSP11lua_longjmp = weak_odr constant [15 x i8] c"P11lua_longjmp\00" ; [#uses=1]
@_ZTVN10__cxxabiv117__class_type_infoE = external global i8* ; [#uses=1]
@_ZTS11lua_longjmp = weak_odr constant [14 x i8] c"11lua_longjmp\00" ; [#uses=1]
@_ZTI11lua_longjmp = weak_odr constant %5 { i8* bitcast (i8** getelementptr inbounds (i8** @_ZTVN10__cxxabiv117__class_type_infoE, i32 2) to i8*), i8* getelementptr inbounds ([14 x i8]* @_ZTS11lua_longjmp, i32 0, i32 0) } ; [#uses=1]
@_ZTIP11lua_longjmp = weak_odr constant %6 { i8* bitcast (i8** getelementptr inbounds (i8** @_ZTVN10__cxxabiv119__pointer_type_infoE, i32 2) to i8*), i8* getelementptr inbounds ([15 x i8]* @_ZTSP11lua_longjmp, i32 0, i32 0), i32 0, i8* bitcast (%5* @_ZTI11lua_longjmp to i8*) } ; [#uses=1]
@.str223 = private constant [17 x i8] c"C stack overflow\00" ; [#uses=1]
@.str324 = private constant [38 x i8] c"cannot resume non-suspended coroutine\00" ; [#uses=1]
@.str425 = private constant [51 x i8] c"attempt to yield across metamethod/C-call boundary\00" ; [#uses=1]
@.str526 = private constant [5 x i8] c"\1BLua\00" ; [#uses=1]
@.str627 = private constant [15 x i8] c"stack overflow\00" ; [#uses=1]
@.str728 = private constant [2 x i8] c"n\00"      ; [#uses=1]
@.str829 = private constant [5 x i8] c"call\00"   ; [#uses=1]
@.str47 = private constant [4 x i8] c"and\00"     ; [#uses=1]
@.str148 = private constant [6 x i8] c"break\00"  ; [#uses=1]
@.str249 = private constant [3 x i8] c"do\00"     ; [#uses=1]
@.str350 = private constant [5 x i8] c"else\00"   ; [#uses=1]
@.str451 = private constant [7 x i8] c"elseif\00" ; [#uses=1]
@.str552 = private constant [4 x i8] c"end\00"    ; [#uses=1]
@.str653 = private constant [6 x i8] c"false\00"  ; [#uses=1]
@.str754 = private constant [4 x i8] c"for\00"    ; [#uses=1]
@.str855 = private constant [9 x i8] c"function\00" ; [#uses=1]
@.str956 = private constant [3 x i8] c"if\00"     ; [#uses=1]
@.str1057 = private constant [3 x i8] c"in\00"    ; [#uses=1]
@.str1158 = private constant [6 x i8] c"local\00" ; [#uses=1]
@.str1259 = private constant [4 x i8] c"nil\00"   ; [#uses=1]
@.str1360 = private constant [4 x i8] c"not\00"   ; [#uses=1]
@.str1461 = private constant [3 x i8] c"or\00"    ; [#uses=1]
@.str1562 = private constant [7 x i8] c"repeat\00" ; [#uses=1]
@.str1663 = private constant [7 x i8] c"return\00" ; [#uses=1]
@.str1764 = private constant [5 x i8] c"then\00"  ; [#uses=1]
@.str1865 = private constant [5 x i8] c"true\00"  ; [#uses=1]
@.str1966 = private constant [6 x i8] c"until\00" ; [#uses=1]
@.str2067 = private constant [6 x i8] c"while\00" ; [#uses=1]
@.str2168 = private constant [3 x i8] c"..\00"    ; [#uses=1]
@.str2251 = private constant [4 x i8] c"...\00"   ; [#uses=1]
@.str2352 = private constant [3 x i8] c"==\00"    ; [#uses=1]
@.str2453 = private constant [3 x i8] c">=\00"    ; [#uses=1]
@.str2554 = private constant [3 x i8] c"<=\00"    ; [#uses=1]
@.str2669 = private constant [3 x i8] c"~=\00"    ; [#uses=1]
@.str2755 = private constant [9 x i8] c"<number>\00" ; [#uses=1]
@.str2856 = private constant [7 x i8] c"<name>\00" ; [#uses=1]
@.str29 = private constant [9 x i8] c"<string>\00" ; [#uses=1]
@.str30 = private constant [6 x i8] c"<eof>\00"   ; [#uses=1]
@luaX_tokens = hidden constant [32 x i8*] [i8* getelementptr inbounds ([4 x i8]* @.str47, i32 0, i32 0), i8* getelementptr inbounds ([6 x i8]* @.str148, i32 0, i32 0), i8* getelementptr inbounds ([3 x i8]* @.str249, i32 0, i32 0), i8* getelementptr inbounds ([5 x i8]* @.str350, i32 0, i32 0), i8* getelementptr inbounds ([7 x i8]* @.str451, i32 0, i32 0), i8* getelementptr inbounds ([4 x i8]* @.str552, i32 0, i32 0), i8* getelementptr inbounds ([6 x i8]* @.str653, i32 0, i32 0), i8* getelementptr inbounds ([4 x i8]* @.str754, i32 0, i32 0), i8* getelementptr inbounds ([9 x i8]* @.str855, i32 0, i32 0), i8* getelementptr inbounds ([3 x i8]* @.str956, i32 0, i32 0), i8* getelementptr inbounds ([3 x i8]* @.str1057, i32 0, i32 0), i8* getelementptr inbounds ([6 x i8]* @.str1158, i32 0, i32 0), i8* getelementptr inbounds ([4 x i8]* @.str1259, i32 0, i32 0), i8* getelementptr inbounds ([4 x i8]* @.str1360, i32 0, i32 0), i8* getelementptr inbounds ([3 x i8]* @.str1461, i32 0, i32 0), i8* getelementptr inbounds ([7 x i8]* @.str1562, i32 0, i32 0), i8* getelementptr inbounds ([7 x i8]* @.str1663, i32 0, i32 0), i8* getelementptr inbounds ([5 x i8]* @.str1764, i32 0, i32 0), i8* getelementptr inbounds ([5 x i8]* @.str1865, i32 0, i32 0), i8* getelementptr inbounds ([6 x i8]* @.str1966, i32 0, i32 0), i8* getelementptr inbounds ([6 x i8]* @.str2067, i32 0, i32 0), i8* getelementptr inbounds ([3 x i8]* @.str2168, i32 0, i32 0), i8* getelementptr inbounds ([4 x i8]* @.str2251, i32 0, i32 0), i8* getelementptr inbounds ([3 x i8]* @.str2352, i32 0, i32 0), i8* getelementptr inbounds ([3 x i8]* @.str2453, i32 0, i32 0), i8* getelementptr inbounds ([3 x i8]* @.str2554, i32 0, i32 0), i8* getelementptr inbounds ([3 x i8]* @.str2669, i32 0, i32 0), i8* getelementptr inbounds ([9 x i8]* @.str2755, i32 0, i32 0), i8* getelementptr inbounds ([7 x i8]* @.str2856, i32 0, i32 0), i8* getelementptr inbounds ([9 x i8]* @.str29, i32 0, i32 0), i8* getelementptr inbounds ([6 x i8]* @.str30, i32 0, i32 0), i8* null], align 4 ; [#uses=3]
@.str31 = private constant [9 x i8] c"char(%d)\00" ; [#uses=1]
@.str32 = private constant [3 x i8] c"%c\00"      ; [#uses=1]
@.str33 = private constant [10 x i8] c"%s:%d: %s\00" ; [#uses=1]
@.str34 = private constant [13 x i8] c"%s near '%s'\00" ; [#uses=1]
@.str35 = private constant [30 x i8] c"invalid long string delimiter\00" ; [#uses=1]
@.str36 = private constant [2 x i8] c".\00"       ; [#uses=1]
@.str3770 = private constant [3 x i8] c"Ee\00"    ; [#uses=1]
@.str38 = private constant [3 x i8] c"+-\00"      ; [#uses=1]
@.str39 = private constant [17 x i8] c"malformed number\00" ; [#uses=1]
@.str40 = private constant [25 x i8] c"lexical element too long\00" ; [#uses=1]
@.str41 = private constant [18 x i8] c"unfinished string\00" ; [#uses=1]
@.str42 = private constant [26 x i8] c"escape sequence too large\00" ; [#uses=1]
@.str43 = private constant [23 x i8] c"unfinished long string\00" ; [#uses=1]
@.str44 = private constant [24 x i8] c"unfinished long comment\00" ; [#uses=1]
@.str45 = private constant [33 x i8] c"nesting of [[...]] is deprecated\00" ; [#uses=1]
@.str46 = private constant [25 x i8] c"chunk has too many lines\00" ; [#uses=1]
@.str72 = private constant [39 x i8] c"memory allocation error: block too big\00" ; [#uses=1]
@luaO_nilobject_ = hidden global %7 { %8 { %union.GCObject* null, [4 x i8] undef }, i32 0 }, align 4 ; [#uses=1]
@_ZZ9luaO_log2jE5log_2 = internal constant [256 x i8] c"\00\01\02\02\03\03\03\03\04\04\04\04\04\04\04\04\05\05\05\05\05\05\05\05\05\05\05\05\05\05\05\05\06\06\06\06\06\06\06\06\06\06\06\06\06\06\06\06\06\06\06\06\06\06\06\06\06\06\06\06\06\06\06\06\07\07\07\07\07\07\07\07\07\07\07\07\07\07\07\07\07\07\07\07\07\07\07\07\07\07\07\07\07\07\07\07\07\07\07\07\07\07\07\07\07\07\07\07\07\07\07\07\07\07\07\07\07\07\07\07\07\07\07\07\07\07\07\07\08\08\08\08\08\08\08\08\08\08\08\08\08\08\08\08\08\08\08\08\08\08\08\08\08\08\08\08\08\08\08\08\08\08\08\08\08\08\08\08\08\08\08\08\08\08\08\08\08\08\08\08\08\08\08\08\08\08\08\08\08\08\08\08\08\08\08\08\08\08\08\08\08\08\08\08\08\08\08\08\08\08\08\08\08\08\08\08\08\08\08\08\08\08\08\08\08\08\08\08\08\08\08\08\08\08\08\08\08\08\08\08\08\08\08\08\08\08\08\08\08\08\08\08\08\08\08\08", align 1 ; [#uses=1]
@.str77 = private constant [1 x i8] zeroinitializer ; [#uses=1]
@.str178 = private constant [7 x i8] c"(null)\00" ; [#uses=1]
@.str279 = private constant [3 x i8] c"%p\00"     ; [#uses=1]
@.str380 = private constant [2 x i8] c"%\00"      ; [#uses=1]
@.str481 = private constant [4 x i8] c"...\00"    ; [#uses=1]
@.str582 = private constant [3 x i8] c"\0A\0D\00" ; [#uses=1]
@.str683 = private constant [10 x i8] c"[string \22\00" ; [#uses=1]
@.str784 = private constant [3 x i8] c"\22]\00"   ; [#uses=1]
@.str90 = private constant [5 x i8] c"MOVE\00"    ; [#uses=1]
@.str191 = private constant [6 x i8] c"LOADK\00"  ; [#uses=1]
@.str292 = private constant [9 x i8] c"LOADBOOL\00" ; [#uses=1]
@.str393 = private constant [8 x i8] c"LOADNIL\00" ; [#uses=1]
@.str494 = private constant [9 x i8] c"GETUPVAL\00" ; [#uses=1]
@.str595 = private constant [10 x i8] c"GETGLOBAL\00" ; [#uses=1]
@.str696 = private constant [9 x i8] c"GETTABLE\00" ; [#uses=1]
@.str797 = private constant [10 x i8] c"SETGLOBAL\00" ; [#uses=1]
@.str898 = private constant [9 x i8] c"SETUPVAL\00" ; [#uses=1]
@.str999 = private constant [9 x i8] c"SETTABLE\00" ; [#uses=1]
@.str10100 = private constant [9 x i8] c"NEWTABLE\00" ; [#uses=1]
@.str11101 = private constant [5 x i8] c"SELF\00" ; [#uses=1]
@.str12102 = private constant [4 x i8] c"ADD\00"  ; [#uses=1]
@.str13103 = private constant [4 x i8] c"SUB\00"  ; [#uses=1]
@.str14104 = private constant [4 x i8] c"MUL\00"  ; [#uses=1]
@.str15105 = private constant [4 x i8] c"DIV\00"  ; [#uses=1]
@.str16106 = private constant [4 x i8] c"MOD\00"  ; [#uses=1]
@.str17107 = private constant [4 x i8] c"POW\00"  ; [#uses=1]
@.str18108 = private constant [4 x i8] c"UNM\00"  ; [#uses=1]
@.str19109 = private constant [4 x i8] c"NOT\00"  ; [#uses=1]
@.str20110 = private constant [4 x i8] c"LEN\00"  ; [#uses=1]
@.str21111 = private constant [7 x i8] c"CONCAT\00" ; [#uses=1]
@.str22112 = private constant [4 x i8] c"JMP\00"  ; [#uses=1]
@.str23113 = private constant [3 x i8] c"EQ\00"   ; [#uses=1]
@.str24114 = private constant [3 x i8] c"LT\00"   ; [#uses=1]
@.str25115 = private constant [3 x i8] c"LE\00"   ; [#uses=1]
@.str26116 = private constant [5 x i8] c"TEST\00" ; [#uses=1]
@.str27117 = private constant [8 x i8] c"TESTSET\00" ; [#uses=1]
@.str28118 = private constant [5 x i8] c"CALL\00" ; [#uses=1]
@.str29119 = private constant [9 x i8] c"TAILCALL\00" ; [#uses=1]
@.str30120 = private constant [7 x i8] c"RETURN\00" ; [#uses=1]
@.str31121 = private constant [8 x i8] c"FORLOOP\00" ; [#uses=1]
@.str32122 = private constant [8 x i8] c"FORPREP\00" ; [#uses=1]
@.str33123 = private constant [9 x i8] c"TFORLOOP\00" ; [#uses=1]
@.str34124 = private constant [8 x i8] c"SETLIST\00" ; [#uses=1]
@.str35125 = private constant [6 x i8] c"CLOSE\00" ; [#uses=1]
@.str36126 = private constant [8 x i8] c"CLOSURE\00" ; [#uses=1]
@.str37127 = private constant [7 x i8] c"VARARG\00" ; [#uses=1]
@luaP_opnames = hidden constant [39 x i8*] [i8* getelementptr inbounds ([5 x i8]* @.str90, i32 0, i32 0), i8* getelementptr inbounds ([6 x i8]* @.str191, i32 0, i32 0), i8* getelementptr inbounds ([9 x i8]* @.str292, i32 0, i32 0), i8* getelementptr inbounds ([8 x i8]* @.str393, i32 0, i32 0), i8* getelementptr inbounds ([9 x i8]* @.str494, i32 0, i32 0), i8* getelementptr inbounds ([10 x i8]* @.str595, i32 0, i32 0), i8* getelementptr inbounds ([9 x i8]* @.str696, i32 0, i32 0), i8* getelementptr inbounds ([10 x i8]* @.str797, i32 0, i32 0), i8* getelementptr inbounds ([9 x i8]* @.str898, i32 0, i32 0), i8* getelementptr inbounds ([9 x i8]* @.str999, i32 0, i32 0), i8* getelementptr inbounds ([9 x i8]* @.str10100, i32 0, i32 0), i8* getelementptr inbounds ([5 x i8]* @.str11101, i32 0, i32 0), i8* getelementptr inbounds ([4 x i8]* @.str12102, i32 0, i32 0), i8* getelementptr inbounds ([4 x i8]* @.str13103, i32 0, i32 0), i8* getelementptr inbounds ([4 x i8]* @.str14104, i32 0, i32 0), i8* getelementptr inbounds ([4 x i8]* @.str15105, i32 0, i32 0), i8* getelementptr inbounds ([4 x i8]* @.str16106, i32 0, i32 0), i8* getelementptr inbounds ([4 x i8]* @.str17107, i32 0, i32 0), i8* getelementptr inbounds ([4 x i8]* @.str18108, i32 0, i32 0), i8* getelementptr inbounds ([4 x i8]* @.str19109, i32 0, i32 0), i8* getelementptr inbounds ([4 x i8]* @.str20110, i32 0, i32 0), i8* getelementptr inbounds ([7 x i8]* @.str21111, i32 0, i32 0), i8* getelementptr inbounds ([4 x i8]* @.str22112, i32 0, i32 0), i8* getelementptr inbounds ([3 x i8]* @.str23113, i32 0, i32 0), i8* getelementptr inbounds ([3 x i8]* @.str24114, i32 0, i32 0), i8* getelementptr inbounds ([3 x i8]* @.str25115, i32 0, i32 0), i8* getelementptr inbounds ([5 x i8]* @.str26116, i32 0, i32 0), i8* getelementptr inbounds ([8 x i8]* @.str27117, i32 0, i32 0), i8* getelementptr inbounds ([5 x i8]* @.str28118, i32 0, i32 0), i8* getelementptr inbounds ([9 x i8]* @.str29119, i32 0, i32 0), i8* getelementptr inbounds ([7 x i8]* @.str30120, i32 0, i32 0), i8* getelementptr inbounds ([8 x i8]* @.str31121, i32 0, i32 0), i8* getelementptr inbounds ([8 x i8]* @.str32122, i32 0, i32 0), i8* getelementptr inbounds ([9 x i8]* @.str33123, i32 0, i32 0), i8* getelementptr inbounds ([8 x i8]* @.str34124, i32 0, i32 0), i8* getelementptr inbounds ([6 x i8]* @.str35125, i32 0, i32 0), i8* getelementptr inbounds ([8 x i8]* @.str36126, i32 0, i32 0), i8* getelementptr inbounds ([7 x i8]* @.str37127, i32 0, i32 0), i8* null], align 4 ; [#uses=0]
@luaP_opmodes = hidden constant [38 x i8] c"`qT`Pql1\10<Tl||||||```h\22\BC\BC\BC\E4\E4TT\10bb\84\14\00QP", align 1 ; [#uses=8]
@.str12957 = private constant [13 x i8] c"syntax error\00" ; [#uses=1]
@.str1130 = private constant [24 x i8] c"variables in assignment\00" ; [#uses=1]
@_ZL8priority = internal global [15 x %struct.upvaldesc] [%struct.upvaldesc { i8 6, i8 6 }, %struct.upvaldesc { i8 6, i8 6 }, %struct.upvaldesc { i8 7, i8 7 }, %struct.upvaldesc { i8 7, i8 7 }, %struct.upvaldesc { i8 7, i8 7 }, %struct.upvaldesc { i8 10, i8 9 }, %struct.upvaldesc { i8 5, i8 4 }, %struct.upvaldesc { i8 3, i8 3 }, %struct.upvaldesc { i8 3, i8 3 }, %struct.upvaldesc { i8 3, i8 3 }, %struct.upvaldesc { i8 3, i8 3 }, %struct.upvaldesc { i8 3, i8 3 }, %struct.upvaldesc { i8 3, i8 3 }, %struct.upvaldesc { i8 2, i8 2 }, %struct.upvaldesc { i8 1, i8 1 }], align 1 ; [#uses=2]
@.str2131 = private constant [43 x i8] c"cannot use '...' outside a vararg function\00" ; [#uses=1]
@.str3132 = private constant [5 x i8] c"self\00"  ; [#uses=1]
@.str4133 = private constant [24 x i8] c"constant table overflow\00" ; [#uses=1]
@.str5134 = private constant [4 x i8] c"arg\00"   ; [#uses=1]
@.str6135 = private constant [25 x i8] c"<name> or '...' expected\00" ; [#uses=1]
@.str7136 = private constant [16 x i8] c"local variables\00" ; [#uses=1]
@.str8137 = private constant [25 x i8] c"too many local variables\00" ; [#uses=1]
@.str9138 = private constant [23 x i8] c"items in a constructor\00" ; [#uses=1]
@.str10139 = private constant [34 x i8] c"main function has more than %d %s\00" ; [#uses=1]
@.str11140 = private constant [40 x i8] c"function at line %d has more than %d %s\00" ; [#uses=1]
@.str12141 = private constant [49 x i8] c"ambiguous syntax (function call x new statement)\00" ; [#uses=1]
@.str13142 = private constant [28 x i8] c"function arguments expected\00" ; [#uses=1]
@.str14143 = private constant [18 x i8] c"unexpected symbol\00" ; [#uses=1]
@.str15144 = private constant [9 x i8] c"upvalues\00" ; [#uses=1]
@.str16145 = private constant [1 x i8] zeroinitializer ; [#uses=1]
@.str17146 = private constant [17 x i8] c"no loop to break\00" ; [#uses=1]
@.str18147 = private constant [21 x i8] c"'=' or 'in' expected\00" ; [#uses=1]
@.str19148 = private constant [16 x i8] c"(for generator)\00" ; [#uses=1]
@.str20149 = private constant [12 x i8] c"(for state)\00" ; [#uses=1]
@.str21150 = private constant [14 x i8] c"(for control)\00" ; [#uses=1]
@.str22151 = private constant [12 x i8] c"(for index)\00" ; [#uses=1]
@.str23152 = private constant [12 x i8] c"(for limit)\00" ; [#uses=1]
@.str24153 = private constant [11 x i8] c"(for step)\00" ; [#uses=1]
@.str25154 = private constant [41 x i8] c"'%s' expected (to close '%s' at line %d)\00" ; [#uses=1]
@.str26155 = private constant [14 x i8] c"'%s' expected\00" ; [#uses=1]
@.str27156 = private constant [33 x i8] c"chunk has too many syntax levels\00" ; [#uses=1]
@.str158 = private constant [18 x i8] c"not enough memory\00" ; [#uses=1]
@_ZL10dummynode_ = internal global %9 { %7 { %8 { %union.GCObject* null, [4 x i8] undef }, i32 0 }, %10 { %11 { %8 { %union.GCObject* null, [4 x i8] undef }, i32 0, %struct.Node* null } } }, align 4 ; [#uses=1]
@.str164 = private constant [19 x i8] c"table index is nil\00" ; [#uses=1]
@.str1165 = private constant [19 x i8] c"table index is NaN\00" ; [#uses=1]
@.str2166 = private constant [15 x i8] c"table overflow\00" ; [#uses=1]
@.str3167 = private constant [22 x i8] c"invalid key to 'next'\00" ; [#uses=1]
@.str177 = private constant [4 x i8] c"nil\00"    ; [#uses=1]
@.str1178 = private constant [8 x i8] c"boolean\00" ; [#uses=1]
@.str2179 = private constant [9 x i8] c"userdata\00" ; [#uses=1]
@.str3180 = private constant [7 x i8] c"number\00" ; [#uses=1]
@.str4181 = private constant [7 x i8] c"string\00" ; [#uses=1]
@.str5182 = private constant [6 x i8] c"table\00" ; [#uses=1]
@.str6183 = private constant [9 x i8] c"function\00" ; [#uses=1]
@.str7184 = private constant [7 x i8] c"thread\00" ; [#uses=1]
@.str8185 = private constant [6 x i8] c"proto\00" ; [#uses=1]
@.str9186 = private constant [6 x i8] c"upval\00" ; [#uses=1]
@luaT_typenames = hidden constant [11 x i8*] [i8* getelementptr inbounds ([4 x i8]* @.str177, i32 0, i32 0), i8* getelementptr inbounds ([8 x i8]* @.str1178, i32 0, i32 0), i8* getelementptr inbounds ([9 x i8]* @.str2179, i32 0, i32 0), i8* getelementptr inbounds ([7 x i8]* @.str3180, i32 0, i32 0), i8* getelementptr inbounds ([7 x i8]* @.str4181, i32 0, i32 0), i8* getelementptr inbounds ([6 x i8]* @.str5182, i32 0, i32 0), i8* getelementptr inbounds ([9 x i8]* @.str6183, i32 0, i32 0), i8* getelementptr inbounds ([9 x i8]* @.str2179, i32 0, i32 0), i8* getelementptr inbounds ([7 x i8]* @.str7184, i32 0, i32 0), i8* getelementptr inbounds ([6 x i8]* @.str8185, i32 0, i32 0), i8* getelementptr inbounds ([6 x i8]* @.str9186, i32 0, i32 0)], align 4 ; [#uses=1]
@_ZZ9luaT_initP9lua_StateE14luaT_eventname = internal constant [17 x i8*] [i8* getelementptr inbounds ([8 x i8]* @.str10188, i32 0, i32 0), i8* getelementptr inbounds ([11 x i8]* @.str11189, i32 0, i32 0), i8* getelementptr inbounds ([5 x i8]* @.str12190, i32 0, i32 0), i8* getelementptr inbounds ([7 x i8]* @.str13191, i32 0, i32 0), i8* getelementptr inbounds ([5 x i8]* @.str14192, i32 0, i32 0), i8* getelementptr inbounds ([6 x i8]* @.str15193, i32 0, i32 0), i8* getelementptr inbounds ([6 x i8]* @.str16194, i32 0, i32 0), i8* getelementptr inbounds ([6 x i8]* @.str17195, i32 0, i32 0), i8* getelementptr inbounds ([6 x i8]* @.str18196, i32 0, i32 0), i8* getelementptr inbounds ([6 x i8]* @.str19197, i32 0, i32 0), i8* getelementptr inbounds ([6 x i8]* @.str20198, i32 0, i32 0), i8* getelementptr inbounds ([6 x i8]* @.str21199, i32 0, i32 0), i8* getelementptr inbounds ([6 x i8]* @.str22200, i32 0, i32 0), i8* getelementptr inbounds ([5 x i8]* @.str23201, i32 0, i32 0), i8* getelementptr inbounds ([5 x i8]* @.str24202, i32 0, i32 0), i8* getelementptr inbounds ([9 x i8]* @.str25203, i32 0, i32 0), i8* getelementptr inbounds ([7 x i8]* @.str26204, i32 0, i32 0)], align 4 ; [#uses=2]
@.str10188 = private constant [8 x i8] c"__index\00" ; [#uses=1]
@.str11189 = private constant [11 x i8] c"__newindex\00" ; [#uses=1]
@.str12190 = private constant [5 x i8] c"__gc\00" ; [#uses=1]
@.str13191 = private constant [7 x i8] c"__mode\00" ; [#uses=1]
@.str14192 = private constant [5 x i8] c"__eq\00" ; [#uses=1]
@.str15193 = private constant [6 x i8] c"__add\00" ; [#uses=1]
@.str16194 = private constant [6 x i8] c"__sub\00" ; [#uses=1]
@.str17195 = private constant [6 x i8] c"__mul\00" ; [#uses=1]
@.str18196 = private constant [6 x i8] c"__div\00" ; [#uses=1]
@.str19197 = private constant [6 x i8] c"__mod\00" ; [#uses=1]
@.str20198 = private constant [6 x i8] c"__pow\00" ; [#uses=1]
@.str21199 = private constant [6 x i8] c"__unm\00" ; [#uses=1]
@.str22200 = private constant [6 x i8] c"__len\00" ; [#uses=1]
@.str23201 = private constant [5 x i8] c"__lt\00" ; [#uses=1]
@.str24202 = private constant [5 x i8] c"__le\00" ; [#uses=1]
@.str25203 = private constant [9 x i8] c"__concat\00" ; [#uses=1]
@.str26204 = private constant [7 x i8] c"__call\00" ; [#uses=1]
@.str208 = private constant [5 x i8] c"\1BLua\00" ; [#uses=1]
@.str1209 = private constant [14 x i8] c"binary string\00" ; [#uses=1]
@.str2210 = private constant [3 x i8] c"=?\00"    ; [#uses=1]
@.str3211 = private constant [14 x i8] c"code too deep\00" ; [#uses=1]
@.str4212 = private constant [9 x i8] c"bad code\00" ; [#uses=1]
@.str5213 = private constant [15 x i8] c"unexpected end\00" ; [#uses=1]
@.str6214 = private constant [13 x i8] c"bad constant\00" ; [#uses=1]
@.str7215 = private constant [12 x i8] c"bad integer\00" ; [#uses=1]
@.str8216 = private constant [28 x i8] c"%s: %s in precompiled chunk\00" ; [#uses=1]
@.str9217 = private constant [11 x i8] c"bad header\00" ; [#uses=1]
@.str220 = private constant [6 x i8] c"%.14g\00"  ; [#uses=1]
@.str1221 = private constant [6 x i8] c"index\00" ; [#uses=1]
@.str2222 = private constant [17 x i8] c"loop in gettable\00" ; [#uses=1]
@.str3223 = private constant [17 x i8] c"loop in settable\00" ; [#uses=1]
@.str4224 = private constant [23 x i8] c"string length overflow\00" ; [#uses=1]
@.str5225 = private constant [14 x i8] c"get length of\00" ; [#uses=1]
@.str6226 = private constant [37 x i8] c"'for' initial value must be a number\00" ; [#uses=1]
@.str7227 = private constant [29 x i8] c"'for' limit must be a number\00" ; [#uses=1]
@.str8228 = private constant [28 x i8] c"'for' step must be a number\00" ; [#uses=1]
@.str242 = private constant [22 x i8] c"bad argument #%d (%s)\00" ; [#uses=1]
@.str124358 = private constant [2 x i8] c"n\00"   ; [#uses=1]
@.str2244 = private constant [7 x i8] c"method\00" ; [#uses=1]
@.str3245 = private constant [30 x i8] c"calling '%s' on bad self (%s)\00" ; [#uses=1]
@.str4246 = private constant [2 x i8] c"?\00"     ; [#uses=1]
@.str5247 = private constant [30 x i8] c"bad argument #%d to '%s' (%s)\00" ; [#uses=1]
@.str6248 = private constant [20 x i8] c"%s expected, got %s\00" ; [#uses=1]
@.str7249 = private constant [3 x i8] c"Sl\00"    ; [#uses=1]
@.str8250 = private constant [8 x i8] c"%s:%d: \00" ; [#uses=1]
@.str9251 = private constant [1 x i8] zeroinitializer ; [#uses=1]
@.str10252 = private constant [20 x i8] c"invalid option '%s'\00" ; [#uses=1]
@.str11253 = private constant [20 x i8] c"stack overflow (%s)\00" ; [#uses=1]
@.str12254 = private constant [15 x i8] c"value expected\00" ; [#uses=1]
@.str13255 = private constant [8 x i8] c"_LOADED\00" ; [#uses=1]
@.str14256 = private constant [30 x i8] c"name conflict for module '%s'\00" ; [#uses=1]
@.str15257 = private constant [7 x i8] c"=stdin\00" ; [#uses=1]
@.str16258 = private constant [4 x i8] c"@%s\00"  ; [#uses=1]
@.str17259 = private constant [2 x i8] c"r\00"    ; [#uses=1]
@.str18260 = private constant [5 x i8] c"open\00" ; [#uses=1]
@.str19261 = private constant [5 x i8] c"\1BLua\00" ; [#uses=1]
@.str20262 = private constant [3 x i8] c"rb\00"   ; [#uses=1]
@.str21263 = private constant [7 x i8] c"reopen\00" ; [#uses=1]
@.str22264 = private constant [5 x i8] c"read\00" ; [#uses=1]
@.str23265 = private constant [50 x i8] c"PANIC: unprotected error in call to Lua API (%s)\0A\00" ; [#uses=1]
@.str24266 = private constant [2 x i8] c"\0A\00"  ; [#uses=1]
@.str25267 = private constant [17 x i8] c"cannot %s %s: %s\00" ; [#uses=1]
@.str268 = private constant [7 x i8] c"assert\00" ; [#uses=1]
@.str1269 = private constant [15 x i8] c"collectgarbage\00" ; [#uses=1]
@.str2270 = private constant [7 x i8] c"dofile\00" ; [#uses=1]
@.str3271 = private constant [6 x i8] c"error\00" ; [#uses=1]
@.str4272 = private constant [7 x i8] c"gcinfo\00" ; [#uses=1]
@.str5273 = private constant [8 x i8] c"getfenv\00" ; [#uses=1]
@.str6274 = private constant [13 x i8] c"getmetatable\00" ; [#uses=1]
@.str7275 = private constant [9 x i8] c"loadfile\00" ; [#uses=1]
@.str8276 = private constant [5 x i8] c"load\00"  ; [#uses=1]
@.str9277 = private constant [11 x i8] c"loadstring\00" ; [#uses=1]
@.str10278 = private constant [5 x i8] c"next\00" ; [#uses=1]
@.str11279 = private constant [6 x i8] c"pcall\00" ; [#uses=1]
@.str12280 = private constant [6 x i8] c"print\00" ; [#uses=1]
@.str13281 = private constant [9 x i8] c"rawequal\00" ; [#uses=1]
@.str14282 = private constant [7 x i8] c"rawget\00" ; [#uses=1]
@.str15283 = private constant [7 x i8] c"rawset\00" ; [#uses=1]
@.str16284 = private constant [7 x i8] c"select\00" ; [#uses=1]
@.str17285 = private constant [8 x i8] c"setfenv\00" ; [#uses=1]
@.str18286 = private constant [13 x i8] c"setmetatable\00" ; [#uses=1]
@.str19287 = private constant [9 x i8] c"tonumber\00" ; [#uses=1]
@.str20288 = private constant [9 x i8] c"tostring\00" ; [#uses=1]
@.str21289 = private constant [5 x i8] c"type\00" ; [#uses=1]
@.str22290 = private constant [7 x i8] c"unpack\00" ; [#uses=1]
@.str23291 = private constant [7 x i8] c"xpcall\00" ; [#uses=1]
@_ZL10base_funcs = internal global [25 x %struct.luaL_Reg] [%struct.luaL_Reg { i8* getelementptr inbounds ([7 x i8]* @.str268, i32 0, i32 0), i32 (%struct.lua_State*)* @_Z11luaB_assertP9lua_State }, %struct.luaL_Reg { i8* getelementptr inbounds ([15 x i8]* @.str1269, i32 0, i32 0), i32 (%struct.lua_State*)* @_Z19luaB_collectgarbageP9lua_State }, %struct.luaL_Reg { i8* getelementptr inbounds ([7 x i8]* @.str2270, i32 0, i32 0), i32 (%struct.lua_State*)* @_Z11luaB_dofileP9lua_State }, %struct.luaL_Reg { i8* getelementptr inbounds ([6 x i8]* @.str3271, i32 0, i32 0), i32 (%struct.lua_State*)* @_Z10luaB_errorP9lua_State }, %struct.luaL_Reg { i8* getelementptr inbounds ([7 x i8]* @.str4272, i32 0, i32 0), i32 (%struct.lua_State*)* @_Z11luaB_gcinfoP9lua_State }, %struct.luaL_Reg { i8* getelementptr inbounds ([8 x i8]* @.str5273, i32 0, i32 0), i32 (%struct.lua_State*)* @_Z12luaB_getfenvP9lua_State }, %struct.luaL_Reg { i8* getelementptr inbounds ([13 x i8]* @.str6274, i32 0, i32 0), i32 (%struct.lua_State*)* @_Z17luaB_getmetatableP9lua_State }, %struct.luaL_Reg { i8* getelementptr inbounds ([9 x i8]* @.str7275, i32 0, i32 0), i32 (%struct.lua_State*)* @_Z13luaB_loadfileP9lua_State }, %struct.luaL_Reg { i8* getelementptr inbounds ([5 x i8]* @.str8276, i32 0, i32 0), i32 (%struct.lua_State*)* @_Z9luaB_loadP9lua_State }, %struct.luaL_Reg { i8* getelementptr inbounds ([11 x i8]* @.str9277, i32 0, i32 0), i32 (%struct.lua_State*)* @_Z15luaB_loadstringP9lua_State }, %struct.luaL_Reg { i8* getelementptr inbounds ([5 x i8]* @.str10278, i32 0, i32 0), i32 (%struct.lua_State*)* @_Z9luaB_nextP9lua_State }, %struct.luaL_Reg { i8* getelementptr inbounds ([6 x i8]* @.str11279, i32 0, i32 0), i32 (%struct.lua_State*)* @_Z10luaB_pcallP9lua_State }, %struct.luaL_Reg { i8* getelementptr inbounds ([6 x i8]* @.str12280, i32 0, i32 0), i32 (%struct.lua_State*)* @_Z10luaB_printP9lua_State }, %struct.luaL_Reg { i8* getelementptr inbounds ([9 x i8]* @.str13281, i32 0, i32 0), i32 (%struct.lua_State*)* @_Z13luaB_rawequalP9lua_State }, %struct.luaL_Reg { i8* getelementptr inbounds ([7 x i8]* @.str14282, i32 0, i32 0), i32 (%struct.lua_State*)* @_Z11luaB_rawgetP9lua_State }, %struct.luaL_Reg { i8* getelementptr inbounds ([7 x i8]* @.str15283, i32 0, i32 0), i32 (%struct.lua_State*)* @_Z11luaB_rawsetP9lua_State }, %struct.luaL_Reg { i8* getelementptr inbounds ([7 x i8]* @.str16284, i32 0, i32 0), i32 (%struct.lua_State*)* @_Z11luaB_selectP9lua_State }, %struct.luaL_Reg { i8* getelementptr inbounds ([8 x i8]* @.str17285, i32 0, i32 0), i32 (%struct.lua_State*)* @_Z12luaB_setfenvP9lua_State }, %struct.luaL_Reg { i8* getelementptr inbounds ([13 x i8]* @.str18286, i32 0, i32 0), i32 (%struct.lua_State*)* @_Z17luaB_setmetatableP9lua_State }, %struct.luaL_Reg { i8* getelementptr inbounds ([9 x i8]* @.str19287, i32 0, i32 0), i32 (%struct.lua_State*)* @_Z13luaB_tonumberP9lua_State }, %struct.luaL_Reg { i8* getelementptr inbounds ([9 x i8]* @.str20288, i32 0, i32 0), i32 (%struct.lua_State*)* @_Z13luaB_tostringP9lua_State }, %struct.luaL_Reg { i8* getelementptr inbounds ([5 x i8]* @.str21289, i32 0, i32 0), i32 (%struct.lua_State*)* @_Z9luaB_typeP9lua_State }, %struct.luaL_Reg { i8* getelementptr inbounds ([7 x i8]* @.str22290, i32 0, i32 0), i32 (%struct.lua_State*)* @_Z11luaB_unpackP9lua_State }, %struct.luaL_Reg { i8* getelementptr inbounds ([7 x i8]* @.str23291, i32 0, i32 0), i32 (%struct.lua_State*)* @_Z11luaB_xpcallP9lua_State }, %struct.luaL_Reg zeroinitializer], align 4 ; [#uses=1]
@.str24292 = private constant [7 x i8] c"create\00" ; [#uses=1]
@.str25293 = private constant [7 x i8] c"resume\00" ; [#uses=1]
@.str26294 = private constant [8 x i8] c"running\00" ; [#uses=1]
@.str27295 = private constant [7 x i8] c"status\00" ; [#uses=1]
@.str28296 = private constant [5 x i8] c"wrap\00" ; [#uses=1]
@.str29297 = private constant [6 x i8] c"yield\00" ; [#uses=1]
@_ZL8co_funcs = internal global [7 x %struct.luaL_Reg] [%struct.luaL_Reg { i8* getelementptr inbounds ([7 x i8]* @.str24292, i32 0, i32 0), i32 (%struct.lua_State*)* @_Z13luaB_cocreateP9lua_State }, %struct.luaL_Reg { i8* getelementptr inbounds ([7 x i8]* @.str25293, i32 0, i32 0), i32 (%struct.lua_State*)* @_Z13luaB_coresumeP9lua_State }, %struct.luaL_Reg { i8* getelementptr inbounds ([8 x i8]* @.str26294, i32 0, i32 0), i32 (%struct.lua_State*)* @_Z14luaB_corunningP9lua_State }, %struct.luaL_Reg { i8* getelementptr inbounds ([7 x i8]* @.str27295, i32 0, i32 0), i32 (%struct.lua_State*)* @_Z13luaB_costatusP9lua_State }, %struct.luaL_Reg { i8* getelementptr inbounds ([5 x i8]* @.str28296, i32 0, i32 0), i32 (%struct.lua_State*)* @_Z11luaB_cowrapP9lua_State }, %struct.luaL_Reg { i8* getelementptr inbounds ([6 x i8]* @.str29297, i32 0, i32 0), i32 (%struct.lua_State*)* @_Z10luaB_yieldP9lua_State }, %struct.luaL_Reg zeroinitializer], align 4 ; [#uses=1]
@.str30298 = private constant [10 x i8] c"coroutine\00" ; [#uses=1]
@.str31299 = private constant [3 x i8] c"_G\00"   ; [#uses=1]
@.str32300 = private constant [8 x i8] c"Lua 5.1\00" ; [#uses=1]
@.str33301 = private constant [9 x i8] c"_VERSION\00" ; [#uses=1]
@.str34302 = private constant [7 x i8] c"ipairs\00" ; [#uses=1]
@.str35303 = private constant [6 x i8] c"pairs\00" ; [#uses=1]
@.str36304 = private constant [3 x i8] c"kv\00"   ; [#uses=1]
@.str37305 = private constant [7 x i8] c"__mode\00" ; [#uses=1]
@.str38306 = private constant [9 x i8] c"newproxy\00" ; [#uses=1]
@.str39307 = private constant [26 x i8] c"boolean or proxy expected\00" ; [#uses=1]
@.str40308 = private constant [29 x i8] c"too many arguments to resume\00" ; [#uses=1]
@.str41309 = private constant [27 x i8] c"cannot resume %s coroutine\00" ; [#uses=1]
@_ZL9statnames = internal constant [4 x i8*] [i8* getelementptr inbounds ([8 x i8]* @.str26294, i32 0, i32 0), i8* getelementptr inbounds ([10 x i8]* @.str43311, i32 0, i32 0), i8* getelementptr inbounds ([7 x i8]* @.str44312, i32 0, i32 0), i8* getelementptr inbounds ([5 x i8]* @.str45313, i32 0, i32 0)], align 4 ; [#uses=2]
@.str42310 = private constant [27 x i8] c"too many results to resume\00" ; [#uses=1]
@.str43311 = private constant [10 x i8] c"suspended\00" ; [#uses=1]
@.str44312 = private constant [7 x i8] c"normal\00" ; [#uses=1]
@.str45313 = private constant [5 x i8] c"dead\00" ; [#uses=1]
@.str46314 = private constant [19 x i8] c"coroutine expected\00" ; [#uses=1]
@.str47315 = private constant [22 x i8] c"Lua function expected\00" ; [#uses=1]
@.str48 = private constant [27 x i8] c"too many results to unpack\00" ; [#uses=1]
@.str49 = private constant [11 x i8] c"__tostring\00" ; [#uses=1]
@.str50 = private constant [5 x i8] c"true\00"    ; [#uses=1]
@.str51 = private constant [6 x i8] c"false\00"   ; [#uses=1]
@.str52 = private constant [4 x i8] c"nil\00"     ; [#uses=1]
@.str53 = private constant [7 x i8] c"%s: %p\00"  ; [#uses=1]
@.str54 = private constant [18 x i8] c"base out of range\00" ; [#uses=1]
@.str55 = private constant [22 x i8] c"nil or table expected\00" ; [#uses=1]
@.str56 = private constant [12 x i8] c"__metatable\00" ; [#uses=1]
@.str57 = private constant [36 x i8] c"cannot change a protected metatable\00" ; [#uses=1]
@.str58 = private constant [52 x i8] c"'setfenv' cannot change environment of given object\00" ; [#uses=1]
@.str59 = private constant [27 x i8] c"level must be non-negative\00" ; [#uses=1]
@.str60 = private constant [14 x i8] c"invalid level\00" ; [#uses=1]
@.str61 = private constant [2 x i8] c"f\00"       ; [#uses=1]
@.str62 = private constant [50 x i8] c"no function environment for tail call at level %d\00" ; [#uses=1]
@.str63 = private constant [19 x i8] c"index out of range\00" ; [#uses=1]
@.str64 = private constant [43 x i8] c"'tostring' must return a string to 'print'\00" ; [#uses=1]
@.str65 = private constant [2 x i8] c"\09\00"     ; [#uses=1]
@.str66 = private constant [2 x i8] c"\0A\00"     ; [#uses=1]
@.str67 = private constant [8 x i8] c"=(load)\00" ; [#uses=1]
@.str68 = private constant [26 x i8] c"too many nested functions\00" ; [#uses=1]
@.str69 = private constant [37 x i8] c"reader function must return a string\00" ; [#uses=1]
@_ZZ19luaB_collectgarbageP9lua_StateE4opts = internal constant [8 x i8*] [i8* getelementptr inbounds ([5 x i8]* @.str70, i32 0, i32 0), i8* getelementptr inbounds ([8 x i8]* @.str71, i32 0, i32 0), i8* getelementptr inbounds ([8 x i8]* @.str72316, i32 0, i32 0), i8* getelementptr inbounds ([6 x i8]* @.str73, i32 0, i32 0), i8* getelementptr inbounds ([5 x i8]* @.str74, i32 0, i32 0), i8* getelementptr inbounds ([9 x i8]* @.str75, i32 0, i32 0), i8* getelementptr inbounds ([11 x i8]* @.str76, i32 0, i32 0), i8* null], align 4 ; [#uses=1]
@.str70 = private constant [5 x i8] c"stop\00"    ; [#uses=1]
@.str71 = private constant [8 x i8] c"restart\00" ; [#uses=1]
@.str72316 = private constant [8 x i8] c"collect\00" ; [#uses=1]
@.str73 = private constant [6 x i8] c"count\00"   ; [#uses=1]
@.str74 = private constant [5 x i8] c"step\00"    ; [#uses=1]
@.str75 = private constant [9 x i8] c"setpause\00" ; [#uses=1]
@.str76 = private constant [11 x i8] c"setstepmul\00" ; [#uses=1]
@_ZZ19luaB_collectgarbageP9lua_StateE7optsnum = internal constant [7 x i32] [i32 0, i32 1, i32 2, i32 3, i32 5, i32 6, i32 7], align 4 ; [#uses=2]
@.str77317 = private constant [3 x i8] c"%s\00"   ; [#uses=1]
@.str78 = private constant [18 x i8] c"assertion failed!\00" ; [#uses=1]
@.str318 = private constant [6 x i8] c"debug\00"  ; [#uses=1]
@.str1319 = private constant [8 x i8] c"getfenv\00" ; [#uses=1]
@.str2320 = private constant [8 x i8] c"gethook\00" ; [#uses=1]
@.str3321 = private constant [8 x i8] c"getinfo\00" ; [#uses=1]
@.str4322 = private constant [9 x i8] c"getlocal\00" ; [#uses=1]
@.str5323 = private constant [12 x i8] c"getregistry\00" ; [#uses=1]
@.str6324 = private constant [13 x i8] c"getmetatable\00" ; [#uses=1]
@.str7325 = private constant [11 x i8] c"getupvalue\00" ; [#uses=1]
@.str8326 = private constant [8 x i8] c"setfenv\00" ; [#uses=1]
@.str9327 = private constant [8 x i8] c"sethook\00" ; [#uses=1]
@.str10328 = private constant [9 x i8] c"setlocal\00" ; [#uses=1]
@.str11329 = private constant [13 x i8] c"setmetatable\00" ; [#uses=1]
@.str12330 = private constant [11 x i8] c"setupvalue\00" ; [#uses=1]
@.str13331 = private constant [10 x i8] c"traceback\00" ; [#uses=1]
@_ZL5dblib = internal global [15 x %struct.luaL_Reg] [%struct.luaL_Reg { i8* getelementptr inbounds ([6 x i8]* @.str318, i32 0, i32 0), i32 (%struct.lua_State*)* @_Z8db_debugP9lua_State }, %struct.luaL_Reg { i8* getelementptr inbounds ([8 x i8]* @.str1319, i32 0, i32 0), i32 (%struct.lua_State*)* @_Z10db_getfenvP9lua_State }, %struct.luaL_Reg { i8* getelementptr inbounds ([8 x i8]* @.str2320, i32 0, i32 0), i32 (%struct.lua_State*)* @_Z10db_gethookP9lua_State }, %struct.luaL_Reg { i8* getelementptr inbounds ([8 x i8]* @.str3321, i32 0, i32 0), i32 (%struct.lua_State*)* @_Z10db_getinfoP9lua_State }, %struct.luaL_Reg { i8* getelementptr inbounds ([9 x i8]* @.str4322, i32 0, i32 0), i32 (%struct.lua_State*)* @_Z11db_getlocalP9lua_State }, %struct.luaL_Reg { i8* getelementptr inbounds ([12 x i8]* @.str5323, i32 0, i32 0), i32 (%struct.lua_State*)* @_Z14db_getregistryP9lua_State }, %struct.luaL_Reg { i8* getelementptr inbounds ([13 x i8]* @.str6324, i32 0, i32 0), i32 (%struct.lua_State*)* @_Z15db_getmetatableP9lua_State }, %struct.luaL_Reg { i8* getelementptr inbounds ([11 x i8]* @.str7325, i32 0, i32 0), i32 (%struct.lua_State*)* @_Z13db_getupvalueP9lua_State }, %struct.luaL_Reg { i8* getelementptr inbounds ([8 x i8]* @.str8326, i32 0, i32 0), i32 (%struct.lua_State*)* @_Z10db_setfenvP9lua_State }, %struct.luaL_Reg { i8* getelementptr inbounds ([8 x i8]* @.str9327, i32 0, i32 0), i32 (%struct.lua_State*)* @_Z10db_sethookP9lua_State }, %struct.luaL_Reg { i8* getelementptr inbounds ([9 x i8]* @.str10328, i32 0, i32 0), i32 (%struct.lua_State*)* @_Z11db_setlocalP9lua_State }, %struct.luaL_Reg { i8* getelementptr inbounds ([13 x i8]* @.str11329, i32 0, i32 0), i32 (%struct.lua_State*)* @_Z15db_setmetatableP9lua_State }, %struct.luaL_Reg { i8* getelementptr inbounds ([11 x i8]* @.str12330, i32 0, i32 0), i32 (%struct.lua_State*)* @_Z13db_setupvalueP9lua_State }, %struct.luaL_Reg { i8* getelementptr inbounds ([10 x i8]* @.str13331, i32 0, i32 0), i32 (%struct.lua_State*)* @_Z10db_errorfbP9lua_State }, %struct.luaL_Reg zeroinitializer], align 4 ; [#uses=1]
@.str14332 = private constant [1 x i8] zeroinitializer ; [#uses=1]
@.str15333 = private constant [2 x i8] c"\0A\00"  ; [#uses=1]
@.str16334 = private constant [17 x i8] c"stack traceback:\00" ; [#uses=1]
@.str17335 = private constant [6 x i8] c"\0A\09...\00" ; [#uses=1]
@.str18336 = private constant [3 x i8] c"\0A\09\00" ; [#uses=1]
@.str19337 = private constant [4 x i8] c"Snl\00"  ; [#uses=1]
@.str20338 = private constant [4 x i8] c"%s:\00"  ; [#uses=1]
@.str21339 = private constant [4 x i8] c"%d:\00"  ; [#uses=1]
@.str22340 = private constant [18 x i8] c" in function '%s'\00" ; [#uses=1]
@.str23341 = private constant [15 x i8] c" in main chunk\00" ; [#uses=1]
@.str24342 = private constant [3 x i8] c" ?\00"   ; [#uses=1]
@.str25343 = private constant [21 x i8] c" in function <%s:%d>\00" ; [#uses=1]
@.str26344 = private constant [22 x i8] c"nil or table expected\00" ; [#uses=1]
@.str27345 = private constant [19 x i8] c"level out of range\00" ; [#uses=1]
@_ZL8KEY_HOOK = internal constant i8 104, align 1 ; [#uses=3]
@_ZZ5hookfP9lua_StateP9lua_DebugE9hooknames = internal constant [5 x i8*] [i8* getelementptr inbounds ([5 x i8]* @.str28346, i32 0, i32 0), i8* getelementptr inbounds ([7 x i8]* @.str29347, i32 0, i32 0), i8* getelementptr inbounds ([5 x i8]* @.str30348, i32 0, i32 0), i8* getelementptr inbounds ([6 x i8]* @.str31349, i32 0, i32 0), i8* getelementptr inbounds ([12 x i8]* @.str32350, i32 0, i32 0)], align 4 ; [#uses=1]
@.str28346 = private constant [5 x i8] c"call\00" ; [#uses=1]
@.str29347 = private constant [7 x i8] c"return\00" ; [#uses=1]
@.str30348 = private constant [5 x i8] c"line\00" ; [#uses=1]
@.str31349 = private constant [6 x i8] c"count\00" ; [#uses=1]
@.str32350 = private constant [12 x i8] c"tail return\00" ; [#uses=1]
@.str33351 = private constant [52 x i8] c"'setfenv' cannot change environment of given object\00" ; [#uses=1]
@.str34352 = private constant [6 x i8] c"flnSu\00" ; [#uses=1]
@.str35353 = private constant [4 x i8] c">%s\00"  ; [#uses=1]
@.str36354 = private constant [27 x i8] c"function or level expected\00" ; [#uses=1]
@.str37355 = private constant [15 x i8] c"invalid option\00" ; [#uses=1]
@.str38356 = private constant [7 x i8] c"source\00" ; [#uses=1]
@.str39357 = private constant [10 x i8] c"short_src\00" ; [#uses=1]
@.str40358 = private constant [12 x i8] c"linedefined\00" ; [#uses=1]
@.str41359 = private constant [16 x i8] c"lastlinedefined\00" ; [#uses=1]
@.str42360 = private constant [5 x i8] c"what\00" ; [#uses=1]
@.str43361 = private constant [12 x i8] c"currentline\00" ; [#uses=1]
@.str44362 = private constant [5 x i8] c"nups\00" ; [#uses=1]
@.str45363 = private constant [5 x i8] c"name\00" ; [#uses=1]
@.str46364 = private constant [9 x i8] c"namewhat\00" ; [#uses=1]
@.str47365 = private constant [12 x i8] c"activelines\00" ; [#uses=1]
@.str48366 = private constant [5 x i8] c"func\00" ; [#uses=1]
@.str49367 = private constant [14 x i8] c"external hook\00" ; [#uses=1]
@.str50368 = private constant [12 x i8] c"lua_debug> \00" ; [#uses=1]
@.str51369 = private constant [6 x i8] c"cont\0A\00" ; [#uses=1]
@.str52370 = private constant [17 x i8] c"=(debug command)\00" ; [#uses=1]
@.str371 = private constant [6 x i8] c"close\00"  ; [#uses=1]
@.str1372 = private constant [6 x i8] c"flush\00" ; [#uses=1]
@.str2373 = private constant [6 x i8] c"input\00" ; [#uses=1]
@.str3374 = private constant [6 x i8] c"lines\00" ; [#uses=1]
@.str4375 = private constant [5 x i8] c"open\00"  ; [#uses=1]
@.str5376 = private constant [7 x i8] c"output\00" ; [#uses=1]
@.str6377 = private constant [6 x i8] c"popen\00" ; [#uses=1]
@.str7378 = private constant [5 x i8] c"read\00"  ; [#uses=1]
@.str8379 = private constant [8 x i8] c"tmpfile\00" ; [#uses=1]
@.str9380 = private constant [5 x i8] c"type\00"  ; [#uses=1]
@.str10381 = private constant [6 x i8] c"write\00" ; [#uses=1]
@_ZL5iolib = internal global [12 x %struct.luaL_Reg] [%struct.luaL_Reg { i8* getelementptr inbounds ([6 x i8]* @.str371, i32 0, i32 0), i32 (%struct.lua_State*)* @_Z8io_closeP9lua_State }, %struct.luaL_Reg { i8* getelementptr inbounds ([6 x i8]* @.str1372, i32 0, i32 0), i32 (%struct.lua_State*)* @_Z8io_flushP9lua_State }, %struct.luaL_Reg { i8* getelementptr inbounds ([6 x i8]* @.str2373, i32 0, i32 0), i32 (%struct.lua_State*)* @_Z8io_inputP9lua_State }, %struct.luaL_Reg { i8* getelementptr inbounds ([6 x i8]* @.str3374, i32 0, i32 0), i32 (%struct.lua_State*)* @_Z8io_linesP9lua_State }, %struct.luaL_Reg { i8* getelementptr inbounds ([5 x i8]* @.str4375, i32 0, i32 0), i32 (%struct.lua_State*)* @_Z7io_openP9lua_State }, %struct.luaL_Reg { i8* getelementptr inbounds ([7 x i8]* @.str5376, i32 0, i32 0), i32 (%struct.lua_State*)* @_Z9io_outputP9lua_State }, %struct.luaL_Reg { i8* getelementptr inbounds ([6 x i8]* @.str6377, i32 0, i32 0), i32 (%struct.lua_State*)* @_Z8io_popenP9lua_State }, %struct.luaL_Reg { i8* getelementptr inbounds ([5 x i8]* @.str7378, i32 0, i32 0), i32 (%struct.lua_State*)* @_Z7io_readP9lua_State }, %struct.luaL_Reg { i8* getelementptr inbounds ([8 x i8]* @.str8379, i32 0, i32 0), i32 (%struct.lua_State*)* @_Z10io_tmpfileP9lua_State }, %struct.luaL_Reg { i8* getelementptr inbounds ([5 x i8]* @.str9380, i32 0, i32 0), i32 (%struct.lua_State*)* @_Z7io_typeP9lua_State }, %struct.luaL_Reg { i8* getelementptr inbounds ([6 x i8]* @.str10381, i32 0, i32 0), i32 (%struct.lua_State*)* @_Z8io_writeP9lua_State }, %struct.luaL_Reg zeroinitializer], align 4 ; [#uses=1]
@.str11382 = private constant [5 x i8] c"seek\00" ; [#uses=1]
@.str12383 = private constant [8 x i8] c"setvbuf\00" ; [#uses=1]
@.str13384 = private constant [5 x i8] c"__gc\00" ; [#uses=1]
@.str14385 = private constant [11 x i8] c"__tostring\00" ; [#uses=1]
@_ZL4flib = internal global [10 x %struct.luaL_Reg] [%struct.luaL_Reg { i8* getelementptr inbounds ([6 x i8]* @.str371, i32 0, i32 0), i32 (%struct.lua_State*)* @_Z8io_closeP9lua_State }, %struct.luaL_Reg { i8* getelementptr inbounds ([6 x i8]* @.str1372, i32 0, i32 0), i32 (%struct.lua_State*)* @_Z7f_flushP9lua_State }, %struct.luaL_Reg { i8* getelementptr inbounds ([6 x i8]* @.str3374, i32 0, i32 0), i32 (%struct.lua_State*)* @_Z7f_linesP9lua_State }, %struct.luaL_Reg { i8* getelementptr inbounds ([5 x i8]* @.str7378, i32 0, i32 0), i32 (%struct.lua_State*)* @_Z6f_readP9lua_State }, %struct.luaL_Reg { i8* getelementptr inbounds ([5 x i8]* @.str11382, i32 0, i32 0), i32 (%struct.lua_State*)* @_Z6f_seekP9lua_State }, %struct.luaL_Reg { i8* getelementptr inbounds ([8 x i8]* @.str12383, i32 0, i32 0), i32 (%struct.lua_State*)* @_Z9f_setvbufP9lua_State }, %struct.luaL_Reg { i8* getelementptr inbounds ([6 x i8]* @.str10381, i32 0, i32 0), i32 (%struct.lua_State*)* @_Z7f_writeP9lua_State }, %struct.luaL_Reg { i8* getelementptr inbounds ([5 x i8]* @.str13384, i32 0, i32 0), i32 (%struct.lua_State*)* @_Z5io_gcP9lua_State }, %struct.luaL_Reg { i8* getelementptr inbounds ([11 x i8]* @.str14385, i32 0, i32 0), i32 (%struct.lua_State*)* @_Z11io_tostringP9lua_State }, %struct.luaL_Reg zeroinitializer], align 4 ; [#uses=1]
@.str15386 = private constant [3 x i8] c"io\00"   ; [#uses=1]
@.str16387 = private constant [6 x i8] c"stdin\00" ; [#uses=1]
@.str17388 = private constant [7 x i8] c"stdout\00" ; [#uses=1]
@.str18389 = private constant [7 x i8] c"stderr\00" ; [#uses=1]
@.str19390 = private constant [6 x i8] c"FILE*\00" ; [#uses=1]
@.str20391 = private constant [7 x i8] c"%s: %s\00" ; [#uses=1]
@.str21392 = private constant [3 x i8] c"%s\00"   ; [#uses=1]
@.str22393 = private constant [27 x i8] c"cannot close standard file\00" ; [#uses=1]
@.str23394 = private constant [8 x i8] c"__close\00" ; [#uses=1]
@.str24395 = private constant [8 x i8] c"__index\00" ; [#uses=1]
@.str25396 = private constant [14 x i8] c"file (closed)\00" ; [#uses=1]
@.str26397 = private constant [10 x i8] c"file (%p)\00" ; [#uses=1]
@.str27398 = private constant [29 x i8] c"attempt to use a closed file\00" ; [#uses=1]
@.str28399 = private constant [6 x i8] c"%.14g\00" ; [#uses=1]
@_ZZ9f_setvbufP9lua_StateE4mode = internal constant [3 x i32] [i32 2, i32 0, i32 1], align 4 ; [#uses=1]
@_ZZ9f_setvbufP9lua_StateE9modenames = internal constant [4 x i8*] [i8* getelementptr inbounds ([3 x i8]* @.str29400, i32 0, i32 0), i8* getelementptr inbounds ([5 x i8]* @.str30401, i32 0, i32 0), i8* getelementptr inbounds ([5 x i8]* @.str31402, i32 0, i32 0), i8* null], align 4 ; [#uses=1]
@.str29400 = private constant [3 x i8] c"no\00"   ; [#uses=1]
@.str30401 = private constant [5 x i8] c"full\00" ; [#uses=1]
@.str31402 = private constant [5 x i8] c"line\00" ; [#uses=1]
@_ZZ6f_seekP9lua_StateE4mode = internal constant [3 x i32] [i32 0, i32 1, i32 2], align 4 ; [#uses=1]
@_ZZ6f_seekP9lua_StateE9modenames = internal constant [4 x i8*] [i8* getelementptr inbounds ([4 x i8]* @.str32403, i32 0, i32 0), i8* getelementptr inbounds ([4 x i8]* @.str33404, i32 0, i32 0), i8* getelementptr inbounds ([4 x i8]* @.str34405, i32 0, i32 0), i8* null], align 4 ; [#uses=1]
@.str32403 = private constant [4 x i8] c"set\00"  ; [#uses=1]
@.str33404 = private constant [4 x i8] c"cur\00"  ; [#uses=1]
@.str34405 = private constant [4 x i8] c"end\00"  ; [#uses=1]
@.str35406 = private constant [19 x i8] c"too many arguments\00" ; [#uses=1]
@.str36407 = private constant [15 x i8] c"invalid option\00" ; [#uses=1]
@.str37408 = private constant [15 x i8] c"invalid format\00" ; [#uses=1]
@.str38409 = private constant [4 x i8] c"%lf\00"  ; [#uses=1]
@.str39410 = private constant [23 x i8] c"file is already closed\00" ; [#uses=1]
@.str40411 = private constant [27 x i8] c"standard %s file is closed\00" ; [#uses=1]
@_ZL6fnames = internal constant [2 x i8*] [i8* getelementptr inbounds ([6 x i8]* @.str2373, i32 0, i32 0), i8* getelementptr inbounds ([7 x i8]* @.str5376, i32 0, i32 0)], align 4 ; [#uses=1]
@.str41412 = private constant [12 x i8] c"closed file\00" ; [#uses=1]
@.str42413 = private constant [5 x i8] c"file\00" ; [#uses=1]
@.str43414 = private constant [2 x i8] c"r\00"    ; [#uses=1]
@.str44415 = private constant [22 x i8] c"'popen' not supported\00" ; [#uses=1]
@.str45416 = private constant [2 x i8] c"w\00"    ; [#uses=1]
@.str417 = private constant [4 x i8] c"abs\00"    ; [#uses=1]
@.str1418 = private constant [5 x i8] c"acos\00"  ; [#uses=1]
@.str2419 = private constant [5 x i8] c"asin\00"  ; [#uses=1]
@.str3420 = private constant [6 x i8] c"atan2\00" ; [#uses=1]
@.str4421 = private constant [5 x i8] c"atan\00"  ; [#uses=1]
@.str5422 = private constant [5 x i8] c"ceil\00"  ; [#uses=1]
@.str6423 = private constant [5 x i8] c"cosh\00"  ; [#uses=1]
@.str7424 = private constant [4 x i8] c"cos\00"   ; [#uses=1]
@.str8425 = private constant [4 x i8] c"deg\00"   ; [#uses=1]
@.str9426 = private constant [4 x i8] c"exp\00"   ; [#uses=1]
@.str10427 = private constant [6 x i8] c"floor\00" ; [#uses=1]
@.str11428 = private constant [5 x i8] c"fmod\00" ; [#uses=1]
@.str12429 = private constant [6 x i8] c"frexp\00" ; [#uses=1]
@.str13430 = private constant [6 x i8] c"ldexp\00" ; [#uses=1]
@.str14431 = private constant [6 x i8] c"log10\00" ; [#uses=1]
@.str15432 = private constant [4 x i8] c"log\00"  ; [#uses=1]
@.str16433 = private constant [4 x i8] c"max\00"  ; [#uses=1]
@.str17434 = private constant [4 x i8] c"min\00"  ; [#uses=1]
@.str18435 = private constant [5 x i8] c"modf\00" ; [#uses=1]
@.str19436 = private constant [4 x i8] c"pow\00"  ; [#uses=1]
@.str20437 = private constant [4 x i8] c"rad\00"  ; [#uses=1]
@.str21438 = private constant [7 x i8] c"random\00" ; [#uses=1]
@.str22439 = private constant [11 x i8] c"randomseed\00" ; [#uses=1]
@.str23440 = private constant [5 x i8] c"sinh\00" ; [#uses=1]
@.str24441 = private constant [4 x i8] c"sin\00"  ; [#uses=1]
@.str25442 = private constant [5 x i8] c"sqrt\00" ; [#uses=1]
@.str26443 = private constant [5 x i8] c"tanh\00" ; [#uses=1]
@.str27444 = private constant [4 x i8] c"tan\00"  ; [#uses=1]
@_ZL7mathlib = internal global [29 x %struct.luaL_Reg] [%struct.luaL_Reg { i8* getelementptr inbounds ([4 x i8]* @.str417, i32 0, i32 0), i32 (%struct.lua_State*)* @_Z8math_absP9lua_State }, %struct.luaL_Reg { i8* getelementptr inbounds ([5 x i8]* @.str1418, i32 0, i32 0), i32 (%struct.lua_State*)* @_Z9math_acosP9lua_State }, %struct.luaL_Reg { i8* getelementptr inbounds ([5 x i8]* @.str2419, i32 0, i32 0), i32 (%struct.lua_State*)* @_Z9math_asinP9lua_State }, %struct.luaL_Reg { i8* getelementptr inbounds ([6 x i8]* @.str3420, i32 0, i32 0), i32 (%struct.lua_State*)* @_Z10math_atan2P9lua_State }, %struct.luaL_Reg { i8* getelementptr inbounds ([5 x i8]* @.str4421, i32 0, i32 0), i32 (%struct.lua_State*)* @_Z9math_atanP9lua_State }, %struct.luaL_Reg { i8* getelementptr inbounds ([5 x i8]* @.str5422, i32 0, i32 0), i32 (%struct.lua_State*)* @_Z9math_ceilP9lua_State }, %struct.luaL_Reg { i8* getelementptr inbounds ([5 x i8]* @.str6423, i32 0, i32 0), i32 (%struct.lua_State*)* @_Z9math_coshP9lua_State }, %struct.luaL_Reg { i8* getelementptr inbounds ([4 x i8]* @.str7424, i32 0, i32 0), i32 (%struct.lua_State*)* @_Z8math_cosP9lua_State }, %struct.luaL_Reg { i8* getelementptr inbounds ([4 x i8]* @.str8425, i32 0, i32 0), i32 (%struct.lua_State*)* @_Z8math_degP9lua_State }, %struct.luaL_Reg { i8* getelementptr inbounds ([4 x i8]* @.str9426, i32 0, i32 0), i32 (%struct.lua_State*)* @_Z8math_expP9lua_State }, %struct.luaL_Reg { i8* getelementptr inbounds ([6 x i8]* @.str10427, i32 0, i32 0), i32 (%struct.lua_State*)* @_Z10math_floorP9lua_State }, %struct.luaL_Reg { i8* getelementptr inbounds ([5 x i8]* @.str11428, i32 0, i32 0), i32 (%struct.lua_State*)* @_Z9math_fmodP9lua_State }, %struct.luaL_Reg { i8* getelementptr inbounds ([6 x i8]* @.str12429, i32 0, i32 0), i32 (%struct.lua_State*)* @_Z10math_frexpP9lua_State }, %struct.luaL_Reg { i8* getelementptr inbounds ([6 x i8]* @.str13430, i32 0, i32 0), i32 (%struct.lua_State*)* @_Z10math_ldexpP9lua_State }, %struct.luaL_Reg { i8* getelementptr inbounds ([6 x i8]* @.str14431, i32 0, i32 0), i32 (%struct.lua_State*)* @_Z10math_log10P9lua_State }, %struct.luaL_Reg { i8* getelementptr inbounds ([4 x i8]* @.str15432, i32 0, i32 0), i32 (%struct.lua_State*)* @_Z8math_logP9lua_State }, %struct.luaL_Reg { i8* getelementptr inbounds ([4 x i8]* @.str16433, i32 0, i32 0), i32 (%struct.lua_State*)* @_Z8math_maxP9lua_State }, %struct.luaL_Reg { i8* getelementptr inbounds ([4 x i8]* @.str17434, i32 0, i32 0), i32 (%struct.lua_State*)* @_Z8math_minP9lua_State }, %struct.luaL_Reg { i8* getelementptr inbounds ([5 x i8]* @.str18435, i32 0, i32 0), i32 (%struct.lua_State*)* @_Z9math_modfP9lua_State }, %struct.luaL_Reg { i8* getelementptr inbounds ([4 x i8]* @.str19436, i32 0, i32 0), i32 (%struct.lua_State*)* @_Z8math_powP9lua_State }, %struct.luaL_Reg { i8* getelementptr inbounds ([4 x i8]* @.str20437, i32 0, i32 0), i32 (%struct.lua_State*)* @_Z8math_radP9lua_State }, %struct.luaL_Reg { i8* getelementptr inbounds ([7 x i8]* @.str21438, i32 0, i32 0), i32 (%struct.lua_State*)* @_Z11math_randomP9lua_State }, %struct.luaL_Reg { i8* getelementptr inbounds ([11 x i8]* @.str22439, i32 0, i32 0), i32 (%struct.lua_State*)* @_Z15math_randomseedP9lua_State }, %struct.luaL_Reg { i8* getelementptr inbounds ([5 x i8]* @.str23440, i32 0, i32 0), i32 (%struct.lua_State*)* @_Z9math_sinhP9lua_State }, %struct.luaL_Reg { i8* getelementptr inbounds ([4 x i8]* @.str24441, i32 0, i32 0), i32 (%struct.lua_State*)* @_Z8math_sinP9lua_State }, %struct.luaL_Reg { i8* getelementptr inbounds ([5 x i8]* @.str25442, i32 0, i32 0), i32 (%struct.lua_State*)* @_Z9math_sqrtP9lua_State }, %struct.luaL_Reg { i8* getelementptr inbounds ([5 x i8]* @.str26443, i32 0, i32 0), i32 (%struct.lua_State*)* @_Z9math_tanhP9lua_State }, %struct.luaL_Reg { i8* getelementptr inbounds ([4 x i8]* @.str27444, i32 0, i32 0), i32 (%struct.lua_State*)* @_Z8math_tanP9lua_State }, %struct.luaL_Reg zeroinitializer], align 4 ; [#uses=1]
@.str28445 = private constant [5 x i8] c"math\00" ; [#uses=1]
@.str29446 = private constant [3 x i8] c"pi\00"   ; [#uses=1]
@.str30447 = private constant [5 x i8] c"huge\00" ; [#uses=1]
@.str31448 = private constant [4 x i8] c"mod\00"  ; [#uses=1]
@.str32449 = private constant [18 x i8] c"interval is empty\00" ; [#uses=1]
@.str33450 = private constant [26 x i8] c"wrong number of arguments\00" ; [#uses=1]
@.str452 = private constant [6 x i8] c"clock\00"  ; [#uses=1]
@.str1453 = private constant [5 x i8] c"date\00"  ; [#uses=1]
@.str2454 = private constant [9 x i8] c"difftime\00" ; [#uses=1]
@.str3455 = private constant [8 x i8] c"execute\00" ; [#uses=1]
@.str4456 = private constant [5 x i8] c"exit\00"  ; [#uses=1]
@.str5457 = private constant [7 x i8] c"getenv\00" ; [#uses=1]
@.str6458 = private constant [7 x i8] c"remove\00" ; [#uses=1]
@.str7459 = private constant [7 x i8] c"rename\00" ; [#uses=1]
@.str8460 = private constant [10 x i8] c"setlocale\00" ; [#uses=1]
@.str9461 = private constant [5 x i8] c"time\00"  ; [#uses=1]
@.str10462 = private constant [8 x i8] c"tmpname\00" ; [#uses=1]
@_ZL6syslib = internal global [12 x %struct.luaL_Reg] [%struct.luaL_Reg { i8* getelementptr inbounds ([6 x i8]* @.str452, i32 0, i32 0), i32 (%struct.lua_State*)* @_Z8os_clockP9lua_State }, %struct.luaL_Reg { i8* getelementptr inbounds ([5 x i8]* @.str1453, i32 0, i32 0), i32 (%struct.lua_State*)* @_Z7os_dateP9lua_State }, %struct.luaL_Reg { i8* getelementptr inbounds ([9 x i8]* @.str2454, i32 0, i32 0), i32 (%struct.lua_State*)* @_Z11os_difftimeP9lua_State }, %struct.luaL_Reg { i8* getelementptr inbounds ([8 x i8]* @.str3455, i32 0, i32 0), i32 (%struct.lua_State*)* @_Z10os_executeP9lua_State }, %struct.luaL_Reg { i8* getelementptr inbounds ([5 x i8]* @.str4456, i32 0, i32 0), i32 (%struct.lua_State*)* @_Z7os_exitP9lua_State }, %struct.luaL_Reg { i8* getelementptr inbounds ([7 x i8]* @.str5457, i32 0, i32 0), i32 (%struct.lua_State*)* @_Z9os_getenvP9lua_State }, %struct.luaL_Reg { i8* getelementptr inbounds ([7 x i8]* @.str6458, i32 0, i32 0), i32 (%struct.lua_State*)* @_Z9os_removeP9lua_State }, %struct.luaL_Reg { i8* getelementptr inbounds ([7 x i8]* @.str7459, i32 0, i32 0), i32 (%struct.lua_State*)* @_Z9os_renameP9lua_State }, %struct.luaL_Reg { i8* getelementptr inbounds ([10 x i8]* @.str8460, i32 0, i32 0), i32 (%struct.lua_State*)* @_Z12os_setlocaleP9lua_State }, %struct.luaL_Reg { i8* getelementptr inbounds ([5 x i8]* @.str9461, i32 0, i32 0), i32 (%struct.lua_State*)* @_Z7os_timeP9lua_State }, %struct.luaL_Reg { i8* getelementptr inbounds ([8 x i8]* @.str10462, i32 0, i32 0), i32 (%struct.lua_State*)* @_Z10os_tmpnameP9lua_State }, %struct.luaL_Reg zeroinitializer], align 4 ; [#uses=1]
@.str11463 = private constant [3 x i8] c"os\00"   ; [#uses=1]
@.str12464 = private constant [37 x i8] c"unable to generate a unique filename\00" ; [#uses=1]
@.str13465 = private constant [4 x i8] c"sec\00"  ; [#uses=1]
@.str14466 = private constant [4 x i8] c"min\00"  ; [#uses=1]
@.str15467 = private constant [5 x i8] c"hour\00" ; [#uses=1]
@.str16468 = private constant [4 x i8] c"day\00"  ; [#uses=1]
@.str17469 = private constant [6 x i8] c"month\00" ; [#uses=1]
@.str18470 = private constant [5 x i8] c"year\00" ; [#uses=1]
@.str19471 = private constant [6 x i8] c"isdst\00" ; [#uses=1]
@.str20472 = private constant [33 x i8] c"field '%s' missing in date table\00" ; [#uses=1]
@_ZZ12os_setlocaleP9lua_StateE3cat = internal constant [6 x i32] [i32 6, i32 3, i32 0, i32 4, i32 1, i32 2], align 4 ; [#uses=1]
@_ZZ12os_setlocaleP9lua_StateE8catnames = internal constant [7 x i8*] [i8* getelementptr inbounds ([4 x i8]* @.str21473, i32 0, i32 0), i8* getelementptr inbounds ([8 x i8]* @.str22474, i32 0, i32 0), i8* getelementptr inbounds ([6 x i8]* @.str23475, i32 0, i32 0), i8* getelementptr inbounds ([9 x i8]* @.str24476, i32 0, i32 0), i8* getelementptr inbounds ([8 x i8]* @.str25477, i32 0, i32 0), i8* getelementptr inbounds ([5 x i8]* @.str9461, i32 0, i32 0), i8* null], align 4 ; [#uses=1]
@.str21473 = private constant [4 x i8] c"all\00"  ; [#uses=1]
@.str22474 = private constant [8 x i8] c"collate\00" ; [#uses=1]
@.str23475 = private constant [6 x i8] c"ctype\00" ; [#uses=1]
@.str24476 = private constant [9 x i8] c"monetary\00" ; [#uses=1]
@.str25477 = private constant [8 x i8] c"numeric\00" ; [#uses=1]
@.str26478 = private constant [7 x i8] c"%s: %s\00" ; [#uses=1]
@.str27479 = private constant [3 x i8] c"%c\00"   ; [#uses=1]
@.str28480 = private constant [3 x i8] c"*t\00"   ; [#uses=1]
@.str29481 = private constant [5 x i8] c"wday\00" ; [#uses=1]
@.str30482 = private constant [5 x i8] c"yday\00" ; [#uses=1]
@.str483 = private constant [7 x i8] c"concat\00" ; [#uses=1]
@.str1484 = private constant [8 x i8] c"foreach\00" ; [#uses=1]
@.str2485 = private constant [9 x i8] c"foreachi\00" ; [#uses=1]
@.str3486 = private constant [5 x i8] c"getn\00"  ; [#uses=1]
@.str4487 = private constant [5 x i8] c"maxn\00"  ; [#uses=1]
@.str5488 = private constant [7 x i8] c"insert\00" ; [#uses=1]
@.str6489 = private constant [7 x i8] c"remove\00" ; [#uses=1]
@.str7490 = private constant [5 x i8] c"setn\00"  ; [#uses=1]
@.str8491 = private constant [5 x i8] c"sort\00"  ; [#uses=1]
@_ZL9tab_funcs = internal global [10 x %struct.luaL_Reg] [%struct.luaL_Reg { i8* getelementptr inbounds ([7 x i8]* @.str483, i32 0, i32 0), i32 (%struct.lua_State*)* @_Z7tconcatP9lua_State }, %struct.luaL_Reg { i8* getelementptr inbounds ([8 x i8]* @.str1484, i32 0, i32 0), i32 (%struct.lua_State*)* @_Z7foreachP9lua_State }, %struct.luaL_Reg { i8* getelementptr inbounds ([9 x i8]* @.str2485, i32 0, i32 0), i32 (%struct.lua_State*)* @_Z8foreachiP9lua_State }, %struct.luaL_Reg { i8* getelementptr inbounds ([5 x i8]* @.str3486, i32 0, i32 0), i32 (%struct.lua_State*)* @_Z4getnP9lua_State }, %struct.luaL_Reg { i8* getelementptr inbounds ([5 x i8]* @.str4487, i32 0, i32 0), i32 (%struct.lua_State*)* @_Z4maxnP9lua_State }, %struct.luaL_Reg { i8* getelementptr inbounds ([7 x i8]* @.str5488, i32 0, i32 0), i32 (%struct.lua_State*)* @_Z7tinsertP9lua_State }, %struct.luaL_Reg { i8* getelementptr inbounds ([7 x i8]* @.str6489, i32 0, i32 0), i32 (%struct.lua_State*)* @_Z7tremoveP9lua_State }, %struct.luaL_Reg { i8* getelementptr inbounds ([5 x i8]* @.str7490, i32 0, i32 0), i32 (%struct.lua_State*)* @_Z4setnP9lua_State }, %struct.luaL_Reg { i8* getelementptr inbounds ([5 x i8]* @.str8491, i32 0, i32 0), i32 (%struct.lua_State*)* @_Z4sortP9lua_State }, %struct.luaL_Reg zeroinitializer], align 4 ; [#uses=1]
@.str9492 = private constant [6 x i8] c"table\00" ; [#uses=1]
@.str10493 = private constant [1 x i8] zeroinitializer ; [#uses=1]
@.str11494 = private constant [35 x i8] c"invalid order function for sorting\00" ; [#uses=1]
@.str12495 = private constant [19 x i8] c"'setn' is obsolete\00" ; [#uses=1]
@.str13496 = private constant [38 x i8] c"wrong number of arguments to 'insert'\00" ; [#uses=1]
@.str14497 = private constant [53 x i8] c"invalid value (%s) at index %d in table for 'concat'\00" ; [#uses=1]
@.str498 = private constant [5 x i8] c"byte\00"   ; [#uses=1]
@.str1499 = private constant [5 x i8] c"char\00"  ; [#uses=1]
@.str2500 = private constant [5 x i8] c"dump\00"  ; [#uses=1]
@.str3501 = private constant [5 x i8] c"find\00"  ; [#uses=1]
@.str4502 = private constant [7 x i8] c"format\00" ; [#uses=1]
@.str5503 = private constant [6 x i8] c"gfind\00" ; [#uses=1]
@.str6504 = private constant [7 x i8] c"gmatch\00" ; [#uses=1]
@.str7505 = private constant [5 x i8] c"gsub\00"  ; [#uses=1]
@.str8506 = private constant [4 x i8] c"len\00"   ; [#uses=1]
@.str9507 = private constant [6 x i8] c"lower\00" ; [#uses=1]
@.str10508 = private constant [6 x i8] c"match\00" ; [#uses=1]
@.str11509 = private constant [4 x i8] c"rep\00"  ; [#uses=1]
@.str12510 = private constant [8 x i8] c"reverse\00" ; [#uses=1]
@.str13511 = private constant [4 x i8] c"sub\00"  ; [#uses=1]
@.str14512 = private constant [6 x i8] c"upper\00" ; [#uses=1]
@_ZL6strlib = internal global [16 x %struct.luaL_Reg] [%struct.luaL_Reg { i8* getelementptr inbounds ([5 x i8]* @.str498, i32 0, i32 0), i32 (%struct.lua_State*)* @_Z8str_byteP9lua_State }, %struct.luaL_Reg { i8* getelementptr inbounds ([5 x i8]* @.str1499, i32 0, i32 0), i32 (%struct.lua_State*)* @_Z8str_charP9lua_State }, %struct.luaL_Reg { i8* getelementptr inbounds ([5 x i8]* @.str2500, i32 0, i32 0), i32 (%struct.lua_State*)* @_Z8str_dumpP9lua_State }, %struct.luaL_Reg { i8* getelementptr inbounds ([5 x i8]* @.str3501, i32 0, i32 0), i32 (%struct.lua_State*)* @_Z8str_findP9lua_State }, %struct.luaL_Reg { i8* getelementptr inbounds ([7 x i8]* @.str4502, i32 0, i32 0), i32 (%struct.lua_State*)* @_Z10str_formatP9lua_State }, %struct.luaL_Reg { i8* getelementptr inbounds ([6 x i8]* @.str5503, i32 0, i32 0), i32 (%struct.lua_State*)* @_Z11gfind_nodefP9lua_State }, %struct.luaL_Reg { i8* getelementptr inbounds ([7 x i8]* @.str6504, i32 0, i32 0), i32 (%struct.lua_State*)* @_Z6gmatchP9lua_State }, %struct.luaL_Reg { i8* getelementptr inbounds ([5 x i8]* @.str7505, i32 0, i32 0), i32 (%struct.lua_State*)* @_Z8str_gsubP9lua_State }, %struct.luaL_Reg { i8* getelementptr inbounds ([4 x i8]* @.str8506, i32 0, i32 0), i32 (%struct.lua_State*)* @_Z7str_lenP9lua_State }, %struct.luaL_Reg { i8* getelementptr inbounds ([6 x i8]* @.str9507, i32 0, i32 0), i32 (%struct.lua_State*)* @_Z9str_lowerP9lua_State }, %struct.luaL_Reg { i8* getelementptr inbounds ([6 x i8]* @.str10508, i32 0, i32 0), i32 (%struct.lua_State*)* @_Z9str_matchP9lua_State }, %struct.luaL_Reg { i8* getelementptr inbounds ([4 x i8]* @.str11509, i32 0, i32 0), i32 (%struct.lua_State*)* @_Z7str_repP9lua_State }, %struct.luaL_Reg { i8* getelementptr inbounds ([8 x i8]* @.str12510, i32 0, i32 0), i32 (%struct.lua_State*)* @_Z11str_reverseP9lua_State }, %struct.luaL_Reg { i8* getelementptr inbounds ([4 x i8]* @.str13511, i32 0, i32 0), i32 (%struct.lua_State*)* @_Z7str_subP9lua_State }, %struct.luaL_Reg { i8* getelementptr inbounds ([6 x i8]* @.str14512, i32 0, i32 0), i32 (%struct.lua_State*)* @_Z9str_upperP9lua_State }, %struct.luaL_Reg zeroinitializer], align 4 ; [#uses=1]
@.str15513 = private constant [7 x i8] c"string\00" ; [#uses=1]
@.str16514 = private constant [1 x i8] zeroinitializer ; [#uses=1]
@.str17515 = private constant [8 x i8] c"__index\00" ; [#uses=1]
@.str18516 = private constant [11 x i8] c"^$*+?.([%-\00" ; [#uses=1]
@.str19517 = private constant [18 x i8] c"too many captures\00" ; [#uses=1]
@.str20518 = private constant [22 x i8] c"invalid capture index\00" ; [#uses=1]
@.str21519 = private constant [19 x i8] c"unfinished capture\00" ; [#uses=1]
@.str22520 = private constant [35 x i8] c"missing '[' after '%%f' in pattern\00" ; [#uses=1]
@.str23521 = private constant [35 x i8] c"malformed pattern (ends with '%%')\00" ; [#uses=1]
@.str24522 = private constant [32 x i8] c"malformed pattern (missing ']')\00" ; [#uses=1]
@.str25523 = private constant [19 x i8] c"unbalanced pattern\00" ; [#uses=1]
@.str26524 = private constant [24 x i8] c"invalid pattern capture\00" ; [#uses=1]
@.str27525 = private constant [31 x i8] c"string/function/table expected\00" ; [#uses=1]
@.str28526 = private constant [33 x i8] c"invalid replacement value (a %s)\00" ; [#uses=1]
@.str29527 = private constant [46 x i8] c"'string.gfind' was renamed to 'string.gmatch'\00" ; [#uses=1]
@.str30528 = private constant [34 x i8] c"invalid option '%%%c' to 'format'\00" ; [#uses=1]
@.str31529 = private constant [3 x i8] c"\5Cr\00" ; [#uses=1]
@.str32530 = private constant [5 x i8] c"\5C000\00" ; [#uses=1]
@.str33531 = private constant [2 x i8] c"l\00"    ; [#uses=1]
@.str34532 = private constant [6 x i8] c"-+ #0\00" ; [#uses=1]
@.str35533 = private constant [32 x i8] c"invalid format (repeated flags)\00" ; [#uses=1]
@.str36534 = private constant [45 x i8] c"invalid format (width or precision too long)\00" ; [#uses=1]
@.str37535 = private constant [30 x i8] c"unable to dump given function\00" ; [#uses=1]
@.str38536 = private constant [14 x i8] c"invalid value\00" ; [#uses=1]
@.str39537 = private constant [22 x i8] c"string slice too long\00" ; [#uses=1]
@.str538 = private constant [8 x i8] c"loadlib\00" ; [#uses=1]
@.str1539 = private constant [7 x i8] c"seeall\00" ; [#uses=1]
@_ZL8pk_funcs = internal global [3 x %struct.luaL_Reg] [%struct.luaL_Reg { i8* getelementptr inbounds ([8 x i8]* @.str538, i32 0, i32 0), i32 (%struct.lua_State*)* @_Z10ll_loadlibP9lua_State }, %struct.luaL_Reg { i8* getelementptr inbounds ([7 x i8]* @.str1539, i32 0, i32 0), i32 (%struct.lua_State*)* @_Z9ll_seeallP9lua_State }, %struct.luaL_Reg zeroinitializer], align 4 ; [#uses=1]
@.str2540 = private constant [7 x i8] c"module\00" ; [#uses=1]
@.str3541 = private constant [8 x i8] c"require\00" ; [#uses=1]
@_ZL8ll_funcs = internal global [3 x %struct.luaL_Reg] [%struct.luaL_Reg { i8* getelementptr inbounds ([7 x i8]* @.str2540, i32 0, i32 0), i32 (%struct.lua_State*)* @_Z9ll_moduleP9lua_State }, %struct.luaL_Reg { i8* getelementptr inbounds ([8 x i8]* @.str3541, i32 0, i32 0), i32 (%struct.lua_State*)* @_Z10ll_requireP9lua_State }, %struct.luaL_Reg zeroinitializer], align 4 ; [#uses=1]
@_ZL7loaders = internal constant [5 x i32 (%struct.lua_State*)*] [i32 (%struct.lua_State*)* @_Z14loader_preloadP9lua_State, i32 (%struct.lua_State*)* @_Z10loader_LuaP9lua_State, i32 (%struct.lua_State*)* @_Z8loader_CP9lua_State, i32 (%struct.lua_State*)* @_Z12loader_CrootP9lua_State, i32 (%struct.lua_State*)* null], align 4 ; [#uses=2]
@.str4542 = private constant [9 x i8] c"_LOADLIB\00" ; [#uses=1]
@.str5543 = private constant [5 x i8] c"__gc\00"  ; [#uses=1]
@.str6544 = private constant [8 x i8] c"package\00" ; [#uses=1]
@.str7545 = private constant [8 x i8] c"loaders\00" ; [#uses=1]
@.str8546 = private constant [5 x i8] c"path\00"  ; [#uses=1]
@.str9547 = private constant [9 x i8] c"LUA_PATH\00" ; [#uses=1]
@.str10548 = private constant [138 x i8] c"./?.lua;/usr/local/share/lua/5.1/?.lua;/usr/local/share/lua/5.1/?/init.lua;/usr/local/lib/lua/5.1/?.lua;/usr/local/lib/lua/5.1/?/init.lua\00" ; [#uses=1]
@.str11549 = private constant [6 x i8] c"cpath\00" ; [#uses=1]
@.str12550 = private constant [10 x i8] c"LUA_CPATH\00" ; [#uses=1]
@.str13551 = private constant [69 x i8] c"./?.so;/usr/local/lib/lua/5.1/?.so;/usr/local/lib/lua/5.1/loadall.so\00" ; [#uses=1]
@.str14552 = private constant [10 x i8] c"/\0A;\0A?\0A!\0A-\00" ; [#uses=1]
@.str15553 = private constant [7 x i8] c"config\00" ; [#uses=1]
@.str16554 = private constant [8 x i8] c"_LOADED\00" ; [#uses=1]
@.str17555 = private constant [7 x i8] c"loaded\00" ; [#uses=1]
@.str18556 = private constant [8 x i8] c"preload\00" ; [#uses=1]
@.str19557 = private constant [3 x i8] c";;\00"   ; [#uses=1]
@.str20558 = private constant [4 x i8] c";\01;\00" ; [#uses=1]
@.str21559 = private constant [2 x i8] c"\01\00"  ; [#uses=1]
@.str22560 = private constant [30 x i8] c"\0A\09no module '%s' in file '%s'\00" ; [#uses=1]
@.str23561 = private constant [46 x i8] c"error loading module '%s' from file '%s':\0A\09%s\00" ; [#uses=1]
@.str24562 = private constant [59 x i8] c"dynamic libraries not enabled; check your Lua installation\00" ; [#uses=1]
@.str25563 = private constant [5 x i8] c"%s%s\00" ; [#uses=1]
@.str26564 = private constant [10 x i8] c"LOADLIB: \00" ; [#uses=1]
@.str27565 = private constant [2 x i8] c"-\00"    ; [#uses=1]
@.str28566 = private constant [2 x i8] c".\00"    ; [#uses=1]
@.str29567 = private constant [2 x i8] c"_\00"    ; [#uses=1]
@.str30568 = private constant [11 x i8] c"luaopen_%s\00" ; [#uses=1]
@.str31569 = private constant [2 x i8] c"/\00"    ; [#uses=1]
@.str32570 = private constant [30 x i8] c"'package.%s' must be a string\00" ; [#uses=1]
@.str33571 = private constant [1 x i8] zeroinitializer ; [#uses=1]
@.str34572 = private constant [2 x i8] c"?\00"    ; [#uses=1]
@.str35573 = private constant [15 x i8] c"\0A\09no file '%s'\00" ; [#uses=1]
@.str36574 = private constant [2 x i8] c"r\00"    ; [#uses=1]
@.str37575 = private constant [2 x i8] c";\00"    ; [#uses=1]
@.str38576 = private constant [34 x i8] c"'package.preload' must be a table\00" ; [#uses=1]
@.str39577 = private constant [33 x i8] c"\0A\09no field package.preload['%s']\00" ; [#uses=1]
@_ZL9sentinel_ = internal constant i32 0, align 4 ; [#uses=1]
@.str40578 = private constant [43 x i8] c"loop or previous error loading module '%s'\00" ; [#uses=1]
@.str41579 = private constant [34 x i8] c"'package.loaders' must be a table\00" ; [#uses=1]
@.str42580 = private constant [25 x i8] c"module '%s' not found:%s\00" ; [#uses=1]
@.str43581 = private constant [30 x i8] c"name conflict for module '%s'\00" ; [#uses=1]
@.str44582 = private constant [6 x i8] c"_NAME\00" ; [#uses=1]
@.str45583 = private constant [2 x i8] c"f\00"    ; [#uses=1]
@.str46584 = private constant [40 x i8] c"'module' not called from a Lua function\00" ; [#uses=1]
@.str47585 = private constant [3 x i8] c"_M\00"   ; [#uses=1]
@.str48586 = private constant [9 x i8] c"_PACKAGE\00" ; [#uses=1]
@.str49587 = private constant [8 x i8] c"__index\00" ; [#uses=1]
@.str50588 = private constant [7 x i8] c"absent\00" ; [#uses=1]
@.str51589 = private constant [5 x i8] c"init\00" ; [#uses=1]
@.str590 = private constant [1 x i8] zeroinitializer ; [#uses=1]
@.str1591 = private constant [8 x i8] c"package\00" ; [#uses=1]
@.str2592 = private constant [6 x i8] c"table\00" ; [#uses=1]
@.str3593 = private constant [3 x i8] c"io\00"    ; [#uses=1]
@.str4594 = private constant [3 x i8] c"os\00"    ; [#uses=1]
@.str5595 = private constant [7 x i8] c"string\00" ; [#uses=1]
@.str6596 = private constant [5 x i8] c"math\00"  ; [#uses=1]
@.str7597 = private constant [6 x i8] c"debug\00" ; [#uses=1]
@_ZL7lualibs = internal global [9 x %struct.luaL_Reg] [%struct.luaL_Reg { i8* getelementptr inbounds ([1 x i8]* @.str590, i32 0, i32 0), i32 (%struct.lua_State*)* @_Z12luaopen_baseP9lua_State }, %struct.luaL_Reg { i8* getelementptr inbounds ([8 x i8]* @.str1591, i32 0, i32 0), i32 (%struct.lua_State*)* @_Z15luaopen_packageP9lua_State }, %struct.luaL_Reg { i8* getelementptr inbounds ([6 x i8]* @.str2592, i32 0, i32 0), i32 (%struct.lua_State*)* @_Z13luaopen_tableP9lua_State }, %struct.luaL_Reg { i8* getelementptr inbounds ([3 x i8]* @.str3593, i32 0, i32 0), i32 (%struct.lua_State*)* @_Z10luaopen_ioP9lua_State }, %struct.luaL_Reg { i8* getelementptr inbounds ([3 x i8]* @.str4594, i32 0, i32 0), i32 (%struct.lua_State*)* @_Z10luaopen_osP9lua_State }, %struct.luaL_Reg { i8* getelementptr inbounds ([7 x i8]* @.str5595, i32 0, i32 0), i32 (%struct.lua_State*)* @_Z14luaopen_stringP9lua_State }, %struct.luaL_Reg { i8* getelementptr inbounds ([5 x i8]* @.str6596, i32 0, i32 0), i32 (%struct.lua_State*)* @_Z12luaopen_mathP9lua_State }, %struct.luaL_Reg { i8* getelementptr inbounds ([6 x i8]* @.str7597, i32 0, i32 0), i32 (%struct.lua_State*)* @_Z13luaopen_debugP9lua_State }, %struct.luaL_Reg zeroinitializer], align 4 ; [#uses=1]

; [#uses=0]
define i32 @main(i32 %argc, i8** %argv) {
  %1 = alloca i32, align 4                        ; [#uses=4]
  %2 = alloca i32, align 4                        ; [#uses=2]
  %3 = alloca i8**, align 4                       ; [#uses=3]
  %status = alloca i32, align 4                   ; [#uses=3]
  %s = alloca %struct.Smain, align 4              ; [#uses=4]
  %L = alloca %struct.lua_State*, align 4         ; [#uses=5]
  store i32 0, i32* %1
  store i32 %argc, i32* %2, align 4
  store i8** %argv, i8*** %3, align 4
  %4 = call %struct.lua_State* @_Z13luaL_newstatev() ; [#uses=1]
  store %struct.lua_State* %4, %struct.lua_State** %L, align 4
  %5 = load %struct.lua_State** %L, align 4       ; [#uses=1]
  %6 = icmp eq %struct.lua_State* %5, null        ; [#uses=1]
  br i1 %6, label %7, label %11

; <label>:7                                       ; preds = %0
  %8 = load i8*** %3, align 4                     ; [#uses=1]
  %9 = getelementptr inbounds i8** %8, i32 0      ; [#uses=1]
  %10 = load i8** %9                              ; [#uses=1]
  call void @_Z9l_messagePKcS0_(i8* %10, i8* getelementptr inbounds ([39 x i8]* @.str, i32 0, i32 0))
  store i32 1, i32* %1
  br label %32

; <label>:11                                      ; preds = %0
  %12 = load i32* %2, align 4                     ; [#uses=1]
  %13 = getelementptr inbounds %struct.Smain* %s, i32 0, i32 0 ; [#uses=1]
  store i32 %12, i32* %13, align 4
  %14 = load i8*** %3, align 4                    ; [#uses=1]
  %15 = getelementptr inbounds %struct.Smain* %s, i32 0, i32 1 ; [#uses=1]
  store i8** %14, i8*** %15, align 4
  %16 = load %struct.lua_State** %L, align 4      ; [#uses=1]
  %17 = bitcast %struct.Smain* %s to i8*          ; [#uses=1]
  %18 = call i32 @_Z10lua_cpcallP9lua_StatePFiS0_EPv(%struct.lua_State* %16, i32 (%struct.lua_State*)* @_Z5pmainP9lua_State, i8* %17) ; [#uses=1]
  store i32 %18, i32* %status, align 4
  %19 = load %struct.lua_State** %L, align 4      ; [#uses=1]
  %20 = load i32* %status, align 4                ; [#uses=1]
  %21 = call i32 @_Z6reportP9lua_Statei(%struct.lua_State* %19, i32 %20) ; [#uses=0]
  %22 = load %struct.lua_State** %L, align 4      ; [#uses=1]
  call void @_Z9lua_closeP9lua_State(%struct.lua_State* %22)
  %23 = load i32* %status, align 4                ; [#uses=1]
  %24 = icmp ne i32 %23, 0                        ; [#uses=1]
  br i1 %24, label %29, label %25

; <label>:25                                      ; preds = %11
  %26 = getelementptr inbounds %struct.Smain* %s, i32 0, i32 2 ; [#uses=1]
  %27 = load i32* %26, align 4                    ; [#uses=1]
  %28 = icmp ne i32 %27, 0                        ; [#uses=1]
  br label %29

; <label>:29                                      ; preds = %25, %11
  %30 = phi i1 [ true, %11 ], [ %28, %25 ]        ; [#uses=1]
  %31 = select i1 %30, i32 1, i32 0               ; [#uses=1]
  store i32 %31, i32* %1
  br label %32

; <label>:32                                      ; preds = %29, %7
  %33 = load i32* %1                              ; [#uses=1]
  ret i32 %33
}

; [#uses=4]
define internal void @_Z9l_messagePKcS0_(i8* %pname, i8* %msg) {
  %1 = alloca i8*, align 4                        ; [#uses=3]
  %2 = alloca i8*, align 4                        ; [#uses=2]
  store i8* %pname, i8** %1, align 4
  store i8* %msg, i8** %2, align 4
  %3 = load i8** %1, align 4                      ; [#uses=1]
  %4 = icmp ne i8* %3, null                       ; [#uses=1]
  br i1 %4, label %5, label %9

; <label>:5                                       ; preds = %0
  %6 = load %struct._IO_FILE** @stderr, align 4   ; [#uses=1]
  %7 = load i8** %1, align 4                      ; [#uses=1]
  %8 = call i32 (%struct._IO_FILE*, i8*, ...)* @fprintf(%struct._IO_FILE* %6, i8* getelementptr inbounds ([5 x i8]* @.str26, i32 0, i32 0), i8* %7) ; [#uses=0]
  br label %9

; <label>:9                                       ; preds = %5, %0
  %10 = load %struct._IO_FILE** @stderr, align 4  ; [#uses=1]
  %11 = load i8** %2, align 4                     ; [#uses=1]
  %12 = call i32 (%struct._IO_FILE*, i8*, ...)* @fprintf(%struct._IO_FILE* %10, i8* getelementptr inbounds ([4 x i8]* @.str27, i32 0, i32 0), i8* %11) ; [#uses=0]
  %13 = load %struct._IO_FILE** @stderr, align 4  ; [#uses=1]
  %14 = call i32 @fflush(%struct._IO_FILE* %13)   ; [#uses=0]
  ret void
}

; [#uses=1]
define internal i32 @_Z5pmainP9lua_State(%struct.lua_State* %L) {
  %1 = alloca i32, align 4                        ; [#uses=6]
  %2 = alloca %struct.lua_State*, align 4         ; [#uses=11]
  %s = alloca %struct.Smain*, align 4             ; [#uses=10]
  %argv = alloca i8**, align 4                    ; [#uses=7]
  %script = alloca i32, align 4                   ; [#uses=7]
  %has_i = alloca i32, align 4                    ; [#uses=3]
  %has_v = alloca i32, align 4                    ; [#uses=4]
  %has_e = alloca i32, align 4                    ; [#uses=3]
  store %struct.lua_State* %L, %struct.lua_State** %2, align 4
  %3 = load %struct.lua_State** %2, align 4       ; [#uses=1]
  %4 = call i8* @_Z14lua_touserdataP9lua_Statei(%struct.lua_State* %3, i32 1) ; [#uses=1]
  %5 = bitcast i8* %4 to %struct.Smain*           ; [#uses=1]
  store %struct.Smain* %5, %struct.Smain** %s, align 4
  %6 = load %struct.Smain** %s, align 4           ; [#uses=1]
  %7 = getelementptr inbounds %struct.Smain* %6, i32 0, i32 1 ; [#uses=1]
  %8 = load i8*** %7, align 4                     ; [#uses=1]
  store i8** %8, i8*** %argv, align 4
  store i32 0, i32* %has_i, align 4
  store i32 0, i32* %has_v, align 4
  store i32 0, i32* %has_e, align 4
  %9 = load %struct.lua_State** %2, align 4       ; [#uses=1]
  store %struct.lua_State* %9, %struct.lua_State** @_ZL7globalL, align 4
  %10 = load i8*** %argv, align 4                 ; [#uses=1]
  %11 = getelementptr inbounds i8** %10, i32 0    ; [#uses=1]
  %12 = load i8** %11                             ; [#uses=1]
  %13 = icmp ne i8* %12, null                     ; [#uses=1]
  br i1 %13, label %14, label %25

; <label>:14                                      ; preds = %0
  %15 = load i8*** %argv, align 4                 ; [#uses=1]
  %16 = getelementptr inbounds i8** %15, i32 0    ; [#uses=1]
  %17 = load i8** %16                             ; [#uses=1]
  %18 = getelementptr inbounds i8* %17, i32 0     ; [#uses=1]
  %19 = load i8* %18                              ; [#uses=1]
  %20 = icmp ne i8 %19, 0                         ; [#uses=1]
  br i1 %20, label %21, label %25

; <label>:21                                      ; preds = %14
  %22 = load i8*** %argv, align 4                 ; [#uses=1]
  %23 = getelementptr inbounds i8** %22, i32 0    ; [#uses=1]
  %24 = load i8** %23                             ; [#uses=1]
  store i8* %24, i8** @_ZL8progname, align 4
  br label %25

; <label>:25                                      ; preds = %21, %14, %0
  %26 = load %struct.lua_State** %2, align 4      ; [#uses=1]
  %27 = call i32 @_Z6lua_gcP9lua_Stateii(%struct.lua_State* %26, i32 0, i32 0) ; [#uses=0]
  %28 = load %struct.lua_State** %2, align 4      ; [#uses=1]
  call void @_Z13luaL_openlibsP9lua_State(%struct.lua_State* %28)
  %29 = load %struct.lua_State** %2, align 4      ; [#uses=1]
  %30 = call i32 @_Z6lua_gcP9lua_Stateii(%struct.lua_State* %29, i32 1, i32 0) ; [#uses=0]
  %31 = load %struct.lua_State** %2, align 4      ; [#uses=1]
  %32 = call i32 @_Z14handle_luainitP9lua_State(%struct.lua_State* %31) ; [#uses=1]
  %33 = load %struct.Smain** %s, align 4          ; [#uses=1]
  %34 = getelementptr inbounds %struct.Smain* %33, i32 0, i32 2 ; [#uses=1]
  store i32 %32, i32* %34, align 4
  %35 = load %struct.Smain** %s, align 4          ; [#uses=1]
  %36 = getelementptr inbounds %struct.Smain* %35, i32 0, i32 2 ; [#uses=1]
  %37 = load i32* %36, align 4                    ; [#uses=1]
  %38 = icmp ne i32 %37, 0                        ; [#uses=1]
  br i1 %38, label %39, label %40

; <label>:39                                      ; preds = %25
  store i32 0, i32* %1
  br label %107

; <label>:40                                      ; preds = %25
  %41 = load i8*** %argv, align 4                 ; [#uses=1]
  %42 = call i32 @_Z11collectargsPPcPiS1_S1_(i8** %41, i32* %has_i, i32* %has_v, i32* %has_e) ; [#uses=1]
  store i32 %42, i32* %script, align 4
  %43 = load i32* %script, align 4                ; [#uses=1]
  %44 = icmp slt i32 %43, 0                       ; [#uses=1]
  br i1 %44, label %45, label %48

; <label>:45                                      ; preds = %40
  call void @_Z11print_usagev()
  %46 = load %struct.Smain** %s, align 4          ; [#uses=1]
  %47 = getelementptr inbounds %struct.Smain* %46, i32 0, i32 2 ; [#uses=1]
  store i32 1, i32* %47, align 4
  store i32 0, i32* %1
  br label %107

; <label>:48                                      ; preds = %40
  %49 = load i32* %has_v, align 4                 ; [#uses=1]
  %50 = icmp ne i32 %49, 0                        ; [#uses=1]
  br i1 %50, label %51, label %52

; <label>:51                                      ; preds = %48
  call void @_Z13print_versionv()
  br label %52

; <label>:52                                      ; preds = %51, %48
  %53 = load %struct.lua_State** %2, align 4      ; [#uses=1]
  %54 = load i8*** %argv, align 4                 ; [#uses=1]
  %55 = load i32* %script, align 4                ; [#uses=1]
  %56 = icmp sgt i32 %55, 0                       ; [#uses=1]
  br i1 %56, label %57, label %59

; <label>:57                                      ; preds = %52
  %58 = load i32* %script, align 4                ; [#uses=1]
  br label %63

; <label>:59                                      ; preds = %52
  %60 = load %struct.Smain** %s, align 4          ; [#uses=1]
  %61 = getelementptr inbounds %struct.Smain* %60, i32 0, i32 0 ; [#uses=1]
  %62 = load i32* %61, align 4                    ; [#uses=1]
  br label %63

; <label>:63                                      ; preds = %59, %57
  %64 = phi i32 [ %58, %57 ], [ %62, %59 ]        ; [#uses=1]
  %65 = call i32 @_Z7runargsP9lua_StatePPci(%struct.lua_State* %53, i8** %54, i32 %64) ; [#uses=1]
  %66 = load %struct.Smain** %s, align 4          ; [#uses=1]
  %67 = getelementptr inbounds %struct.Smain* %66, i32 0, i32 2 ; [#uses=1]
  store i32 %65, i32* %67, align 4
  %68 = load %struct.Smain** %s, align 4          ; [#uses=1]
  %69 = getelementptr inbounds %struct.Smain* %68, i32 0, i32 2 ; [#uses=1]
  %70 = load i32* %69, align 4                    ; [#uses=1]
  %71 = icmp ne i32 %70, 0                        ; [#uses=1]
  br i1 %71, label %72, label %73

; <label>:72                                      ; preds = %63
  store i32 0, i32* %1
  br label %107

; <label>:73                                      ; preds = %63
  %74 = load i32* %script, align 4                ; [#uses=1]
  %75 = icmp ne i32 %74, 0                        ; [#uses=1]
  br i1 %75, label %76, label %83

; <label>:76                                      ; preds = %73
  %77 = load %struct.lua_State** %2, align 4      ; [#uses=1]
  %78 = load i8*** %argv, align 4                 ; [#uses=1]
  %79 = load i32* %script, align 4                ; [#uses=1]
  %80 = call i32 @_Z13handle_scriptP9lua_StatePPci(%struct.lua_State* %77, i8** %78, i32 %79) ; [#uses=1]
  %81 = load %struct.Smain** %s, align 4          ; [#uses=1]
  %82 = getelementptr inbounds %struct.Smain* %81, i32 0, i32 2 ; [#uses=1]
  store i32 %80, i32* %82, align 4
  br label %83

; <label>:83                                      ; preds = %76, %73
  %84 = load %struct.Smain** %s, align 4          ; [#uses=1]
  %85 = getelementptr inbounds %struct.Smain* %84, i32 0, i32 2 ; [#uses=1]
  %86 = load i32* %85, align 4                    ; [#uses=1]
  %87 = icmp ne i32 %86, 0                        ; [#uses=1]
  br i1 %87, label %88, label %89

; <label>:88                                      ; preds = %83
  store i32 0, i32* %1
  br label %107

; <label>:89                                      ; preds = %83
  %90 = load i32* %has_i, align 4                 ; [#uses=1]
  %91 = icmp ne i32 %90, 0                        ; [#uses=1]
  br i1 %91, label %92, label %94

; <label>:92                                      ; preds = %89
  %93 = load %struct.lua_State** %2, align 4      ; [#uses=1]
  call void @_Z5dottyP9lua_State(%struct.lua_State* %93)
  br label %106

; <label>:94                                      ; preds = %89
  %95 = load i32* %script, align 4                ; [#uses=1]
  %96 = icmp eq i32 %95, 0                        ; [#uses=1]
  br i1 %96, label %97, label %105

; <label>:97                                      ; preds = %94
  %98 = load i32* %has_e, align 4                 ; [#uses=1]
  %99 = icmp ne i32 %98, 0                        ; [#uses=1]
  br i1 %99, label %105, label %100

; <label>:100                                     ; preds = %97
  %101 = load i32* %has_v, align 4                ; [#uses=1]
  %102 = icmp ne i32 %101, 0                      ; [#uses=1]
  br i1 %102, label %105, label %103

; <label>:103                                     ; preds = %100
  call void @_Z13print_versionv()
  %104 = load %struct.lua_State** %2, align 4     ; [#uses=1]
  call void @_Z5dottyP9lua_State(%struct.lua_State* %104)
  br label %105

; <label>:105                                     ; preds = %103, %100, %97, %94
  br label %106

; <label>:106                                     ; preds = %105, %92
  store i32 0, i32* %1
  br label %107

; <label>:107                                     ; preds = %106, %88, %72, %45, %39
  %108 = load i32* %1                             ; [#uses=1]
  ret i32 %108
}

; [#uses=6]
define internal i32 @_Z6reportP9lua_Statei(%struct.lua_State* %L, i32 %status) {
  %1 = alloca %struct.lua_State*, align 4         ; [#uses=4]
  %2 = alloca i32, align 4                        ; [#uses=3]
  %msg = alloca i8*, align 4                      ; [#uses=4]
  store %struct.lua_State* %L, %struct.lua_State** %1, align 4
  store i32 %status, i32* %2, align 4
  %3 = load i32* %2, align 4                      ; [#uses=1]
  %4 = icmp ne i32 %3, 0                          ; [#uses=1]
  br i1 %4, label %5, label %19

; <label>:5                                       ; preds = %0
  %6 = load %struct.lua_State** %1, align 4       ; [#uses=1]
  %7 = call i32 @_Z8lua_typeP9lua_Statei(%struct.lua_State* %6, i32 -1) ; [#uses=1]
  %8 = icmp eq i32 %7, 0                          ; [#uses=1]
  br i1 %8, label %19, label %9

; <label>:9                                       ; preds = %5
  %10 = load %struct.lua_State** %1, align 4      ; [#uses=1]
  %11 = call i8* @_Z13lua_tolstringP9lua_StateiPj(%struct.lua_State* %10, i32 -1, i32* null) ; [#uses=1]
  store i8* %11, i8** %msg, align 4
  %12 = load i8** %msg, align 4                   ; [#uses=1]
  %13 = icmp eq i8* %12, null                     ; [#uses=1]
  br i1 %13, label %14, label %15

; <label>:14                                      ; preds = %9
  store i8* getelementptr inbounds ([31 x i8]* @.str1, i32 0, i32 0), i8** %msg, align 4
  br label %15

; <label>:15                                      ; preds = %14, %9
  %16 = load i8** @_ZL8progname, align 4          ; [#uses=1]
  %17 = load i8** %msg, align 4                   ; [#uses=1]
  call void @_Z9l_messagePKcS0_(i8* %16, i8* %17)
  %18 = load %struct.lua_State** %1, align 4      ; [#uses=1]
  call void @_Z10lua_settopP9lua_Statei(%struct.lua_State* %18, i32 -2)
  br label %19

; <label>:19                                      ; preds = %15, %5, %0
  %20 = load i32* %2, align 4                     ; [#uses=1]
  ret i32 %20
}

; [#uses=1]
define internal i32 @_Z14handle_luainitP9lua_State(%struct.lua_State* %L) {
  %1 = alloca i32, align 4                        ; [#uses=4]
  %2 = alloca %struct.lua_State*, align 4         ; [#uses=3]
  %init = alloca i8*, align 4                     ; [#uses=5]
  store %struct.lua_State* %L, %struct.lua_State** %2, align 4
  %3 = call i8* @getenv(i8* getelementptr inbounds ([9 x i8]* @.str24, i32 0, i32 0)) nounwind ; [#uses=1]
  store i8* %3, i8** %init, align 4
  %4 = load i8** %init, align 4                   ; [#uses=1]
  %5 = icmp eq i8* %4, null                       ; [#uses=1]
  br i1 %5, label %6, label %7

; <label>:6                                       ; preds = %0
  store i32 0, i32* %1
  br label %22

; <label>:7                                       ; preds = %0
  %8 = load i8** %init, align 4                   ; [#uses=1]
  %9 = getelementptr inbounds i8* %8, i32 0       ; [#uses=1]
  %10 = load i8* %9                               ; [#uses=1]
  %11 = sext i8 %10 to i32                        ; [#uses=1]
  %12 = icmp eq i32 %11, 64                       ; [#uses=1]
  br i1 %12, label %13, label %18

; <label>:13                                      ; preds = %7
  %14 = load %struct.lua_State** %2, align 4      ; [#uses=1]
  %15 = load i8** %init, align 4                  ; [#uses=1]
  %16 = getelementptr inbounds i8* %15, i32 1     ; [#uses=1]
  %17 = call i32 @_Z6dofileP9lua_StatePKc(%struct.lua_State* %14, i8* %16) ; [#uses=1]
  store i32 %17, i32* %1
  br label %22

; <label>:18                                      ; preds = %7
  %19 = load %struct.lua_State** %2, align 4      ; [#uses=1]
  %20 = load i8** %init, align 4                  ; [#uses=1]
  %21 = call i32 @_Z8dostringP9lua_StatePKcS2_(%struct.lua_State* %19, i8* %20, i8* getelementptr inbounds ([10 x i8]* @.str25, i32 0, i32 0)) ; [#uses=1]
  store i32 %21, i32* %1
  br label %22

; <label>:22                                      ; preds = %18, %13, %6
  %23 = load i32* %1                              ; [#uses=1]
  ret i32 %23
}

; [#uses=1]
define internal i32 @_Z11collectargsPPcPiS1_S1_(i8** %argv, i32* %pi, i32* %pv, i32* %pe) nounwind {
  %1 = alloca i32, align 4                        ; [#uses=10]
  %2 = alloca i8**, align 4                       ; [#uses=10]
  %3 = alloca i32*, align 4                       ; [#uses=2]
  %4 = alloca i32*, align 4                       ; [#uses=2]
  %5 = alloca i32*, align 4                       ; [#uses=2]
  %i = alloca i32, align 4                        ; [#uses=17]
  store i8** %argv, i8*** %2, align 4
  store i32* %pi, i32** %3, align 4
  store i32* %pv, i32** %4, align 4
  store i32* %pe, i32** %5, align 4
  store i32 1, i32* %i, align 4
  br label %6

; <label>:6                                       ; preds = %104, %0
  %7 = load i32* %i, align 4                      ; [#uses=1]
  %8 = load i8*** %2, align 4                     ; [#uses=1]
  %9 = getelementptr inbounds i8** %8, i32 %7     ; [#uses=1]
  %10 = load i8** %9                              ; [#uses=1]
  %11 = icmp ne i8* %10, null                     ; [#uses=1]
  br i1 %11, label %12, label %107

; <label>:12                                      ; preds = %6
  %13 = load i32* %i, align 4                     ; [#uses=1]
  %14 = load i8*** %2, align 4                    ; [#uses=1]
  %15 = getelementptr inbounds i8** %14, i32 %13  ; [#uses=1]
  %16 = load i8** %15                             ; [#uses=1]
  %17 = getelementptr inbounds i8* %16, i32 0     ; [#uses=1]
  %18 = load i8* %17                              ; [#uses=1]
  %19 = sext i8 %18 to i32                        ; [#uses=1]
  %20 = icmp ne i32 %19, 45                       ; [#uses=1]
  br i1 %20, label %21, label %23

; <label>:21                                      ; preds = %12
  %22 = load i32* %i, align 4                     ; [#uses=1]
  store i32 %22, i32* %1
  br label %108

; <label>:23                                      ; preds = %12
  %24 = load i32* %i, align 4                     ; [#uses=1]
  %25 = load i8*** %2, align 4                    ; [#uses=1]
  %26 = getelementptr inbounds i8** %25, i32 %24  ; [#uses=1]
  %27 = load i8** %26                             ; [#uses=1]
  %28 = getelementptr inbounds i8* %27, i32 1     ; [#uses=1]
  %29 = load i8* %28                              ; [#uses=1]
  %30 = sext i8 %29 to i32                        ; [#uses=1]
  switch i32 %30, label %102 [
    i32 45, label %31
    i32 0, label %54
    i32 105, label %56
    i32 118, label %68
    i32 101, label %80
    i32 108, label %82
  ]

; <label>:31                                      ; preds = %23
  %32 = load i32* %i, align 4                     ; [#uses=1]
  %33 = load i8*** %2, align 4                    ; [#uses=1]
  %34 = getelementptr inbounds i8** %33, i32 %32  ; [#uses=1]
  %35 = load i8** %34                             ; [#uses=1]
  %36 = getelementptr inbounds i8* %35, i32 2     ; [#uses=1]
  %37 = load i8* %36                              ; [#uses=1]
  %38 = sext i8 %37 to i32                        ; [#uses=1]
  %39 = icmp ne i32 %38, 0                        ; [#uses=1]
  br i1 %39, label %40, label %41

; <label>:40                                      ; preds = %31
  store i32 -1, i32* %1
  br label %108

; <label>:41                                      ; preds = %31
  %42 = load i32* %i, align 4                     ; [#uses=1]
  %43 = add nsw i32 %42, 1                        ; [#uses=1]
  %44 = load i8*** %2, align 4                    ; [#uses=1]
  %45 = getelementptr inbounds i8** %44, i32 %43  ; [#uses=1]
  %46 = load i8** %45                             ; [#uses=1]
  %47 = icmp ne i8* %46, null                     ; [#uses=1]
  br i1 %47, label %48, label %51

; <label>:48                                      ; preds = %41
  %49 = load i32* %i, align 4                     ; [#uses=1]
  %50 = add nsw i32 %49, 1                        ; [#uses=1]
  br label %52

; <label>:51                                      ; preds = %41
  br label %52

; <label>:52                                      ; preds = %51, %48
  %53 = phi i32 [ %50, %48 ], [ 0, %51 ]          ; [#uses=1]
  store i32 %53, i32* %1
  br label %108

; <label>:54                                      ; preds = %23
  %55 = load i32* %i, align 4                     ; [#uses=1]
  store i32 %55, i32* %1
  br label %108

; <label>:56                                      ; preds = %23
  %57 = load i32* %i, align 4                     ; [#uses=1]
  %58 = load i8*** %2, align 4                    ; [#uses=1]
  %59 = getelementptr inbounds i8** %58, i32 %57  ; [#uses=1]
  %60 = load i8** %59                             ; [#uses=1]
  %61 = getelementptr inbounds i8* %60, i32 2     ; [#uses=1]
  %62 = load i8* %61                              ; [#uses=1]
  %63 = sext i8 %62 to i32                        ; [#uses=1]
  %64 = icmp ne i32 %63, 0                        ; [#uses=1]
  br i1 %64, label %65, label %66

; <label>:65                                      ; preds = %56
  store i32 -1, i32* %1
  br label %108

; <label>:66                                      ; preds = %56
  %67 = load i32** %3, align 4                    ; [#uses=1]
  store i32 1, i32* %67
  br label %68

; <label>:68                                      ; preds = %66, %23
  %69 = load i32* %i, align 4                     ; [#uses=1]
  %70 = load i8*** %2, align 4                    ; [#uses=1]
  %71 = getelementptr inbounds i8** %70, i32 %69  ; [#uses=1]
  %72 = load i8** %71                             ; [#uses=1]
  %73 = getelementptr inbounds i8* %72, i32 2     ; [#uses=1]
  %74 = load i8* %73                              ; [#uses=1]
  %75 = sext i8 %74 to i32                        ; [#uses=1]
  %76 = icmp ne i32 %75, 0                        ; [#uses=1]
  br i1 %76, label %77, label %78

; <label>:77                                      ; preds = %68
  store i32 -1, i32* %1
  br label %108

; <label>:78                                      ; preds = %68
  %79 = load i32** %4, align 4                    ; [#uses=1]
  store i32 1, i32* %79
  br label %103

; <label>:80                                      ; preds = %23
  %81 = load i32** %5, align 4                    ; [#uses=1]
  store i32 1, i32* %81
  br label %82

; <label>:82                                      ; preds = %80, %23
  %83 = load i32* %i, align 4                     ; [#uses=1]
  %84 = load i8*** %2, align 4                    ; [#uses=1]
  %85 = getelementptr inbounds i8** %84, i32 %83  ; [#uses=1]
  %86 = load i8** %85                             ; [#uses=1]
  %87 = getelementptr inbounds i8* %86, i32 2     ; [#uses=1]
  %88 = load i8* %87                              ; [#uses=1]
  %89 = sext i8 %88 to i32                        ; [#uses=1]
  %90 = icmp eq i32 %89, 0                        ; [#uses=1]
  br i1 %90, label %91, label %101

; <label>:91                                      ; preds = %82
  %92 = load i32* %i, align 4                     ; [#uses=1]
  %93 = add nsw i32 %92, 1                        ; [#uses=1]
  store i32 %93, i32* %i, align 4
  %94 = load i32* %i, align 4                     ; [#uses=1]
  %95 = load i8*** %2, align 4                    ; [#uses=1]
  %96 = getelementptr inbounds i8** %95, i32 %94  ; [#uses=1]
  %97 = load i8** %96                             ; [#uses=1]
  %98 = icmp eq i8* %97, null                     ; [#uses=1]
  br i1 %98, label %99, label %100

; <label>:99                                      ; preds = %91
  store i32 -1, i32* %1
  br label %108

; <label>:100                                     ; preds = %91
  br label %101

; <label>:101                                     ; preds = %100, %82
  br label %103

; <label>:102                                     ; preds = %23
  store i32 -1, i32* %1
  br label %108

; <label>:103                                     ; preds = %101, %78
  br label %104

; <label>:104                                     ; preds = %103
  %105 = load i32* %i, align 4                    ; [#uses=1]
  %106 = add nsw i32 %105, 1                      ; [#uses=1]
  store i32 %106, i32* %i, align 4
  br label %6

; <label>:107                                     ; preds = %6
  store i32 0, i32* %1
  br label %108

; <label>:108                                     ; preds = %107, %102, %99, %77, %65, %54, %52, %40, %21
  %109 = load i32* %1                             ; [#uses=1]
  ret i32 %109
}

; [#uses=1]
define internal void @_Z11print_usagev() {
  %1 = load %struct._IO_FILE** @stderr, align 4   ; [#uses=1]
  %2 = load i8** @_ZL8progname, align 4           ; [#uses=1]
  %3 = call i32 (%struct._IO_FILE*, i8*, ...)* @fprintf(%struct._IO_FILE* %1, i8* getelementptr inbounds ([307 x i8]* @.str23, i32 0, i32 0), i8* %2) ; [#uses=0]
  %4 = load %struct._IO_FILE** @stderr, align 4   ; [#uses=1]
  %5 = call i32 @fflush(%struct._IO_FILE* %4)     ; [#uses=0]
  ret void
}

; [#uses=2]
define internal void @_Z13print_versionv() {
  call void @_Z9l_messagePKcS0_(i8* null, i8* getelementptr inbounds ([52 x i8]* @.str22, i32 0, i32 0))
  ret void
}

; [#uses=1]
define internal i32 @_Z7runargsP9lua_StatePPci(%struct.lua_State* %L, i8** %argv, i32 %n) {
  %1 = alloca i32, align 4                        ; [#uses=4]
  %2 = alloca %struct.lua_State*, align 4         ; [#uses=3]
  %3 = alloca i8**, align 4                       ; [#uses=7]
  %4 = alloca i32, align 4                        ; [#uses=2]
  %i = alloca i32, align 4                        ; [#uses=12]
  %chunk = alloca i8*, align 4                    ; [#uses=4]
  %filename = alloca i8*, align 4                 ; [#uses=4]
  store %struct.lua_State* %L, %struct.lua_State** %2, align 4
  store i8** %argv, i8*** %3, align 4
  store i32 %n, i32* %4, align 4
  store i32 1, i32* %i, align 4
  br label %5

; <label>:5                                       ; preds = %72, %0
  %6 = load i32* %i, align 4                      ; [#uses=1]
  %7 = load i32* %4, align 4                      ; [#uses=1]
  %8 = icmp slt i32 %6, %7                        ; [#uses=1]
  br i1 %8, label %9, label %75

; <label>:9                                       ; preds = %5
  %10 = load i32* %i, align 4                     ; [#uses=1]
  %11 = load i8*** %3, align 4                    ; [#uses=1]
  %12 = getelementptr inbounds i8** %11, i32 %10  ; [#uses=1]
  %13 = load i8** %12                             ; [#uses=1]
  %14 = icmp eq i8* %13, null                     ; [#uses=1]
  br i1 %14, label %15, label %16

; <label>:15                                      ; preds = %9
  br label %72

; <label>:16                                      ; preds = %9
  %17 = load i32* %i, align 4                     ; [#uses=1]
  %18 = load i8*** %3, align 4                    ; [#uses=1]
  %19 = getelementptr inbounds i8** %18, i32 %17  ; [#uses=1]
  %20 = load i8** %19                             ; [#uses=1]
  %21 = getelementptr inbounds i8* %20, i32 1     ; [#uses=1]
  %22 = load i8* %21                              ; [#uses=1]
  %23 = sext i8 %22 to i32                        ; [#uses=1]
  switch i32 %23, label %70 [
    i32 101, label %24
    i32 108, label %47
  ]

; <label>:24                                      ; preds = %16
  %25 = load i32* %i, align 4                     ; [#uses=1]
  %26 = load i8*** %3, align 4                    ; [#uses=1]
  %27 = getelementptr inbounds i8** %26, i32 %25  ; [#uses=1]
  %28 = load i8** %27                             ; [#uses=1]
  %29 = getelementptr inbounds i8* %28, i32 2     ; [#uses=1]
  store i8* %29, i8** %chunk, align 4
  %30 = load i8** %chunk, align 4                 ; [#uses=1]
  %31 = load i8* %30                              ; [#uses=1]
  %32 = sext i8 %31 to i32                        ; [#uses=1]
  %33 = icmp eq i32 %32, 0                        ; [#uses=1]
  br i1 %33, label %34, label %40

; <label>:34                                      ; preds = %24
  %35 = load i32* %i, align 4                     ; [#uses=1]
  %36 = add nsw i32 %35, 1                        ; [#uses=2]
  store i32 %36, i32* %i, align 4
  %37 = load i8*** %3, align 4                    ; [#uses=1]
  %38 = getelementptr inbounds i8** %37, i32 %36  ; [#uses=1]
  %39 = load i8** %38                             ; [#uses=1]
  store i8* %39, i8** %chunk, align 4
  br label %40

; <label>:40                                      ; preds = %34, %24
  %41 = load %struct.lua_State** %2, align 4      ; [#uses=1]
  %42 = load i8** %chunk, align 4                 ; [#uses=1]
  %43 = call i32 @_Z8dostringP9lua_StatePKcS2_(%struct.lua_State* %41, i8* %42, i8* getelementptr inbounds ([16 x i8]* @.str20, i32 0, i32 0)) ; [#uses=1]
  %44 = icmp ne i32 %43, 0                        ; [#uses=1]
  br i1 %44, label %45, label %46

; <label>:45                                      ; preds = %40
  store i32 1, i32* %1
  br label %76

; <label>:46                                      ; preds = %40
  br label %71

; <label>:47                                      ; preds = %16
  %48 = load i32* %i, align 4                     ; [#uses=1]
  %49 = load i8*** %3, align 4                    ; [#uses=1]
  %50 = getelementptr inbounds i8** %49, i32 %48  ; [#uses=1]
  %51 = load i8** %50                             ; [#uses=1]
  %52 = getelementptr inbounds i8* %51, i32 2     ; [#uses=1]
  store i8* %52, i8** %filename, align 4
  %53 = load i8** %filename, align 4              ; [#uses=1]
  %54 = load i8* %53                              ; [#uses=1]
  %55 = sext i8 %54 to i32                        ; [#uses=1]
  %56 = icmp eq i32 %55, 0                        ; [#uses=1]
  br i1 %56, label %57, label %63

; <label>:57                                      ; preds = %47
  %58 = load i32* %i, align 4                     ; [#uses=1]
  %59 = add nsw i32 %58, 1                        ; [#uses=2]
  store i32 %59, i32* %i, align 4
  %60 = load i8*** %3, align 4                    ; [#uses=1]
  %61 = getelementptr inbounds i8** %60, i32 %59  ; [#uses=1]
  %62 = load i8** %61                             ; [#uses=1]
  store i8* %62, i8** %filename, align 4
  br label %63

; <label>:63                                      ; preds = %57, %47
  %64 = load %struct.lua_State** %2, align 4      ; [#uses=1]
  %65 = load i8** %filename, align 4              ; [#uses=1]
  %66 = call i32 @_Z9dolibraryP9lua_StatePKc(%struct.lua_State* %64, i8* %65) ; [#uses=1]
  %67 = icmp ne i32 %66, 0                        ; [#uses=1]
  br i1 %67, label %68, label %69

; <label>:68                                      ; preds = %63
  store i32 1, i32* %1
  br label %76

; <label>:69                                      ; preds = %63
  br label %71

; <label>:70                                      ; preds = %16
  br label %71

; <label>:71                                      ; preds = %70, %69, %46
  br label %72

; <label>:72                                      ; preds = %71, %15
  %73 = load i32* %i, align 4                     ; [#uses=1]
  %74 = add nsw i32 %73, 1                        ; [#uses=1]
  store i32 %74, i32* %i, align 4
  br label %5

; <label>:75                                      ; preds = %5
  store i32 0, i32* %1
  br label %76

; <label>:76                                      ; preds = %75, %68, %45
  %77 = load i32* %1                              ; [#uses=1]
  ret i32 %77
}

; [#uses=1]
define internal i32 @_Z13handle_scriptP9lua_StatePPci(%struct.lua_State* %L, i8** %argv, i32 %n) {
  %1 = alloca %struct.lua_State*, align 4         ; [#uses=8]
  %2 = alloca i8**, align 4                       ; [#uses=4]
  %3 = alloca i32, align 4                        ; [#uses=4]
  %status = alloca i32, align 4                   ; [#uses=4]
  %fname = alloca i8*, align 4                    ; [#uses=4]
  %narg = alloca i32, align 4                     ; [#uses=4]
  store %struct.lua_State* %L, %struct.lua_State** %1, align 4
  store i8** %argv, i8*** %2, align 4
  store i32 %n, i32* %3, align 4
  %4 = load %struct.lua_State** %1, align 4       ; [#uses=1]
  %5 = load i8*** %2, align 4                     ; [#uses=1]
  %6 = load i32* %3, align 4                      ; [#uses=1]
  %7 = call i32 @_Z7getargsP9lua_StatePPci(%struct.lua_State* %4, i8** %5, i32 %6) ; [#uses=1]
  store i32 %7, i32* %narg, align 4
  %8 = load %struct.lua_State** %1, align 4       ; [#uses=1]
  call void @_Z12lua_setfieldP9lua_StateiPKc(%struct.lua_State* %8, i32 -10002, i8* getelementptr inbounds ([4 x i8]* @.str16, i32 0, i32 0))
  %9 = load i32* %3, align 4                      ; [#uses=1]
  %10 = load i8*** %2, align 4                    ; [#uses=1]
  %11 = getelementptr inbounds i8** %10, i32 %9   ; [#uses=1]
  %12 = load i8** %11                             ; [#uses=1]
  store i8* %12, i8** %fname, align 4
  %13 = load i8** %fname, align 4                 ; [#uses=1]
  %14 = call i32 @strcmp(i8* %13, i8* getelementptr inbounds ([2 x i8]* @.str17, i32 0, i32 0)) nounwind readonly ; [#uses=1]
  %15 = icmp eq i32 %14, 0                        ; [#uses=1]
  br i1 %15, label %16, label %25

; <label>:16                                      ; preds = %0
  %17 = load i32* %3, align 4                     ; [#uses=1]
  %18 = sub nsw i32 %17, 1                        ; [#uses=1]
  %19 = load i8*** %2, align 4                    ; [#uses=1]
  %20 = getelementptr inbounds i8** %19, i32 %18  ; [#uses=1]
  %21 = load i8** %20                             ; [#uses=1]
  %22 = call i32 @strcmp(i8* %21, i8* getelementptr inbounds ([3 x i8]* @.str18, i32 0, i32 0)) nounwind readonly ; [#uses=1]
  %23 = icmp ne i32 %22, 0                        ; [#uses=1]
  br i1 %23, label %24, label %25

; <label>:24                                      ; preds = %16
  store i8* null, i8** %fname, align 4
  br label %25

; <label>:25                                      ; preds = %24, %16, %0
  %26 = load %struct.lua_State** %1, align 4      ; [#uses=1]
  %27 = load i8** %fname, align 4                 ; [#uses=1]
  %28 = call i32 @_Z13luaL_loadfileP9lua_StatePKc(%struct.lua_State* %26, i8* %27) ; [#uses=1]
  store i32 %28, i32* %status, align 4
  %29 = load %struct.lua_State** %1, align 4      ; [#uses=1]
  %30 = load i32* %narg, align 4                  ; [#uses=1]
  %31 = add nsw i32 %30, 1                        ; [#uses=1]
  %32 = sub nsw i32 0, %31                        ; [#uses=1]
  call void @_Z10lua_insertP9lua_Statei(%struct.lua_State* %29, i32 %32)
  %33 = load i32* %status, align 4                ; [#uses=1]
  %34 = icmp eq i32 %33, 0                        ; [#uses=1]
  br i1 %34, label %35, label %39

; <label>:35                                      ; preds = %25
  %36 = load %struct.lua_State** %1, align 4      ; [#uses=1]
  %37 = load i32* %narg, align 4                  ; [#uses=1]
  %38 = call i32 @_Z6docallP9lua_Stateii(%struct.lua_State* %36, i32 %37, i32 0) ; [#uses=1]
  store i32 %38, i32* %status, align 4
  br label %44

; <label>:39                                      ; preds = %25
  %40 = load %struct.lua_State** %1, align 4      ; [#uses=1]
  %41 = load i32* %narg, align 4                  ; [#uses=1]
  %42 = sub nsw i32 0, %41                        ; [#uses=1]
  %43 = sub nsw i32 %42, 1                        ; [#uses=1]
  call void @_Z10lua_settopP9lua_Statei(%struct.lua_State* %40, i32 %43)
  br label %44

; <label>:44                                      ; preds = %39, %35
  %45 = load %struct.lua_State** %1, align 4      ; [#uses=1]
  %46 = load i32* %status, align 4                ; [#uses=1]
  %47 = call i32 @_Z6reportP9lua_Statei(%struct.lua_State* %45, i32 %46) ; [#uses=1]
  ret i32 %47
}

; [#uses=2]
define internal void @_Z5dottyP9lua_State(%struct.lua_State* %L) {
  %1 = alloca %struct.lua_State*, align 4         ; [#uses=12]
  %status = alloca i32, align 4                   ; [#uses=5]
  %oldprogname = alloca i8*, align 4              ; [#uses=2]
  store %struct.lua_State* %L, %struct.lua_State** %1, align 4
  %2 = load i8** @_ZL8progname, align 4           ; [#uses=1]
  store i8* %2, i8** %oldprogname, align 4
  store i8* null, i8** @_ZL8progname, align 4
  br label %3

; <label>:3                                       ; preds = %39, %0
  %4 = load %struct.lua_State** %1, align 4       ; [#uses=1]
  %5 = call i32 @_Z8loadlineP9lua_State(%struct.lua_State* %4) ; [#uses=2]
  store i32 %5, i32* %status, align 4
  %6 = icmp ne i32 %5, -1                         ; [#uses=1]
  br i1 %6, label %7, label %40

; <label>:7                                       ; preds = %3
  %8 = load i32* %status, align 4                 ; [#uses=1]
  %9 = icmp eq i32 %8, 0                          ; [#uses=1]
  br i1 %9, label %10, label %13

; <label>:10                                      ; preds = %7
  %11 = load %struct.lua_State** %1, align 4      ; [#uses=1]
  %12 = call i32 @_Z6docallP9lua_Stateii(%struct.lua_State* %11, i32 0, i32 0) ; [#uses=1]
  store i32 %12, i32* %status, align 4
  br label %13

; <label>:13                                      ; preds = %10, %7
  %14 = load %struct.lua_State** %1, align 4      ; [#uses=1]
  %15 = load i32* %status, align 4                ; [#uses=1]
  %16 = call i32 @_Z6reportP9lua_Statei(%struct.lua_State* %14, i32 %15) ; [#uses=0]
  %17 = load i32* %status, align 4                ; [#uses=1]
  %18 = icmp eq i32 %17, 0                        ; [#uses=1]
  br i1 %18, label %19, label %39

; <label>:19                                      ; preds = %13
  %20 = load %struct.lua_State** %1, align 4      ; [#uses=1]
  %21 = call i32 @_Z10lua_gettopP9lua_State(%struct.lua_State* %20) ; [#uses=1]
  %22 = icmp sgt i32 %21, 0                       ; [#uses=1]
  br i1 %22, label %23, label %39

; <label>:23                                      ; preds = %19
  %24 = load %struct.lua_State** %1, align 4      ; [#uses=1]
  call void @_Z12lua_getfieldP9lua_StateiPKc(%struct.lua_State* %24, i32 -10002, i8* getelementptr inbounds ([6 x i8]* @.str3, i32 0, i32 0))
  %25 = load %struct.lua_State** %1, align 4      ; [#uses=1]
  call void @_Z10lua_insertP9lua_Statei(%struct.lua_State* %25, i32 1)
  %26 = load %struct.lua_State** %1, align 4      ; [#uses=1]
  %27 = load %struct.lua_State** %1, align 4      ; [#uses=1]
  %28 = call i32 @_Z10lua_gettopP9lua_State(%struct.lua_State* %27) ; [#uses=1]
  %29 = sub nsw i32 %28, 1                        ; [#uses=1]
  %30 = call i32 @_Z9lua_pcallP9lua_Stateiii(%struct.lua_State* %26, i32 %29, i32 0, i32 0) ; [#uses=1]
  %31 = icmp ne i32 %30, 0                        ; [#uses=1]
  br i1 %31, label %32, label %38

; <label>:32                                      ; preds = %23
  %33 = load i8** @_ZL8progname, align 4          ; [#uses=1]
  %34 = load %struct.lua_State** %1, align 4      ; [#uses=1]
  %35 = load %struct.lua_State** %1, align 4      ; [#uses=1]
  %36 = call i8* @_Z13lua_tolstringP9lua_StateiPj(%struct.lua_State* %35, i32 -1, i32* null) ; [#uses=1]
  %37 = call i8* (%struct.lua_State*, i8*, ...)* @_Z15lua_pushfstringP9lua_StatePKcz(%struct.lua_State* %34, i8* getelementptr inbounds ([27 x i8]* @.str4, i32 0, i32 0), i8* %36) ; [#uses=1]
  call void @_Z9l_messagePKcS0_(i8* %33, i8* %37)
  br label %38

; <label>:38                                      ; preds = %32, %23
  br label %39

; <label>:39                                      ; preds = %38, %19, %13
  br label %3

; <label>:40                                      ; preds = %3
  %41 = load %struct.lua_State** %1, align 4      ; [#uses=1]
  call void @_Z10lua_settopP9lua_Statei(%struct.lua_State* %41, i32 0)
  %42 = load %struct._IO_FILE** @stdout, align 4  ; [#uses=1]
  %43 = call i32 @fputs(i8* getelementptr inbounds ([2 x i8]* @.str5, i32 0, i32 0), %struct._IO_FILE* %42) ; [#uses=0]
  %44 = load %struct._IO_FILE** @stdout, align 4  ; [#uses=1]
  %45 = call i32 @fflush(%struct._IO_FILE* %44)   ; [#uses=0]
  %46 = load i8** %oldprogname, align 4           ; [#uses=1]
  store i8* %46, i8** @_ZL8progname, align 4
  ret void
}

; [#uses=1]
define internal i32 @_Z8loadlineP9lua_State(%struct.lua_State* %L) {
  %1 = alloca i32, align 4                        ; [#uses=4]
  %2 = alloca %struct.lua_State*, align 4         ; [#uses=12]
  %status = alloca i32, align 4                   ; [#uses=3]
  store %struct.lua_State* %L, %struct.lua_State** %2, align 4
  %3 = load %struct.lua_State** %2, align 4       ; [#uses=1]
  call void @_Z10lua_settopP9lua_Statei(%struct.lua_State* %3, i32 0)
  %4 = load %struct.lua_State** %2, align 4       ; [#uses=1]
  %5 = call i32 @_Z8pushlineP9lua_Statei(%struct.lua_State* %4, i32 1) ; [#uses=1]
  %6 = icmp ne i32 %5, 0                          ; [#uses=1]
  br i1 %6, label %8, label %7

; <label>:7                                       ; preds = %0
  store i32 -1, i32* %1
  br label %33

; <label>:8                                       ; preds = %0
  br label %9

; <label>:9                                       ; preds = %26, %8
  %10 = load %struct.lua_State** %2, align 4      ; [#uses=1]
  %11 = load %struct.lua_State** %2, align 4      ; [#uses=1]
  %12 = call i8* @_Z13lua_tolstringP9lua_StateiPj(%struct.lua_State* %11, i32 1, i32* null) ; [#uses=1]
  %13 = load %struct.lua_State** %2, align 4      ; [#uses=1]
  %14 = call i32 @_Z10lua_objlenP9lua_Statei(%struct.lua_State* %13, i32 1) ; [#uses=1]
  %15 = call i32 @_Z15luaL_loadbufferP9lua_StatePKcjS2_(%struct.lua_State* %10, i8* %12, i32 %14, i8* getelementptr inbounds ([7 x i8]* @.str9, i32 0, i32 0)) ; [#uses=1]
  store i32 %15, i32* %status, align 4
  %16 = load %struct.lua_State** %2, align 4      ; [#uses=1]
  %17 = load i32* %status, align 4                ; [#uses=1]
  %18 = call i32 @_Z10incompleteP9lua_Statei(%struct.lua_State* %16, i32 %17) ; [#uses=1]
  %19 = icmp ne i32 %18, 0                        ; [#uses=1]
  br i1 %19, label %21, label %20

; <label>:20                                      ; preds = %9
  br label %30

; <label>:21                                      ; preds = %9
  %22 = load %struct.lua_State** %2, align 4      ; [#uses=1]
  %23 = call i32 @_Z8pushlineP9lua_Statei(%struct.lua_State* %22, i32 0) ; [#uses=1]
  %24 = icmp ne i32 %23, 0                        ; [#uses=1]
  br i1 %24, label %26, label %25

; <label>:25                                      ; preds = %21
  store i32 -1, i32* %1
  br label %33

; <label>:26                                      ; preds = %21
  %27 = load %struct.lua_State** %2, align 4      ; [#uses=1]
  call void @_Z15lua_pushlstringP9lua_StatePKcj(%struct.lua_State* %27, i8* getelementptr inbounds ([2 x i8]* @.str5, i32 0, i32 0), i32 1)
  %28 = load %struct.lua_State** %2, align 4      ; [#uses=1]
  call void @_Z10lua_insertP9lua_Statei(%struct.lua_State* %28, i32 -2)
  %29 = load %struct.lua_State** %2, align 4      ; [#uses=1]
  call void @_Z10lua_concatP9lua_Statei(%struct.lua_State* %29, i32 3)
  br label %9

; <label>:30                                      ; preds = %20
  %31 = load %struct.lua_State** %2, align 4      ; [#uses=1]
  call void @_Z10lua_removeP9lua_Statei(%struct.lua_State* %31, i32 1)
  %32 = load i32* %status, align 4                ; [#uses=1]
  store i32 %32, i32* %1
  br label %33

; <label>:33                                      ; preds = %30, %25, %7
  %34 = load i32* %1                              ; [#uses=1]
  ret i32 %34
}

; [#uses=5]
define internal i32 @_Z6docallP9lua_Stateii(%struct.lua_State* %L, i32 %narg, i32 %clear) {
  %1 = alloca %struct.lua_State*, align 4         ; [#uses=7]
  %2 = alloca i32, align 4                        ; [#uses=3]
  %3 = alloca i32, align 4                        ; [#uses=2]
  %status = alloca i32, align 4                   ; [#uses=3]
  %base = alloca i32, align 4                     ; [#uses=4]
  store %struct.lua_State* %L, %struct.lua_State** %1, align 4
  store i32 %narg, i32* %2, align 4
  store i32 %clear, i32* %3, align 4
  %4 = load %struct.lua_State** %1, align 4       ; [#uses=1]
  %5 = call i32 @_Z10lua_gettopP9lua_State(%struct.lua_State* %4) ; [#uses=1]
  %6 = load i32* %2, align 4                      ; [#uses=1]
  %7 = sub nsw i32 %5, %6                         ; [#uses=1]
  store i32 %7, i32* %base, align 4
  %8 = load %struct.lua_State** %1, align 4       ; [#uses=1]
  call void @_Z16lua_pushcclosureP9lua_StatePFiS0_Ei(%struct.lua_State* %8, i32 (%struct.lua_State*)* @_Z9tracebackP9lua_State, i32 0)
  %9 = load %struct.lua_State** %1, align 4       ; [#uses=1]
  %10 = load i32* %base, align 4                  ; [#uses=1]
  call void @_Z10lua_insertP9lua_Statei(%struct.lua_State* %9, i32 %10)
  %11 = call void (i32)* (i32, void (i32)*)* @signal(i32 2, void (i32)* @_Z7lactioni) nounwind ; [#uses=0]
  %12 = load %struct.lua_State** %1, align 4      ; [#uses=1]
  %13 = load i32* %2, align 4                     ; [#uses=1]
  %14 = load i32* %3, align 4                     ; [#uses=1]
  %15 = icmp ne i32 %14, 0                        ; [#uses=1]
  br i1 %15, label %16, label %17

; <label>:16                                      ; preds = %0
  br label %18

; <label>:17                                      ; preds = %0
  br label %18

; <label>:18                                      ; preds = %17, %16
  %19 = phi i32 [ 0, %16 ], [ -1, %17 ]           ; [#uses=1]
  %20 = load i32* %base, align 4                  ; [#uses=1]
  %21 = call i32 @_Z9lua_pcallP9lua_Stateiii(%struct.lua_State* %12, i32 %13, i32 %19, i32 %20) ; [#uses=1]
  store i32 %21, i32* %status, align 4
  %22 = call void (i32)* (i32, void (i32)*)* @signal(i32 2, void (i32)* null) nounwind ; [#uses=0]
  %23 = load %struct.lua_State** %1, align 4      ; [#uses=1]
  %24 = load i32* %base, align 4                  ; [#uses=1]
  call void @_Z10lua_removeP9lua_Statei(%struct.lua_State* %23, i32 %24)
  %25 = load i32* %status, align 4                ; [#uses=1]
  %26 = icmp ne i32 %25, 0                        ; [#uses=1]
  br i1 %26, label %27, label %30

; <label>:27                                      ; preds = %18
  %28 = load %struct.lua_State** %1, align 4      ; [#uses=1]
  %29 = call i32 @_Z6lua_gcP9lua_Stateii(%struct.lua_State* %28, i32 2, i32 0) ; [#uses=0]
  br label %30

; <label>:30                                      ; preds = %27, %18
  %31 = load i32* %status, align 4                ; [#uses=1]
  ret i32 %31
}

; [#uses=8]
declare i32 @fputs(i8*, %struct._IO_FILE*)

; [#uses=6]
declare i32 @fflush(%struct._IO_FILE*)

; [#uses=1]
define internal i32 @_Z9tracebackP9lua_State(%struct.lua_State* %L) {
  %1 = alloca i32, align 4                        ; [#uses=5]
  %2 = alloca %struct.lua_State*, align 4         ; [#uses=11]
  store %struct.lua_State* %L, %struct.lua_State** %2, align 4
  %3 = load %struct.lua_State** %2, align 4       ; [#uses=1]
  %4 = call i32 @_Z12lua_isstringP9lua_Statei(%struct.lua_State* %3, i32 1) ; [#uses=1]
  %5 = icmp ne i32 %4, 0                          ; [#uses=1]
  br i1 %5, label %7, label %6

; <label>:6                                       ; preds = %0
  store i32 1, i32* %1
  br label %25

; <label>:7                                       ; preds = %0
  %8 = load %struct.lua_State** %2, align 4       ; [#uses=1]
  call void @_Z12lua_getfieldP9lua_StateiPKc(%struct.lua_State* %8, i32 -10002, i8* getelementptr inbounds ([6 x i8]* @.str7, i32 0, i32 0))
  %9 = load %struct.lua_State** %2, align 4       ; [#uses=1]
  %10 = call i32 @_Z8lua_typeP9lua_Statei(%struct.lua_State* %9, i32 -1) ; [#uses=1]
  %11 = icmp eq i32 %10, 5                        ; [#uses=1]
  br i1 %11, label %14, label %12

; <label>:12                                      ; preds = %7
  %13 = load %struct.lua_State** %2, align 4      ; [#uses=1]
  call void @_Z10lua_settopP9lua_Statei(%struct.lua_State* %13, i32 -2)
  store i32 1, i32* %1
  br label %25

; <label>:14                                      ; preds = %7
  %15 = load %struct.lua_State** %2, align 4      ; [#uses=1]
  call void @_Z12lua_getfieldP9lua_StateiPKc(%struct.lua_State* %15, i32 -1, i8* getelementptr inbounds ([10 x i8]* @.str8, i32 0, i32 0))
  %16 = load %struct.lua_State** %2, align 4      ; [#uses=1]
  %17 = call i32 @_Z8lua_typeP9lua_Statei(%struct.lua_State* %16, i32 -1) ; [#uses=1]
  %18 = icmp eq i32 %17, 6                        ; [#uses=1]
  br i1 %18, label %21, label %19

; <label>:19                                      ; preds = %14
  %20 = load %struct.lua_State** %2, align 4      ; [#uses=1]
  call void @_Z10lua_settopP9lua_Statei(%struct.lua_State* %20, i32 -3)
  store i32 1, i32* %1
  br label %25

; <label>:21                                      ; preds = %14
  %22 = load %struct.lua_State** %2, align 4      ; [#uses=1]
  call void @_Z13lua_pushvalueP9lua_Statei(%struct.lua_State* %22, i32 1)
  %23 = load %struct.lua_State** %2, align 4      ; [#uses=1]
  call void @_Z15lua_pushintegerP9lua_Statei(%struct.lua_State* %23, i32 2)
  %24 = load %struct.lua_State** %2, align 4      ; [#uses=1]
  call void @_Z8lua_callP9lua_Stateii(%struct.lua_State* %24, i32 2, i32 1)
  store i32 1, i32* %1
  br label %25

; <label>:25                                      ; preds = %21, %19, %12, %6
  %26 = load i32* %1                              ; [#uses=1]
  ret i32 %26
}

; [#uses=3]
declare void (i32)* @signal(i32, void (i32)*) nounwind

; [#uses=1]
define internal void @_Z7lactioni(i32 %i) {
  %1 = alloca i32, align 4                        ; [#uses=2]
  store i32 %i, i32* %1, align 4
  %2 = load i32* %1, align 4                      ; [#uses=1]
  %3 = call void (i32)* (i32, void (i32)*)* @signal(i32 %2, void (i32)* null) nounwind ; [#uses=0]
  %4 = load %struct.lua_State** @_ZL7globalL, align 4 ; [#uses=1]
  %5 = call i32 @_Z11lua_sethookP9lua_StatePFvS0_P9lua_DebugEii(%struct.lua_State* %4, void (%struct.lua_State*, %struct.lua_Debug*)* @_Z5lstopP9lua_StateP9lua_Debug, i32 11, i32 1) ; [#uses=0]
  ret void
}

; [#uses=1]
define internal void @_Z5lstopP9lua_StateP9lua_Debug(%struct.lua_State* %L, %struct.lua_Debug* %ar) {
  %1 = alloca %struct.lua_State*, align 4         ; [#uses=3]
  %2 = alloca %struct.lua_Debug*, align 4         ; [#uses=1]
  store %struct.lua_State* %L, %struct.lua_State** %1, align 4
  store %struct.lua_Debug* %ar, %struct.lua_Debug** %2, align 4
  %3 = load %struct.lua_State** %1, align 4       ; [#uses=1]
  %4 = call i32 @_Z11lua_sethookP9lua_StatePFvS0_P9lua_DebugEii(%struct.lua_State* %3, void (%struct.lua_State*, %struct.lua_Debug*)* null, i32 0, i32 0) ; [#uses=0]
  %5 = load %struct.lua_State** %1, align 4       ; [#uses=1]
  %6 = call i32 (%struct.lua_State*, i8*, ...)* @_Z10luaL_errorP9lua_StatePKcz(%struct.lua_State* %5, i8* getelementptr inbounds ([13 x i8]* @.str6, i32 0, i32 0)) ; [#uses=0]
  ret void
}

; [#uses=2]
define internal i32 @_Z8pushlineP9lua_Statei(%struct.lua_State* %L, i32 %firstline) {
  %1 = alloca i32, align 4                        ; [#uses=3]
  %2 = alloca %struct.lua_State*, align 4         ; [#uses=4]
  %3 = alloca i32, align 4                        ; [#uses=3]
  %buffer = alloca [512 x i8], align 1            ; [#uses=1]
  %b = alloca i8*, align 4                        ; [#uses=8]
  %l = alloca i32, align 4                        ; [#uses=4]
  %prmt = alloca i8*, align 4                     ; [#uses=2]
  store %struct.lua_State* %L, %struct.lua_State** %2, align 4
  store i32 %firstline, i32* %3, align 4
  %4 = getelementptr inbounds [512 x i8]* %buffer, i32 0, i32 0 ; [#uses=1]
  store i8* %4, i8** %b, align 4
  %5 = load %struct.lua_State** %2, align 4       ; [#uses=1]
  %6 = load i32* %3, align 4                      ; [#uses=1]
  %7 = call i8* @_Z10get_promptP9lua_Statei(%struct.lua_State* %5, i32 %6) ; [#uses=1]
  store i8* %7, i8** %prmt, align 4
  %8 = load i8** %prmt, align 4                   ; [#uses=1]
  %9 = load %struct._IO_FILE** @stdout, align 4   ; [#uses=1]
  %10 = call i32 @fputs(i8* %8, %struct._IO_FILE* %9) ; [#uses=0]
  %11 = load %struct._IO_FILE** @stdout, align 4  ; [#uses=1]
  %12 = call i32 @fflush(%struct._IO_FILE* %11)   ; [#uses=0]
  %13 = load i8** %b, align 4                     ; [#uses=1]
  %14 = load %struct._IO_FILE** @stdin, align 4   ; [#uses=1]
  %15 = call i8* @fgets(i8* %13, i32 512, %struct._IO_FILE* %14) ; [#uses=1]
  %16 = icmp ne i8* %15, null                     ; [#uses=1]
  %17 = zext i1 %16 to i32                        ; [#uses=1]
  %18 = icmp eq i32 %17, 0                        ; [#uses=1]
  br i1 %18, label %19, label %20

; <label>:19                                      ; preds = %0
  store i32 0, i32* %1
  br label %56

; <label>:20                                      ; preds = %0
  %21 = load i8** %b, align 4                     ; [#uses=1]
  %22 = call i32 @strlen(i8* %21)                 ; [#uses=1]
  store i32 %22, i32* %l, align 4
  %23 = load i32* %l, align 4                     ; [#uses=1]
  %24 = icmp ugt i32 %23, 0                       ; [#uses=1]
  br i1 %24, label %25, label %38

; <label>:25                                      ; preds = %20
  %26 = load i32* %l, align 4                     ; [#uses=1]
  %27 = sub i32 %26, 1                            ; [#uses=1]
  %28 = load i8** %b, align 4                     ; [#uses=1]
  %29 = getelementptr inbounds i8* %28, i32 %27   ; [#uses=1]
  %30 = load i8* %29                              ; [#uses=1]
  %31 = sext i8 %30 to i32                        ; [#uses=1]
  %32 = icmp eq i32 %31, 10                       ; [#uses=1]
  br i1 %32, label %33, label %38

; <label>:33                                      ; preds = %25
  %34 = load i32* %l, align 4                     ; [#uses=1]
  %35 = sub i32 %34, 1                            ; [#uses=1]
  %36 = load i8** %b, align 4                     ; [#uses=1]
  %37 = getelementptr inbounds i8* %36, i32 %35   ; [#uses=1]
  store i8 0, i8* %37
  br label %38

; <label>:38                                      ; preds = %33, %25, %20
  %39 = load i32* %3, align 4                     ; [#uses=1]
  %40 = icmp ne i32 %39, 0                        ; [#uses=1]
  br i1 %40, label %41, label %52

; <label>:41                                      ; preds = %38
  %42 = load i8** %b, align 4                     ; [#uses=1]
  %43 = getelementptr inbounds i8* %42, i32 0     ; [#uses=1]
  %44 = load i8* %43                              ; [#uses=1]
  %45 = sext i8 %44 to i32                        ; [#uses=1]
  %46 = icmp eq i32 %45, 61                       ; [#uses=1]
  br i1 %46, label %47, label %52

; <label>:47                                      ; preds = %41
  %48 = load %struct.lua_State** %2, align 4      ; [#uses=1]
  %49 = load i8** %b, align 4                     ; [#uses=1]
  %50 = getelementptr inbounds i8* %49, i32 1     ; [#uses=1]
  %51 = call i8* (%struct.lua_State*, i8*, ...)* @_Z15lua_pushfstringP9lua_StatePKcz(%struct.lua_State* %48, i8* getelementptr inbounds ([10 x i8]* @.str11, i32 0, i32 0), i8* %50) ; [#uses=0]
  br label %55

; <label>:52                                      ; preds = %41, %38
  %53 = load %struct.lua_State** %2, align 4      ; [#uses=1]
  %54 = load i8** %b, align 4                     ; [#uses=1]
  call void @_Z14lua_pushstringP9lua_StatePKc(%struct.lua_State* %53, i8* %54)
  br label %55

; <label>:55                                      ; preds = %52, %47
  store i32 1, i32* %1
  br label %56

; <label>:56                                      ; preds = %55, %19
  %57 = load i32* %1                              ; [#uses=1]
  ret i32 %57
}

; [#uses=1]
define internal i32 @_Z10incompleteP9lua_Statei(%struct.lua_State* %L, i32 %status) {
  %1 = alloca i32, align 4                        ; [#uses=3]
  %2 = alloca %struct.lua_State*, align 4         ; [#uses=3]
  %3 = alloca i32, align 4                        ; [#uses=2]
  %lmsg = alloca i32, align 4                     ; [#uses=2]
  %msg = alloca i8*, align 4                      ; [#uses=3]
  %tp = alloca i8*, align 4                       ; [#uses=2]
  store %struct.lua_State* %L, %struct.lua_State** %2, align 4
  store i32 %status, i32* %3, align 4
  %4 = load i32* %3, align 4                      ; [#uses=1]
  %5 = icmp eq i32 %4, 3                          ; [#uses=1]
  br i1 %5, label %6, label %20

; <label>:6                                       ; preds = %0
  %7 = load %struct.lua_State** %2, align 4       ; [#uses=1]
  %8 = call i8* @_Z13lua_tolstringP9lua_StateiPj(%struct.lua_State* %7, i32 -1, i32* %lmsg) ; [#uses=1]
  store i8* %8, i8** %msg, align 4
  %9 = load i8** %msg, align 4                    ; [#uses=1]
  %10 = load i32* %lmsg, align 4                  ; [#uses=1]
  %11 = getelementptr inbounds i8* %9, i32 %10    ; [#uses=1]
  %12 = getelementptr inbounds i8* %11, i32 -7    ; [#uses=1]
  store i8* %12, i8** %tp, align 4
  %13 = load i8** %msg, align 4                   ; [#uses=1]
  %14 = call i8* @strstr(i8* %13, i8* getelementptr inbounds ([8 x i8]* @.str10, i32 0, i32 0)) ; [#uses=1]
  %15 = load i8** %tp, align 4                    ; [#uses=1]
  %16 = icmp eq i8* %14, %15                      ; [#uses=1]
  br i1 %16, label %17, label %19

; <label>:17                                      ; preds = %6
  %18 = load %struct.lua_State** %2, align 4      ; [#uses=1]
  call void @_Z10lua_settopP9lua_Statei(%struct.lua_State* %18, i32 -2)
  store i32 1, i32* %1
  br label %21

; <label>:19                                      ; preds = %6
  br label %20

; <label>:20                                      ; preds = %19, %0
  store i32 0, i32* %1
  br label %21

; <label>:21                                      ; preds = %20, %17
  %22 = load i32* %1                              ; [#uses=1]
  ret i32 %22
}

; [#uses=2]
declare i8* @strstr(i8*, i8*) nounwind readonly

; [#uses=1]
define internal i8* @_Z10get_promptP9lua_Statei(%struct.lua_State* %L, i32 %firstline) {
  %1 = alloca %struct.lua_State*, align 4         ; [#uses=4]
  %2 = alloca i32, align 4                        ; [#uses=3]
  %p = alloca i8*, align 4                        ; [#uses=4]
  store %struct.lua_State* %L, %struct.lua_State** %1, align 4
  store i32 %firstline, i32* %2, align 4
  %3 = load %struct.lua_State** %1, align 4       ; [#uses=1]
  %4 = load i32* %2, align 4                      ; [#uses=1]
  %5 = icmp ne i32 %4, 0                          ; [#uses=1]
  br i1 %5, label %6, label %7

; <label>:6                                       ; preds = %0
  br label %8

; <label>:7                                       ; preds = %0
  br label %8

; <label>:8                                       ; preds = %7, %6
  %9 = phi i8* [ getelementptr inbounds ([8 x i8]* @.str12, i32 0, i32 0), %6 ], [ getelementptr inbounds ([9 x i8]* @.str13, i32 0, i32 0), %7 ] ; [#uses=1]
  call void @_Z12lua_getfieldP9lua_StateiPKc(%struct.lua_State* %3, i32 -10002, i8* %9)
  %10 = load %struct.lua_State** %1, align 4      ; [#uses=1]
  %11 = call i8* @_Z13lua_tolstringP9lua_StateiPj(%struct.lua_State* %10, i32 -1, i32* null) ; [#uses=1]
  store i8* %11, i8** %p, align 4
  %12 = load i8** %p, align 4                     ; [#uses=1]
  %13 = icmp eq i8* %12, null                     ; [#uses=1]
  br i1 %13, label %14, label %21

; <label>:14                                      ; preds = %8
  %15 = load i32* %2, align 4                     ; [#uses=1]
  %16 = icmp ne i32 %15, 0                        ; [#uses=1]
  br i1 %16, label %17, label %18

; <label>:17                                      ; preds = %14
  br label %19

; <label>:18                                      ; preds = %14
  br label %19

; <label>:19                                      ; preds = %18, %17
  %20 = phi i8* [ getelementptr inbounds ([3 x i8]* @.str14, i32 0, i32 0), %17 ], [ getelementptr inbounds ([4 x i8]* @.str15, i32 0, i32 0), %18 ] ; [#uses=1]
  store i8* %20, i8** %p, align 4
  br label %21

; <label>:21                                      ; preds = %19, %8
  %22 = load %struct.lua_State** %1, align 4      ; [#uses=1]
  call void @_Z10lua_settopP9lua_Statei(%struct.lua_State* %22, i32 -2)
  %23 = load i8** %p, align 4                     ; [#uses=1]
  ret i8* %23
}

; [#uses=3]
declare i8* @fgets(i8*, i32, %struct._IO_FILE*)

; [#uses=23]
declare i32 @strlen(i8*) nounwind readonly

; [#uses=1]
define internal i32 @_Z7getargsP9lua_StatePPci(%struct.lua_State* %L, i8** %argv, i32 %n) {
  %1 = alloca %struct.lua_State*, align 4         ; [#uses=6]
  %2 = alloca i8**, align 4                       ; [#uses=4]
  %3 = alloca i32, align 4                        ; [#uses=5]
  %narg = alloca i32, align 4                     ; [#uses=4]
  %i = alloca i32, align 4                        ; [#uses=11]
  %argc = alloca i32, align 4                     ; [#uses=7]
  store %struct.lua_State* %L, %struct.lua_State** %1, align 4
  store i8** %argv, i8*** %2, align 4
  store i32 %n, i32* %3, align 4
  store i32 0, i32* %argc, align 4
  br label %4

; <label>:4                                       ; preds = %10, %0
  %5 = load i32* %argc, align 4                   ; [#uses=1]
  %6 = load i8*** %2, align 4                     ; [#uses=1]
  %7 = getelementptr inbounds i8** %6, i32 %5     ; [#uses=1]
  %8 = load i8** %7                               ; [#uses=1]
  %9 = icmp ne i8* %8, null                       ; [#uses=1]
  br i1 %9, label %10, label %13

; <label>:10                                      ; preds = %4
  %11 = load i32* %argc, align 4                  ; [#uses=1]
  %12 = add nsw i32 %11, 1                        ; [#uses=1]
  store i32 %12, i32* %argc, align 4
  br label %4

; <label>:13                                      ; preds = %4
  %14 = load i32* %argc, align 4                  ; [#uses=1]
  %15 = load i32* %3, align 4                     ; [#uses=1]
  %16 = add nsw i32 %15, 1                        ; [#uses=1]
  %17 = sub nsw i32 %14, %16                      ; [#uses=1]
  store i32 %17, i32* %narg, align 4
  %18 = load %struct.lua_State** %1, align 4      ; [#uses=1]
  %19 = load i32* %narg, align 4                  ; [#uses=1]
  %20 = add nsw i32 %19, 3                        ; [#uses=1]
  call void @_Z15luaL_checkstackP9lua_StateiPKc(%struct.lua_State* %18, i32 %20, i8* getelementptr inbounds ([29 x i8]* @.str19, i32 0, i32 0))
  %21 = load i32* %3, align 4                     ; [#uses=1]
  %22 = add nsw i32 %21, 1                        ; [#uses=1]
  store i32 %22, i32* %i, align 4
  br label %23

; <label>:23                                      ; preds = %33, %13
  %24 = load i32* %i, align 4                     ; [#uses=1]
  %25 = load i32* %argc, align 4                  ; [#uses=1]
  %26 = icmp slt i32 %24, %25                     ; [#uses=1]
  br i1 %26, label %27, label %36

; <label>:27                                      ; preds = %23
  %28 = load %struct.lua_State** %1, align 4      ; [#uses=1]
  %29 = load i32* %i, align 4                     ; [#uses=1]
  %30 = load i8*** %2, align 4                    ; [#uses=1]
  %31 = getelementptr inbounds i8** %30, i32 %29  ; [#uses=1]
  %32 = load i8** %31                             ; [#uses=1]
  call void @_Z14lua_pushstringP9lua_StatePKc(%struct.lua_State* %28, i8* %32)
  br label %33

; <label>:33                                      ; preds = %27
  %34 = load i32* %i, align 4                     ; [#uses=1]
  %35 = add nsw i32 %34, 1                        ; [#uses=1]
  store i32 %35, i32* %i, align 4
  br label %23

; <label>:36                                      ; preds = %23
  %37 = load %struct.lua_State** %1, align 4      ; [#uses=1]
  %38 = load i32* %narg, align 4                  ; [#uses=1]
  %39 = load i32* %3, align 4                     ; [#uses=1]
  %40 = add nsw i32 %39, 1                        ; [#uses=1]
  call void @_Z15lua_createtableP9lua_Stateii(%struct.lua_State* %37, i32 %38, i32 %40)
  store i32 0, i32* %i, align 4
  br label %41

; <label>:41                                      ; preds = %55, %36
  %42 = load i32* %i, align 4                     ; [#uses=1]
  %43 = load i32* %argc, align 4                  ; [#uses=1]
  %44 = icmp slt i32 %42, %43                     ; [#uses=1]
  br i1 %44, label %45, label %58

; <label>:45                                      ; preds = %41
  %46 = load %struct.lua_State** %1, align 4      ; [#uses=1]
  %47 = load i32* %i, align 4                     ; [#uses=1]
  %48 = load i8*** %2, align 4                    ; [#uses=1]
  %49 = getelementptr inbounds i8** %48, i32 %47  ; [#uses=1]
  %50 = load i8** %49                             ; [#uses=1]
  call void @_Z14lua_pushstringP9lua_StatePKc(%struct.lua_State* %46, i8* %50)
  %51 = load %struct.lua_State** %1, align 4      ; [#uses=1]
  %52 = load i32* %i, align 4                     ; [#uses=1]
  %53 = load i32* %3, align 4                     ; [#uses=1]
  %54 = sub nsw i32 %52, %53                      ; [#uses=1]
  call void @_Z11lua_rawsetiP9lua_Stateii(%struct.lua_State* %51, i32 -2, i32 %54)
  br label %55

; <label>:55                                      ; preds = %45
  %56 = load i32* %i, align 4                     ; [#uses=1]
  %57 = add nsw i32 %56, 1                        ; [#uses=1]
  store i32 %57, i32* %i, align 4
  br label %41

; <label>:58                                      ; preds = %41
  %59 = load i32* %narg, align 4                  ; [#uses=1]
  ret i32 %59
}

; [#uses=6]
declare i32 @strcmp(i8*, i8*) nounwind readonly

; [#uses=2]
define internal i32 @_Z8dostringP9lua_StatePKcS2_(%struct.lua_State* %L, i8* %s, i8* %name) {
; <label>:0
  %1 = alloca %struct.lua_State*, align 4         ; [#uses=4]
  %2 = alloca i8*, align 4                        ; [#uses=3]
  %3 = alloca i8*, align 4                        ; [#uses=2]
  %status = alloca i32, align 4                   ; [#uses=2]
  store %struct.lua_State* %L, %struct.lua_State** %1, align 4
  store i8* %s, i8** %2, align 4
  store i8* %name, i8** %3, align 4
  %4 = load %struct.lua_State** %1, align 4       ; [#uses=1]
  %5 = load i8** %2, align 4                      ; [#uses=1]
  %6 = load i8** %2, align 4                      ; [#uses=1]
  %7 = call i32 @strlen(i8* %6)                   ; [#uses=1]
  %8 = load i8** %3, align 4                      ; [#uses=1]
  %9 = call i32 @_Z15luaL_loadbufferP9lua_StatePKcjS2_(%struct.lua_State* %4, i8* %5, i32 %7, i8* %8) ; [#uses=1]
  %10 = icmp ne i32 %9, 0                         ; [#uses=1]
  br i1 %10, label %15, label %11

; <label>:11                                      ; preds = %0
  %12 = load %struct.lua_State** %1, align 4      ; [#uses=1]
  %13 = call i32 @_Z6docallP9lua_Stateii(%struct.lua_State* %12, i32 0, i32 1) ; [#uses=1]
  %14 = icmp ne i32 %13, 0                        ; [#uses=1]
  br label %15

; <label>:15                                      ; preds = %11, %0
  %16 = phi i1 [ true, %0 ], [ %14, %11 ]         ; [#uses=1]
  %17 = zext i1 %16 to i32                        ; [#uses=1]
  store i32 %17, i32* %status, align 4
  %18 = load %struct.lua_State** %1, align 4      ; [#uses=1]
  %19 = load i32* %status, align 4                ; [#uses=1]
  %20 = call i32 @_Z6reportP9lua_Statei(%struct.lua_State* %18, i32 %19) ; [#uses=1]
  ret i32 %20
}

; [#uses=1]
define internal i32 @_Z9dolibraryP9lua_StatePKc(%struct.lua_State* %L, i8* %name) {
  %1 = alloca %struct.lua_State*, align 4         ; [#uses=5]
  %2 = alloca i8*, align 4                        ; [#uses=2]
  store %struct.lua_State* %L, %struct.lua_State** %1, align 4
  store i8* %name, i8** %2, align 4
  %3 = load %struct.lua_State** %1, align 4       ; [#uses=1]
  call void @_Z12lua_getfieldP9lua_StateiPKc(%struct.lua_State* %3, i32 -10002, i8* getelementptr inbounds ([8 x i8]* @.str21, i32 0, i32 0))
  %4 = load %struct.lua_State** %1, align 4       ; [#uses=1]
  %5 = load i8** %2, align 4                      ; [#uses=1]
  call void @_Z14lua_pushstringP9lua_StatePKc(%struct.lua_State* %4, i8* %5)
  %6 = load %struct.lua_State** %1, align 4       ; [#uses=1]
  %7 = load %struct.lua_State** %1, align 4       ; [#uses=1]
  %8 = call i32 @_Z6docallP9lua_Stateii(%struct.lua_State* %7, i32 1, i32 1) ; [#uses=1]
  %9 = call i32 @_Z6reportP9lua_Statei(%struct.lua_State* %6, i32 %8) ; [#uses=1]
  ret i32 %9
}

; [#uses=5]
declare i32 @fprintf(%struct._IO_FILE*, i8*, ...)

; [#uses=3]
declare i8* @getenv(i8*) nounwind

; [#uses=1]
define internal i32 @_Z6dofileP9lua_StatePKc(%struct.lua_State* %L, i8* %name) {
; <label>:0
  %1 = alloca %struct.lua_State*, align 4         ; [#uses=4]
  %2 = alloca i8*, align 4                        ; [#uses=2]
  %status = alloca i32, align 4                   ; [#uses=2]
  store %struct.lua_State* %L, %struct.lua_State** %1, align 4
  store i8* %name, i8** %2, align 4
  %3 = load %struct.lua_State** %1, align 4       ; [#uses=1]
  %4 = load i8** %2, align 4                      ; [#uses=1]
  %5 = call i32 @_Z13luaL_loadfileP9lua_StatePKc(%struct.lua_State* %3, i8* %4) ; [#uses=1]
  %6 = icmp ne i32 %5, 0                          ; [#uses=1]
  br i1 %6, label %11, label %7

; <label>:7                                       ; preds = %0
  %8 = load %struct.lua_State** %1, align 4       ; [#uses=1]
  %9 = call i32 @_Z6docallP9lua_Stateii(%struct.lua_State* %8, i32 0, i32 1) ; [#uses=1]
  %10 = icmp ne i32 %9, 0                         ; [#uses=1]
  br label %11

; <label>:11                                      ; preds = %7, %0
  %12 = phi i1 [ true, %0 ], [ %10, %7 ]          ; [#uses=1]
  %13 = zext i1 %12 to i32                        ; [#uses=1]
  store i32 %13, i32* %status, align 4
  %14 = load %struct.lua_State** %1, align 4      ; [#uses=1]
  %15 = load i32* %status, align 4                ; [#uses=1]
  %16 = call i32 @_Z6reportP9lua_Statei(%struct.lua_State* %14, i32 %15) ; [#uses=1]
  ret i32 %16
}

; [#uses=1]
define hidden void @_Z15luaA_pushobjectP9lua_StatePK10lua_TValue(%struct.lua_State* %L, %struct.lua_TValue* %o) nounwind {
  %1 = alloca %struct.lua_State*, align 4         ; [#uses=3]
  %2 = alloca %struct.lua_TValue*, align 4        ; [#uses=2]
  %o2 = alloca %struct.lua_TValue*, align 4       ; [#uses=3]
  %o1 = alloca %struct.lua_TValue*, align 4       ; [#uses=3]
  store %struct.lua_State* %L, %struct.lua_State** %1, align 4
  store %struct.lua_TValue* %o, %struct.lua_TValue** %2, align 4
  %3 = load %struct.lua_TValue** %2, align 4      ; [#uses=1]
  store %struct.lua_TValue* %3, %struct.lua_TValue** %o2, align 4
  %4 = load %struct.lua_State** %1, align 4       ; [#uses=1]
  %5 = getelementptr inbounds %struct.lua_State* %4, i32 0, i32 4 ; [#uses=1]
  %6 = load %struct.lua_TValue** %5, align 4      ; [#uses=1]
  store %struct.lua_TValue* %6, %struct.lua_TValue** %o1, align 4
  %7 = load %struct.lua_TValue** %o1, align 4     ; [#uses=1]
  %8 = getelementptr inbounds %struct.lua_TValue* %7, i32 0, i32 0 ; [#uses=1]
  %9 = load %struct.lua_TValue** %o2, align 4     ; [#uses=1]
  %10 = getelementptr inbounds %struct.lua_TValue* %9, i32 0, i32 0 ; [#uses=1]
  %11 = bitcast %union.anon* %8 to i8*            ; [#uses=1]
  %12 = bitcast %union.anon* %10 to i8*           ; [#uses=1]
  call void @llvm.memcpy.p0i8.p0i8.i32(i8* %11, i8* %12, i32 8, i32 4, i1 false)
  %13 = load %struct.lua_TValue** %o2, align 4    ; [#uses=1]
  %14 = getelementptr inbounds %struct.lua_TValue* %13, i32 0, i32 1 ; [#uses=1]
  %15 = load i32* %14, align 4                    ; [#uses=1]
  %16 = load %struct.lua_TValue** %o1, align 4    ; [#uses=1]
  %17 = getelementptr inbounds %struct.lua_TValue* %16, i32 0, i32 1 ; [#uses=1]
  store i32 %15, i32* %17, align 4
  %18 = load %struct.lua_State** %1, align 4      ; [#uses=1]
  %19 = getelementptr inbounds %struct.lua_State* %18, i32 0, i32 4 ; [#uses=2]
  %20 = load %struct.lua_TValue** %19, align 4    ; [#uses=1]
  %21 = getelementptr inbounds %struct.lua_TValue* %20, i32 1 ; [#uses=1]
  store %struct.lua_TValue* %21, %struct.lua_TValue** %19, align 4
  ret void
}

; [#uses=68]
declare void @llvm.memcpy.p0i8.p0i8.i32(i8* nocapture, i8* nocapture, i32, i32, i1) nounwind

; [#uses=4]
define i32 @_Z14lua_checkstackP9lua_Statei(%struct.lua_State* %L, i32 %size) {
  %1 = alloca %struct.lua_State*, align 4         ; [#uses=10]
  %2 = alloca i32, align 4                        ; [#uses=8]
  %res = alloca i32, align 4                      ; [#uses=3]
  store %struct.lua_State* %L, %struct.lua_State** %1, align 4
  store i32 %size, i32* %2, align 4
  store i32 1, i32* %res, align 4
  %3 = load i32* %2, align 4                      ; [#uses=1]
  %4 = icmp sgt i32 %3, 8000                      ; [#uses=1]
  br i1 %4, label %19, label %5

; <label>:5                                       ; preds = %0
  %6 = load %struct.lua_State** %1, align 4       ; [#uses=1]
  %7 = getelementptr inbounds %struct.lua_State* %6, i32 0, i32 4 ; [#uses=1]
  %8 = load %struct.lua_TValue** %7, align 4      ; [#uses=1]
  %9 = load %struct.lua_State** %1, align 4       ; [#uses=1]
  %10 = getelementptr inbounds %struct.lua_State* %9, i32 0, i32 5 ; [#uses=1]
  %11 = load %struct.lua_TValue** %10, align 4    ; [#uses=1]
  %12 = ptrtoint %struct.lua_TValue* %8 to i32    ; [#uses=1]
  %13 = ptrtoint %struct.lua_TValue* %11 to i32   ; [#uses=1]
  %14 = sub i32 %12, %13                          ; [#uses=1]
  %15 = sdiv exact i32 %14, 12                    ; [#uses=1]
  %16 = load i32* %2, align 4                     ; [#uses=1]
  %17 = add nsw i32 %15, %16                      ; [#uses=1]
  %18 = icmp sgt i32 %17, 8000                    ; [#uses=1]
  br i1 %18, label %19, label %20

; <label>:19                                      ; preds = %5, %0
  store i32 0, i32* %res, align 4
  br label %66

; <label>:20                                      ; preds = %5
  %21 = load i32* %2, align 4                     ; [#uses=1]
  %22 = icmp sgt i32 %21, 0                       ; [#uses=1]
  br i1 %22, label %23, label %65

; <label>:23                                      ; preds = %20
  %24 = load %struct.lua_State** %1, align 4      ; [#uses=1]
  %25 = getelementptr inbounds %struct.lua_State* %24, i32 0, i32 9 ; [#uses=1]
  %26 = load %struct.lua_TValue** %25, align 4    ; [#uses=1]
  %27 = bitcast %struct.lua_TValue* %26 to i8*    ; [#uses=1]
  %28 = load %struct.lua_State** %1, align 4      ; [#uses=1]
  %29 = getelementptr inbounds %struct.lua_State* %28, i32 0, i32 4 ; [#uses=1]
  %30 = load %struct.lua_TValue** %29, align 4    ; [#uses=1]
  %31 = bitcast %struct.lua_TValue* %30 to i8*    ; [#uses=1]
  %32 = ptrtoint i8* %27 to i32                   ; [#uses=1]
  %33 = ptrtoint i8* %31 to i32                   ; [#uses=1]
  %34 = sub i32 %32, %33                          ; [#uses=1]
  %35 = load i32* %2, align 4                     ; [#uses=1]
  %36 = mul nsw i32 %35, 12                       ; [#uses=1]
  %37 = icmp sle i32 %34, %36                     ; [#uses=1]
  br i1 %37, label %38, label %41

; <label>:38                                      ; preds = %23
  %39 = load %struct.lua_State** %1, align 4      ; [#uses=1]
  %40 = load i32* %2, align 4                     ; [#uses=1]
  call void @_Z14luaD_growstackP9lua_Statei(%struct.lua_State* %39, i32 %40)
  br label %42

; <label>:41                                      ; preds = %23
  br label %42

; <label>:42                                      ; preds = %41, %38
  %43 = load %struct.lua_State** %1, align 4      ; [#uses=1]
  %44 = getelementptr inbounds %struct.lua_State* %43, i32 0, i32 7 ; [#uses=1]
  %45 = load %struct.CallInfo** %44, align 4      ; [#uses=1]
  %46 = getelementptr inbounds %struct.CallInfo* %45, i32 0, i32 2 ; [#uses=1]
  %47 = load %struct.lua_TValue** %46, align 4    ; [#uses=1]
  %48 = load %struct.lua_State** %1, align 4      ; [#uses=1]
  %49 = getelementptr inbounds %struct.lua_State* %48, i32 0, i32 4 ; [#uses=1]
  %50 = load %struct.lua_TValue** %49, align 4    ; [#uses=1]
  %51 = load i32* %2, align 4                     ; [#uses=1]
  %52 = getelementptr inbounds %struct.lua_TValue* %50, i32 %51 ; [#uses=1]
  %53 = icmp ult %struct.lua_TValue* %47, %52     ; [#uses=1]
  br i1 %53, label %54, label %64

; <label>:54                                      ; preds = %42
  %55 = load %struct.lua_State** %1, align 4      ; [#uses=1]
  %56 = getelementptr inbounds %struct.lua_State* %55, i32 0, i32 4 ; [#uses=1]
  %57 = load %struct.lua_TValue** %56, align 4    ; [#uses=1]
  %58 = load i32* %2, align 4                     ; [#uses=1]
  %59 = getelementptr inbounds %struct.lua_TValue* %57, i32 %58 ; [#uses=1]
  %60 = load %struct.lua_State** %1, align 4      ; [#uses=1]
  %61 = getelementptr inbounds %struct.lua_State* %60, i32 0, i32 7 ; [#uses=1]
  %62 = load %struct.CallInfo** %61, align 4      ; [#uses=1]
  %63 = getelementptr inbounds %struct.CallInfo* %62, i32 0, i32 2 ; [#uses=1]
  store %struct.lua_TValue* %59, %struct.lua_TValue** %63, align 4
  br label %64

; <label>:64                                      ; preds = %54, %42
  br label %65

; <label>:65                                      ; preds = %64, %20
  br label %66

; <label>:66                                      ; preds = %65, %19
  %67 = load i32* %res, align 4                   ; [#uses=1]
  ret i32 %67
}

; [#uses=8]
define void @_Z9lua_xmoveP9lua_StateS0_i(%struct.lua_State* %from, %struct.lua_State* %to, i32 %n) nounwind {
  %1 = alloca %struct.lua_State*, align 4         ; [#uses=4]
  %2 = alloca %struct.lua_State*, align 4         ; [#uses=3]
  %3 = alloca i32, align 4                        ; [#uses=3]
  %i = alloca i32, align 4                        ; [#uses=5]
  %o2 = alloca %struct.lua_TValue*, align 4       ; [#uses=3]
  %o1 = alloca %struct.lua_TValue*, align 4       ; [#uses=3]
  store %struct.lua_State* %from, %struct.lua_State** %1, align 4
  store %struct.lua_State* %to, %struct.lua_State** %2, align 4
  store i32 %n, i32* %3, align 4
  %4 = load %struct.lua_State** %1, align 4       ; [#uses=1]
  %5 = load %struct.lua_State** %2, align 4       ; [#uses=1]
  %6 = icmp eq %struct.lua_State* %4, %5          ; [#uses=1]
  br i1 %6, label %7, label %8

; <label>:7                                       ; preds = %0
  br label %43

; <label>:8                                       ; preds = %0
  %9 = load i32* %3, align 4                      ; [#uses=1]
  %10 = load %struct.lua_State** %1, align 4      ; [#uses=1]
  %11 = getelementptr inbounds %struct.lua_State* %10, i32 0, i32 4 ; [#uses=2]
  %12 = load %struct.lua_TValue** %11, align 4    ; [#uses=1]
  %13 = sub i32 0, %9                             ; [#uses=1]
  %14 = getelementptr inbounds %struct.lua_TValue* %12, i32 %13 ; [#uses=1]
  store %struct.lua_TValue* %14, %struct.lua_TValue** %11, align 4
  store i32 0, i32* %i, align 4
  br label %15

; <label>:15                                      ; preds = %40, %8
  %16 = load i32* %i, align 4                     ; [#uses=1]
  %17 = load i32* %3, align 4                     ; [#uses=1]
  %18 = icmp slt i32 %16, %17                     ; [#uses=1]
  br i1 %18, label %19, label %43

; <label>:19                                      ; preds = %15
  %20 = load %struct.lua_State** %1, align 4      ; [#uses=1]
  %21 = getelementptr inbounds %struct.lua_State* %20, i32 0, i32 4 ; [#uses=1]
  %22 = load %struct.lua_TValue** %21, align 4    ; [#uses=1]
  %23 = load i32* %i, align 4                     ; [#uses=1]
  %24 = getelementptr inbounds %struct.lua_TValue* %22, i32 %23 ; [#uses=1]
  store %struct.lua_TValue* %24, %struct.lua_TValue** %o2, align 4
  %25 = load %struct.lua_State** %2, align 4      ; [#uses=1]
  %26 = getelementptr inbounds %struct.lua_State* %25, i32 0, i32 4 ; [#uses=2]
  %27 = load %struct.lua_TValue** %26, align 4    ; [#uses=2]
  %28 = getelementptr inbounds %struct.lua_TValue* %27, i32 1 ; [#uses=1]
  store %struct.lua_TValue* %28, %struct.lua_TValue** %26, align 4
  store %struct.lua_TValue* %27, %struct.lua_TValue** %o1, align 4
  %29 = load %struct.lua_TValue** %o1, align 4    ; [#uses=1]
  %30 = getelementptr inbounds %struct.lua_TValue* %29, i32 0, i32 0 ; [#uses=1]
  %31 = load %struct.lua_TValue** %o2, align 4    ; [#uses=1]
  %32 = getelementptr inbounds %struct.lua_TValue* %31, i32 0, i32 0 ; [#uses=1]
  %33 = bitcast %union.anon* %30 to i8*           ; [#uses=1]
  %34 = bitcast %union.anon* %32 to i8*           ; [#uses=1]
  call void @llvm.memcpy.p0i8.p0i8.i32(i8* %33, i8* %34, i32 8, i32 4, i1 false)
  %35 = load %struct.lua_TValue** %o2, align 4    ; [#uses=1]
  %36 = getelementptr inbounds %struct.lua_TValue* %35, i32 0, i32 1 ; [#uses=1]
  %37 = load i32* %36, align 4                    ; [#uses=1]
  %38 = load %struct.lua_TValue** %o1, align 4    ; [#uses=1]
  %39 = getelementptr inbounds %struct.lua_TValue* %38, i32 0, i32 1 ; [#uses=1]
  store i32 %37, i32* %39, align 4
  br label %40

; <label>:40                                      ; preds = %19
  %41 = load i32* %i, align 4                     ; [#uses=1]
  %42 = add nsw i32 %41, 1                        ; [#uses=1]
  store i32 %42, i32* %i, align 4
  br label %15

; <label>:43                                      ; preds = %15, %7
  ret void
}

; [#uses=1]
define void @_Z12lua_setlevelP9lua_StateS0_(%struct.lua_State* %from, %struct.lua_State* %to) nounwind {
  %1 = alloca %struct.lua_State*, align 4         ; [#uses=2]
  %2 = alloca %struct.lua_State*, align 4         ; [#uses=2]
  store %struct.lua_State* %from, %struct.lua_State** %1, align 4
  store %struct.lua_State* %to, %struct.lua_State** %2, align 4
  %3 = load %struct.lua_State** %1, align 4       ; [#uses=1]
  %4 = getelementptr inbounds %struct.lua_State* %3, i32 0, i32 15 ; [#uses=1]
  %5 = load i16* %4, align 2                      ; [#uses=1]
  %6 = load %struct.lua_State** %2, align 4       ; [#uses=1]
  %7 = getelementptr inbounds %struct.lua_State* %6, i32 0, i32 15 ; [#uses=1]
  store i16 %5, i16* %7, align 2
  ret void
}

; [#uses=1]
define i32 (%struct.lua_State*)* @_Z11lua_atpanicP9lua_StatePFiS0_E(%struct.lua_State* %L, i32 (%struct.lua_State*)* %panicf) nounwind {
  %1 = alloca %struct.lua_State*, align 4         ; [#uses=3]
  %2 = alloca i32 (%struct.lua_State*)*, align 4  ; [#uses=2]
  %old = alloca i32 (%struct.lua_State*)*, align 4 ; [#uses=2]
  store %struct.lua_State* %L, %struct.lua_State** %1, align 4
  store i32 (%struct.lua_State*)* %panicf, i32 (%struct.lua_State*)** %2, align 4
  %3 = load %struct.lua_State** %1, align 4       ; [#uses=1]
  %4 = getelementptr inbounds %struct.lua_State* %3, i32 0, i32 6 ; [#uses=1]
  %5 = load %struct.global_State** %4, align 4    ; [#uses=1]
  %6 = getelementptr inbounds %struct.global_State* %5, i32 0, i32 19 ; [#uses=1]
  %7 = load i32 (%struct.lua_State*)** %6, align 4 ; [#uses=1]
  store i32 (%struct.lua_State*)* %7, i32 (%struct.lua_State*)** %old, align 4
  %8 = load i32 (%struct.lua_State*)** %2, align 4 ; [#uses=1]
  %9 = load %struct.lua_State** %1, align 4       ; [#uses=1]
  %10 = getelementptr inbounds %struct.lua_State* %9, i32 0, i32 6 ; [#uses=1]
  %11 = load %struct.global_State** %10, align 4  ; [#uses=1]
  %12 = getelementptr inbounds %struct.global_State* %11, i32 0, i32 19 ; [#uses=1]
  store i32 (%struct.lua_State*)* %8, i32 (%struct.lua_State*)** %12, align 4
  %13 = load i32 (%struct.lua_State*)** %old, align 4 ; [#uses=1]
  ret i32 (%struct.lua_State*)* %13
}

; [#uses=1]
define %struct.lua_State* @_Z13lua_newthreadP9lua_State(%struct.lua_State* %L) {
  %1 = alloca %struct.lua_State*, align 4         ; [#uses=7]
  %L1 = alloca %struct.lua_State*, align 4        ; [#uses=3]
  %i_o = alloca %struct.lua_TValue*, align 4      ; [#uses=3]
  store %struct.lua_State* %L, %struct.lua_State** %1, align 4
  %2 = load %struct.lua_State** %1, align 4       ; [#uses=1]
  %3 = getelementptr inbounds %struct.lua_State* %2, i32 0, i32 6 ; [#uses=1]
  %4 = load %struct.global_State** %3, align 4    ; [#uses=1]
  %5 = getelementptr inbounds %struct.global_State* %4, i32 0, i32 14 ; [#uses=1]
  %6 = load i32* %5, align 4                      ; [#uses=1]
  %7 = load %struct.lua_State** %1, align 4       ; [#uses=1]
  %8 = getelementptr inbounds %struct.lua_State* %7, i32 0, i32 6 ; [#uses=1]
  %9 = load %struct.global_State** %8, align 4    ; [#uses=1]
  %10 = getelementptr inbounds %struct.global_State* %9, i32 0, i32 13 ; [#uses=1]
  %11 = load i32* %10, align 4                    ; [#uses=1]
  %12 = icmp uge i32 %6, %11                      ; [#uses=1]
  br i1 %12, label %13, label %15

; <label>:13                                      ; preds = %0
  %14 = load %struct.lua_State** %1, align 4      ; [#uses=1]
  call void @_Z9luaC_stepP9lua_State(%struct.lua_State* %14)
  br label %15

; <label>:15                                      ; preds = %13, %0
  %16 = load %struct.lua_State** %1, align 4      ; [#uses=1]
  %17 = call %struct.lua_State* @_Z14luaE_newthreadP9lua_State(%struct.lua_State* %16) ; [#uses=1]
  store %struct.lua_State* %17, %struct.lua_State** %L1, align 4
  %18 = load %struct.lua_State** %1, align 4      ; [#uses=1]
  %19 = getelementptr inbounds %struct.lua_State* %18, i32 0, i32 4 ; [#uses=1]
  %20 = load %struct.lua_TValue** %19, align 4    ; [#uses=1]
  store %struct.lua_TValue* %20, %struct.lua_TValue** %i_o, align 4
  %21 = load %struct.lua_State** %L1, align 4     ; [#uses=1]
  %22 = bitcast %struct.lua_State* %21 to %union.GCObject* ; [#uses=1]
  %23 = load %struct.lua_TValue** %i_o, align 4   ; [#uses=1]
  %24 = getelementptr inbounds %struct.lua_TValue* %23, i32 0, i32 0 ; [#uses=1]
  %25 = getelementptr inbounds %union.anon* %24, i32 0, i32 0 ; [#uses=1]
  %26 = bitcast double* %25 to %union.GCObject**  ; [#uses=1]
  store %union.GCObject* %22, %union.GCObject** %26, align 4
  %27 = load %struct.lua_TValue** %i_o, align 4   ; [#uses=1]
  %28 = getelementptr inbounds %struct.lua_TValue* %27, i32 0, i32 1 ; [#uses=1]
  store i32 8, i32* %28, align 4
  %29 = load %struct.lua_State** %1, align 4      ; [#uses=1]
  %30 = getelementptr inbounds %struct.lua_State* %29, i32 0, i32 4 ; [#uses=2]
  %31 = load %struct.lua_TValue** %30, align 4    ; [#uses=1]
  %32 = getelementptr inbounds %struct.lua_TValue* %31, i32 1 ; [#uses=1]
  store %struct.lua_TValue* %32, %struct.lua_TValue** %30, align 4
  %33 = load %struct.lua_State** %L1, align 4     ; [#uses=1]
  ret %struct.lua_State* %33
}

; [#uses=32]
define i32 @_Z10lua_gettopP9lua_State(%struct.lua_State* %L) nounwind {
  %1 = alloca %struct.lua_State*, align 4         ; [#uses=3]
  store %struct.lua_State* %L, %struct.lua_State** %1, align 4
  %2 = load %struct.lua_State** %1, align 4       ; [#uses=1]
  %3 = getelementptr inbounds %struct.lua_State* %2, i32 0, i32 4 ; [#uses=1]
  %4 = load %struct.lua_TValue** %3, align 4      ; [#uses=1]
  %5 = load %struct.lua_State** %1, align 4       ; [#uses=1]
  %6 = getelementptr inbounds %struct.lua_State* %5, i32 0, i32 5 ; [#uses=1]
  %7 = load %struct.lua_TValue** %6, align 4      ; [#uses=1]
  %8 = ptrtoint %struct.lua_TValue* %4 to i32     ; [#uses=1]
  %9 = ptrtoint %struct.lua_TValue* %7 to i32     ; [#uses=1]
  %10 = sub i32 %8, %9                            ; [#uses=1]
  %11 = sdiv exact i32 %10, 12                    ; [#uses=1]
  ret i32 %11
}

; [#uses=68]
define void @_Z10lua_settopP9lua_Statei(%struct.lua_State* %L, i32 %idx) nounwind {
  %1 = alloca %struct.lua_State*, align 4         ; [#uses=7]
  %2 = alloca i32, align 4                        ; [#uses=5]
  store %struct.lua_State* %L, %struct.lua_State** %1, align 4
  store i32 %idx, i32* %2, align 4
  %3 = load i32* %2, align 4                      ; [#uses=1]
  %4 = icmp sge i32 %3, 0                         ; [#uses=1]
  br i1 %4, label %5, label %30

; <label>:5                                       ; preds = %0
  br label %6

; <label>:6                                       ; preds = %16, %5
  %7 = load %struct.lua_State** %1, align 4       ; [#uses=1]
  %8 = getelementptr inbounds %struct.lua_State* %7, i32 0, i32 4 ; [#uses=1]
  %9 = load %struct.lua_TValue** %8, align 4      ; [#uses=1]
  %10 = load %struct.lua_State** %1, align 4      ; [#uses=1]
  %11 = getelementptr inbounds %struct.lua_State* %10, i32 0, i32 5 ; [#uses=1]
  %12 = load %struct.lua_TValue** %11, align 4    ; [#uses=1]
  %13 = load i32* %2, align 4                     ; [#uses=1]
  %14 = getelementptr inbounds %struct.lua_TValue* %12, i32 %13 ; [#uses=1]
  %15 = icmp ult %struct.lua_TValue* %9, %14      ; [#uses=1]
  br i1 %15, label %16, label %22

; <label>:16                                      ; preds = %6
  %17 = load %struct.lua_State** %1, align 4      ; [#uses=1]
  %18 = getelementptr inbounds %struct.lua_State* %17, i32 0, i32 4 ; [#uses=2]
  %19 = load %struct.lua_TValue** %18, align 4    ; [#uses=2]
  %20 = getelementptr inbounds %struct.lua_TValue* %19, i32 1 ; [#uses=1]
  store %struct.lua_TValue* %20, %struct.lua_TValue** %18, align 4
  %21 = getelementptr inbounds %struct.lua_TValue* %19, i32 0, i32 1 ; [#uses=1]
  store i32 0, i32* %21, align 4
  br label %6

; <label>:22                                      ; preds = %6
  %23 = load %struct.lua_State** %1, align 4      ; [#uses=1]
  %24 = getelementptr inbounds %struct.lua_State* %23, i32 0, i32 5 ; [#uses=1]
  %25 = load %struct.lua_TValue** %24, align 4    ; [#uses=1]
  %26 = load i32* %2, align 4                     ; [#uses=1]
  %27 = getelementptr inbounds %struct.lua_TValue* %25, i32 %26 ; [#uses=1]
  %28 = load %struct.lua_State** %1, align 4      ; [#uses=1]
  %29 = getelementptr inbounds %struct.lua_State* %28, i32 0, i32 4 ; [#uses=1]
  store %struct.lua_TValue* %27, %struct.lua_TValue** %29, align 4
  br label %37

; <label>:30                                      ; preds = %0
  %31 = load i32* %2, align 4                     ; [#uses=1]
  %32 = add nsw i32 %31, 1                        ; [#uses=1]
  %33 = load %struct.lua_State** %1, align 4      ; [#uses=1]
  %34 = getelementptr inbounds %struct.lua_State* %33, i32 0, i32 4 ; [#uses=2]
  %35 = load %struct.lua_TValue** %34, align 4    ; [#uses=1]
  %36 = getelementptr inbounds %struct.lua_TValue* %35, i32 %32 ; [#uses=1]
  store %struct.lua_TValue* %36, %struct.lua_TValue** %34, align 4
  br label %37

; <label>:37                                      ; preds = %30, %22
  ret void
}

; [#uses=13]
define void @_Z10lua_removeP9lua_Statei(%struct.lua_State* %L, i32 %idx) {
  %1 = alloca %struct.lua_State*, align 4         ; [#uses=4]
  %2 = alloca i32, align 4                        ; [#uses=2]
  %p = alloca %struct.lua_TValue*, align 4        ; [#uses=5]
  %o2 = alloca %struct.lua_TValue*, align 4       ; [#uses=3]
  %o1 = alloca %struct.lua_TValue*, align 4       ; [#uses=3]
  store %struct.lua_State* %L, %struct.lua_State** %1, align 4
  store i32 %idx, i32* %2, align 4
  %3 = load %struct.lua_State** %1, align 4       ; [#uses=1]
  %4 = load i32* %2, align 4                      ; [#uses=1]
  %5 = call %struct.lua_TValue* @_Z9index2adrP9lua_Statei(%struct.lua_State* %3, i32 %4) ; [#uses=1]
  store %struct.lua_TValue* %5, %struct.lua_TValue** %p, align 4
  br label %6

; <label>:6                                       ; preds = %13, %0
  %7 = load %struct.lua_TValue** %p, align 4      ; [#uses=1]
  %8 = getelementptr inbounds %struct.lua_TValue* %7, i32 1 ; [#uses=2]
  store %struct.lua_TValue* %8, %struct.lua_TValue** %p, align 4
  %9 = load %struct.lua_State** %1, align 4       ; [#uses=1]
  %10 = getelementptr inbounds %struct.lua_State* %9, i32 0, i32 4 ; [#uses=1]
  %11 = load %struct.lua_TValue** %10, align 4    ; [#uses=1]
  %12 = icmp ult %struct.lua_TValue* %8, %11      ; [#uses=1]
  br i1 %12, label %13, label %28

; <label>:13                                      ; preds = %6
  %14 = load %struct.lua_TValue** %p, align 4     ; [#uses=1]
  store %struct.lua_TValue* %14, %struct.lua_TValue** %o2, align 4
  %15 = load %struct.lua_TValue** %p, align 4     ; [#uses=1]
  %16 = getelementptr inbounds %struct.lua_TValue* %15, i32 -1 ; [#uses=1]
  store %struct.lua_TValue* %16, %struct.lua_TValue** %o1, align 4
  %17 = load %struct.lua_TValue** %o1, align 4    ; [#uses=1]
  %18 = getelementptr inbounds %struct.lua_TValue* %17, i32 0, i32 0 ; [#uses=1]
  %19 = load %struct.lua_TValue** %o2, align 4    ; [#uses=1]
  %20 = getelementptr inbounds %struct.lua_TValue* %19, i32 0, i32 0 ; [#uses=1]
  %21 = bitcast %union.anon* %18 to i8*           ; [#uses=1]
  %22 = bitcast %union.anon* %20 to i8*           ; [#uses=1]
  call void @llvm.memcpy.p0i8.p0i8.i32(i8* %21, i8* %22, i32 8, i32 4, i1 false)
  %23 = load %struct.lua_TValue** %o2, align 4    ; [#uses=1]
  %24 = getelementptr inbounds %struct.lua_TValue* %23, i32 0, i32 1 ; [#uses=1]
  %25 = load i32* %24, align 4                    ; [#uses=1]
  %26 = load %struct.lua_TValue** %o1, align 4    ; [#uses=1]
  %27 = getelementptr inbounds %struct.lua_TValue* %26, i32 0, i32 1 ; [#uses=1]
  store i32 %25, i32* %27, align 4
  br label %6

; <label>:28                                      ; preds = %6
  %29 = load %struct.lua_State** %1, align 4      ; [#uses=1]
  %30 = getelementptr inbounds %struct.lua_State* %29, i32 0, i32 4 ; [#uses=2]
  %31 = load %struct.lua_TValue** %30, align 4    ; [#uses=1]
  %32 = getelementptr inbounds %struct.lua_TValue* %31, i32 -1 ; [#uses=1]
  store %struct.lua_TValue* %32, %struct.lua_TValue** %30, align 4
  ret void
}

; [#uses=40]
define internal %struct.lua_TValue* @_Z9index2adrP9lua_Statei(%struct.lua_State* %L, i32 %idx) nounwind {
  %1 = alloca %struct.lua_TValue*, align 4        ; [#uses=8]
  %2 = alloca %struct.lua_State*, align 4         ; [#uses=10]
  %3 = alloca i32, align 4                        ; [#uses=10]
  %o = alloca %struct.lua_TValue*, align 4        ; [#uses=3]
  %func = alloca %union.Closure*, align 4         ; [#uses=2]
  %i_o = alloca %struct.lua_TValue*, align 4      ; [#uses=3]
  %func1 = alloca %union.Closure*, align 4        ; [#uses=3]
  store %struct.lua_State* %L, %struct.lua_State** %2, align 4
  store i32 %idx, i32* %3, align 4
  %4 = load i32* %3, align 4                      ; [#uses=1]
  %5 = icmp sgt i32 %4, 0                         ; [#uses=1]
  br i1 %5, label %6, label %21

; <label>:6                                       ; preds = %0
  %7 = load %struct.lua_State** %2, align 4       ; [#uses=1]
  %8 = getelementptr inbounds %struct.lua_State* %7, i32 0, i32 5 ; [#uses=1]
  %9 = load %struct.lua_TValue** %8, align 4      ; [#uses=1]
  %10 = load i32* %3, align 4                     ; [#uses=1]
  %11 = sub nsw i32 %10, 1                        ; [#uses=1]
  %12 = getelementptr inbounds %struct.lua_TValue* %9, i32 %11 ; [#uses=1]
  store %struct.lua_TValue* %12, %struct.lua_TValue** %o, align 4
  %13 = load %struct.lua_TValue** %o, align 4     ; [#uses=1]
  %14 = load %struct.lua_State** %2, align 4      ; [#uses=1]
  %15 = getelementptr inbounds %struct.lua_State* %14, i32 0, i32 4 ; [#uses=1]
  %16 = load %struct.lua_TValue** %15, align 4    ; [#uses=1]
  %17 = icmp uge %struct.lua_TValue* %13, %16     ; [#uses=1]
  br i1 %17, label %18, label %19

; <label>:18                                      ; preds = %6
  store %struct.lua_TValue* bitcast (%7* @luaO_nilobject_ to %struct.lua_TValue*), %struct.lua_TValue** %1
  br label %98

; <label>:19                                      ; preds = %6
  %20 = load %struct.lua_TValue** %o, align 4     ; [#uses=1]
  store %struct.lua_TValue* %20, %struct.lua_TValue** %1
  br label %98

; <label>:21                                      ; preds = %0
  %22 = load i32* %3, align 4                     ; [#uses=1]
  %23 = icmp sgt i32 %22, -10000                  ; [#uses=1]
  br i1 %23, label %24, label %30

; <label>:24                                      ; preds = %21
  %25 = load %struct.lua_State** %2, align 4      ; [#uses=1]
  %26 = getelementptr inbounds %struct.lua_State* %25, i32 0, i32 4 ; [#uses=1]
  %27 = load %struct.lua_TValue** %26, align 4    ; [#uses=1]
  %28 = load i32* %3, align 4                     ; [#uses=1]
  %29 = getelementptr inbounds %struct.lua_TValue* %27, i32 %28 ; [#uses=1]
  store %struct.lua_TValue* %29, %struct.lua_TValue** %1
  br label %98

; <label>:30                                      ; preds = %21
  %31 = load i32* %3, align 4                     ; [#uses=1]
  switch i32 %31, label %67 [
    i32 -10000, label %32
    i32 -10001, label %37
    i32 -10002, label %64
  ]

; <label>:32                                      ; preds = %30
  %33 = load %struct.lua_State** %2, align 4      ; [#uses=1]
  %34 = getelementptr inbounds %struct.lua_State* %33, i32 0, i32 6 ; [#uses=1]
  %35 = load %struct.global_State** %34, align 4  ; [#uses=1]
  %36 = getelementptr inbounds %struct.global_State* %35, i32 0, i32 20 ; [#uses=1]
  store %struct.lua_TValue* %36, %struct.lua_TValue** %1
  br label %98

; <label>:37                                      ; preds = %30
  %38 = load %struct.lua_State** %2, align 4      ; [#uses=1]
  %39 = getelementptr inbounds %struct.lua_State* %38, i32 0, i32 7 ; [#uses=1]
  %40 = load %struct.CallInfo** %39, align 4      ; [#uses=1]
  %41 = getelementptr inbounds %struct.CallInfo* %40, i32 0, i32 1 ; [#uses=1]
  %42 = load %struct.lua_TValue** %41, align 4    ; [#uses=1]
  %43 = getelementptr inbounds %struct.lua_TValue* %42, i32 0, i32 0 ; [#uses=1]
  %44 = getelementptr inbounds %union.anon* %43, i32 0, i32 0 ; [#uses=1]
  %45 = bitcast double* %44 to %union.GCObject**  ; [#uses=1]
  %46 = load %union.GCObject** %45, align 4       ; [#uses=1]
  %47 = getelementptr inbounds %union.GCObject* %46, i32 0, i32 0 ; [#uses=1]
  %48 = bitcast %struct.lua_State* %47 to %union.Closure* ; [#uses=1]
  store %union.Closure* %48, %union.Closure** %func, align 4
  %49 = load %struct.lua_State** %2, align 4      ; [#uses=1]
  %50 = getelementptr inbounds %struct.lua_State* %49, i32 0, i32 23 ; [#uses=1]
  store %struct.lua_TValue* %50, %struct.lua_TValue** %i_o, align 4
  %51 = load %union.Closure** %func, align 4      ; [#uses=1]
  %52 = getelementptr inbounds %union.Closure* %51, i32 0, i32 0 ; [#uses=1]
  %53 = getelementptr inbounds %struct.CClosure* %52, i32 0, i32 6 ; [#uses=1]
  %54 = load %struct.Table** %53, align 4         ; [#uses=1]
  %55 = bitcast %struct.Table* %54 to %union.GCObject* ; [#uses=1]
  %56 = load %struct.lua_TValue** %i_o, align 4   ; [#uses=1]
  %57 = getelementptr inbounds %struct.lua_TValue* %56, i32 0, i32 0 ; [#uses=1]
  %58 = getelementptr inbounds %union.anon* %57, i32 0, i32 0 ; [#uses=1]
  %59 = bitcast double* %58 to %union.GCObject**  ; [#uses=1]
  store %union.GCObject* %55, %union.GCObject** %59, align 4
  %60 = load %struct.lua_TValue** %i_o, align 4   ; [#uses=1]
  %61 = getelementptr inbounds %struct.lua_TValue* %60, i32 0, i32 1 ; [#uses=1]
  store i32 5, i32* %61, align 4
  %62 = load %struct.lua_State** %2, align 4      ; [#uses=1]
  %63 = getelementptr inbounds %struct.lua_State* %62, i32 0, i32 23 ; [#uses=1]
  store %struct.lua_TValue* %63, %struct.lua_TValue** %1
  br label %98

; <label>:64                                      ; preds = %30
  %65 = load %struct.lua_State** %2, align 4      ; [#uses=1]
  %66 = getelementptr inbounds %struct.lua_State* %65, i32 0, i32 22 ; [#uses=1]
  store %struct.lua_TValue* %66, %struct.lua_TValue** %1
  br label %98

; <label>:67                                      ; preds = %30
  %68 = load %struct.lua_State** %2, align 4      ; [#uses=1]
  %69 = getelementptr inbounds %struct.lua_State* %68, i32 0, i32 7 ; [#uses=1]
  %70 = load %struct.CallInfo** %69, align 4      ; [#uses=1]
  %71 = getelementptr inbounds %struct.CallInfo* %70, i32 0, i32 1 ; [#uses=1]
  %72 = load %struct.lua_TValue** %71, align 4    ; [#uses=1]
  %73 = getelementptr inbounds %struct.lua_TValue* %72, i32 0, i32 0 ; [#uses=1]
  %74 = getelementptr inbounds %union.anon* %73, i32 0, i32 0 ; [#uses=1]
  %75 = bitcast double* %74 to %union.GCObject**  ; [#uses=1]
  %76 = load %union.GCObject** %75, align 4       ; [#uses=1]
  %77 = getelementptr inbounds %union.GCObject* %76, i32 0, i32 0 ; [#uses=1]
  %78 = bitcast %struct.lua_State* %77 to %union.Closure* ; [#uses=1]
  store %union.Closure* %78, %union.Closure** %func1, align 4
  %79 = load i32* %3, align 4                     ; [#uses=1]
  %80 = sub nsw i32 -10002, %79                   ; [#uses=1]
  store i32 %80, i32* %3, align 4
  %81 = load i32* %3, align 4                     ; [#uses=1]
  %82 = load %union.Closure** %func1, align 4     ; [#uses=1]
  %83 = getelementptr inbounds %union.Closure* %82, i32 0, i32 0 ; [#uses=1]
  %84 = getelementptr inbounds %struct.CClosure* %83, i32 0, i32 4 ; [#uses=1]
  %85 = load i8* %84, align 1                     ; [#uses=1]
  %86 = zext i8 %85 to i32                        ; [#uses=1]
  %87 = icmp sle i32 %81, %86                     ; [#uses=1]
  br i1 %87, label %88, label %95

; <label>:88                                      ; preds = %67
  %89 = load i32* %3, align 4                     ; [#uses=1]
  %90 = sub nsw i32 %89, 1                        ; [#uses=1]
  %91 = load %union.Closure** %func1, align 4     ; [#uses=1]
  %92 = getelementptr inbounds %union.Closure* %91, i32 0, i32 0 ; [#uses=1]
  %93 = getelementptr inbounds %struct.CClosure* %92, i32 0, i32 8 ; [#uses=1]
  %94 = getelementptr inbounds [1 x %struct.lua_TValue]* %93, i32 0, i32 %90 ; [#uses=1]
  br label %96

; <label>:95                                      ; preds = %67
  br label %96

; <label>:96                                      ; preds = %95, %88
  %97 = phi %struct.lua_TValue* [ %94, %88 ], [ bitcast (%7* @luaO_nilobject_ to %struct.lua_TValue*), %95 ] ; [#uses=1]
  store %struct.lua_TValue* %97, %struct.lua_TValue** %1
  br label %98

; <label>:98                                      ; preds = %96, %64, %37, %32, %24, %19, %18
  %99 = load %struct.lua_TValue** %1              ; [#uses=1]
  ret %struct.lua_TValue* %99
}

; [#uses=15]
define void @_Z10lua_insertP9lua_Statei(%struct.lua_State* %L, i32 %idx) {
  %1 = alloca %struct.lua_State*, align 4         ; [#uses=4]
  %2 = alloca i32, align 4                        ; [#uses=2]
  %p = alloca %struct.lua_TValue*, align 4        ; [#uses=3]
  %q = alloca %struct.lua_TValue*, align 4        ; [#uses=6]
  %o2 = alloca %struct.lua_TValue*, align 4       ; [#uses=3]
  %o1 = alloca %struct.lua_TValue*, align 4       ; [#uses=3]
  %o21 = alloca %struct.lua_TValue*, align 4      ; [#uses=3]
  %o12 = alloca %struct.lua_TValue*, align 4      ; [#uses=3]
  store %struct.lua_State* %L, %struct.lua_State** %1, align 4
  store i32 %idx, i32* %2, align 4
  %3 = load %struct.lua_State** %1, align 4       ; [#uses=1]
  %4 = load i32* %2, align 4                      ; [#uses=1]
  %5 = call %struct.lua_TValue* @_Z9index2adrP9lua_Statei(%struct.lua_State* %3, i32 %4) ; [#uses=1]
  store %struct.lua_TValue* %5, %struct.lua_TValue** %p, align 4
  %6 = load %struct.lua_State** %1, align 4       ; [#uses=1]
  %7 = getelementptr inbounds %struct.lua_State* %6, i32 0, i32 4 ; [#uses=1]
  %8 = load %struct.lua_TValue** %7, align 4      ; [#uses=1]
  store %struct.lua_TValue* %8, %struct.lua_TValue** %q, align 4
  br label %9

; <label>:9                                       ; preds = %28, %0
  %10 = load %struct.lua_TValue** %q, align 4     ; [#uses=1]
  %11 = load %struct.lua_TValue** %p, align 4     ; [#uses=1]
  %12 = icmp ugt %struct.lua_TValue* %10, %11     ; [#uses=1]
  br i1 %12, label %13, label %31

; <label>:13                                      ; preds = %9
  %14 = load %struct.lua_TValue** %q, align 4     ; [#uses=1]
  %15 = getelementptr inbounds %struct.lua_TValue* %14, i32 -1 ; [#uses=1]
  store %struct.lua_TValue* %15, %struct.lua_TValue** %o2, align 4
  %16 = load %struct.lua_TValue** %q, align 4     ; [#uses=1]
  store %struct.lua_TValue* %16, %struct.lua_TValue** %o1, align 4
  %17 = load %struct.lua_TValue** %o1, align 4    ; [#uses=1]
  %18 = getelementptr inbounds %struct.lua_TValue* %17, i32 0, i32 0 ; [#uses=1]
  %19 = load %struct.lua_TValue** %o2, align 4    ; [#uses=1]
  %20 = getelementptr inbounds %struct.lua_TValue* %19, i32 0, i32 0 ; [#uses=1]
  %21 = bitcast %union.anon* %18 to i8*           ; [#uses=1]
  %22 = bitcast %union.anon* %20 to i8*           ; [#uses=1]
  call void @llvm.memcpy.p0i8.p0i8.i32(i8* %21, i8* %22, i32 8, i32 4, i1 false)
  %23 = load %struct.lua_TValue** %o2, align 4    ; [#uses=1]
  %24 = getelementptr inbounds %struct.lua_TValue* %23, i32 0, i32 1 ; [#uses=1]
  %25 = load i32* %24, align 4                    ; [#uses=1]
  %26 = load %struct.lua_TValue** %o1, align 4    ; [#uses=1]
  %27 = getelementptr inbounds %struct.lua_TValue* %26, i32 0, i32 1 ; [#uses=1]
  store i32 %25, i32* %27, align 4
  br label %28

; <label>:28                                      ; preds = %13
  %29 = load %struct.lua_TValue** %q, align 4     ; [#uses=1]
  %30 = getelementptr inbounds %struct.lua_TValue* %29, i32 -1 ; [#uses=1]
  store %struct.lua_TValue* %30, %struct.lua_TValue** %q, align 4
  br label %9

; <label>:31                                      ; preds = %9
  %32 = load %struct.lua_State** %1, align 4      ; [#uses=1]
  %33 = getelementptr inbounds %struct.lua_State* %32, i32 0, i32 4 ; [#uses=1]
  %34 = load %struct.lua_TValue** %33, align 4    ; [#uses=1]
  store %struct.lua_TValue* %34, %struct.lua_TValue** %o21, align 4
  %35 = load %struct.lua_TValue** %p, align 4     ; [#uses=1]
  store %struct.lua_TValue* %35, %struct.lua_TValue** %o12, align 4
  %36 = load %struct.lua_TValue** %o12, align 4   ; [#uses=1]
  %37 = getelementptr inbounds %struct.lua_TValue* %36, i32 0, i32 0 ; [#uses=1]
  %38 = load %struct.lua_TValue** %o21, align 4   ; [#uses=1]
  %39 = getelementptr inbounds %struct.lua_TValue* %38, i32 0, i32 0 ; [#uses=1]
  %40 = bitcast %union.anon* %37 to i8*           ; [#uses=1]
  %41 = bitcast %union.anon* %39 to i8*           ; [#uses=1]
  call void @llvm.memcpy.p0i8.p0i8.i32(i8* %40, i8* %41, i32 8, i32 4, i1 false)
  %42 = load %struct.lua_TValue** %o21, align 4   ; [#uses=1]
  %43 = getelementptr inbounds %struct.lua_TValue* %42, i32 0, i32 1 ; [#uses=1]
  %44 = load i32* %43, align 4                    ; [#uses=1]
  %45 = load %struct.lua_TValue** %o12, align 4   ; [#uses=1]
  %46 = getelementptr inbounds %struct.lua_TValue* %45, i32 0, i32 1 ; [#uses=1]
  store i32 %44, i32* %46, align 4
  ret void
}

; [#uses=5]
define void @_Z11lua_replaceP9lua_Statei(%struct.lua_State* %L, i32 %idx) {
  %1 = alloca %struct.lua_State*, align 4         ; [#uses=19]
  %2 = alloca i32, align 4                        ; [#uses=5]
  %o = alloca %struct.lua_TValue*, align 4        ; [#uses=2]
  %func = alloca %union.Closure*, align 4         ; [#uses=4]
  %o2 = alloca %struct.lua_TValue*, align 4       ; [#uses=3]
  %o1 = alloca %struct.lua_TValue*, align 4       ; [#uses=3]
  store %struct.lua_State* %L, %struct.lua_State** %1, align 4
  store i32 %idx, i32* %2, align 4
  %3 = load i32* %2, align 4                      ; [#uses=1]
  %4 = icmp eq i32 %3, -10001                     ; [#uses=1]
  br i1 %4, label %5, label %15

; <label>:5                                       ; preds = %0
  %6 = load %struct.lua_State** %1, align 4       ; [#uses=1]
  %7 = getelementptr inbounds %struct.lua_State* %6, i32 0, i32 7 ; [#uses=1]
  %8 = load %struct.CallInfo** %7, align 4        ; [#uses=1]
  %9 = load %struct.lua_State** %1, align 4       ; [#uses=1]
  %10 = getelementptr inbounds %struct.lua_State* %9, i32 0, i32 12 ; [#uses=1]
  %11 = load %struct.CallInfo** %10, align 4      ; [#uses=1]
  %12 = icmp eq %struct.CallInfo* %8, %11         ; [#uses=1]
  br i1 %12, label %13, label %15

; <label>:13                                      ; preds = %5
  %14 = load %struct.lua_State** %1, align 4      ; [#uses=1]
  call void (%struct.lua_State*, i8*, ...)* @_Z13luaG_runerrorP9lua_StatePKcz(%struct.lua_State* %14, i8* getelementptr inbounds ([23 x i8]* @.str28, i32 0, i32 0))
  br label %15

; <label>:15                                      ; preds = %13, %5, %0
  %16 = load %struct.lua_State** %1, align 4      ; [#uses=1]
  %17 = load i32* %2, align 4                     ; [#uses=1]
  %18 = call %struct.lua_TValue* @_Z9index2adrP9lua_Statei(%struct.lua_State* %16, i32 %17) ; [#uses=1]
  store %struct.lua_TValue* %18, %struct.lua_TValue** %o, align 4
  %19 = load i32* %2, align 4                     ; [#uses=1]
  %20 = icmp eq i32 %19, -10001                   ; [#uses=1]
  br i1 %20, label %21, label %92

; <label>:21                                      ; preds = %15
  %22 = load %struct.lua_State** %1, align 4      ; [#uses=1]
  %23 = getelementptr inbounds %struct.lua_State* %22, i32 0, i32 7 ; [#uses=1]
  %24 = load %struct.CallInfo** %23, align 4      ; [#uses=1]
  %25 = getelementptr inbounds %struct.CallInfo* %24, i32 0, i32 1 ; [#uses=1]
  %26 = load %struct.lua_TValue** %25, align 4    ; [#uses=1]
  %27 = getelementptr inbounds %struct.lua_TValue* %26, i32 0, i32 0 ; [#uses=1]
  %28 = getelementptr inbounds %union.anon* %27, i32 0, i32 0 ; [#uses=1]
  %29 = bitcast double* %28 to %union.GCObject**  ; [#uses=1]
  %30 = load %union.GCObject** %29, align 4       ; [#uses=1]
  %31 = getelementptr inbounds %union.GCObject* %30, i32 0, i32 0 ; [#uses=1]
  %32 = bitcast %struct.lua_State* %31 to %union.Closure* ; [#uses=1]
  store %union.Closure* %32, %union.Closure** %func, align 4
  %33 = load %struct.lua_State** %1, align 4      ; [#uses=1]
  %34 = getelementptr inbounds %struct.lua_State* %33, i32 0, i32 4 ; [#uses=1]
  %35 = load %struct.lua_TValue** %34, align 4    ; [#uses=1]
  %36 = getelementptr inbounds %struct.lua_TValue* %35, i32 -1 ; [#uses=1]
  %37 = getelementptr inbounds %struct.lua_TValue* %36, i32 0, i32 0 ; [#uses=1]
  %38 = getelementptr inbounds %union.anon* %37, i32 0, i32 0 ; [#uses=1]
  %39 = bitcast double* %38 to %union.GCObject**  ; [#uses=1]
  %40 = load %union.GCObject** %39, align 4       ; [#uses=1]
  %41 = getelementptr inbounds %union.GCObject* %40, i32 0, i32 0 ; [#uses=1]
  %42 = bitcast %struct.lua_State* %41 to %struct.Table* ; [#uses=1]
  %43 = load %union.Closure** %func, align 4      ; [#uses=1]
  %44 = getelementptr inbounds %union.Closure* %43, i32 0, i32 0 ; [#uses=1]
  %45 = getelementptr inbounds %struct.CClosure* %44, i32 0, i32 6 ; [#uses=1]
  store %struct.Table* %42, %struct.Table** %45, align 4
  %46 = load %struct.lua_State** %1, align 4      ; [#uses=1]
  %47 = getelementptr inbounds %struct.lua_State* %46, i32 0, i32 4 ; [#uses=1]
  %48 = load %struct.lua_TValue** %47, align 4    ; [#uses=1]
  %49 = getelementptr inbounds %struct.lua_TValue* %48, i32 -1 ; [#uses=1]
  %50 = getelementptr inbounds %struct.lua_TValue* %49, i32 0, i32 1 ; [#uses=1]
  %51 = load i32* %50, align 4                    ; [#uses=1]
  %52 = icmp sge i32 %51, 4                       ; [#uses=1]
  br i1 %52, label %53, label %91

; <label>:53                                      ; preds = %21
  %54 = load %struct.lua_State** %1, align 4      ; [#uses=1]
  %55 = getelementptr inbounds %struct.lua_State* %54, i32 0, i32 4 ; [#uses=1]
  %56 = load %struct.lua_TValue** %55, align 4    ; [#uses=1]
  %57 = getelementptr inbounds %struct.lua_TValue* %56, i32 -1 ; [#uses=1]
  %58 = getelementptr inbounds %struct.lua_TValue* %57, i32 0, i32 0 ; [#uses=1]
  %59 = getelementptr inbounds %union.anon* %58, i32 0, i32 0 ; [#uses=1]
  %60 = bitcast double* %59 to %union.GCObject**  ; [#uses=1]
  %61 = load %union.GCObject** %60, align 4       ; [#uses=1]
  %62 = getelementptr inbounds %union.GCObject* %61, i32 0, i32 0 ; [#uses=1]
  %63 = bitcast %struct.lua_State* %62 to %struct.GCheader* ; [#uses=1]
  %64 = getelementptr inbounds %struct.GCheader* %63, i32 0, i32 2 ; [#uses=1]
  %65 = load i8* %64, align 1                     ; [#uses=1]
  %66 = zext i8 %65 to i32                        ; [#uses=1]
  %67 = and i32 %66, 3                            ; [#uses=1]
  %68 = icmp ne i32 %67, 0                        ; [#uses=1]
  br i1 %68, label %69, label %91

; <label>:69                                      ; preds = %53
  %70 = load %union.Closure** %func, align 4      ; [#uses=1]
  %71 = bitcast %union.Closure* %70 to %union.GCObject* ; [#uses=1]
  %72 = getelementptr inbounds %union.GCObject* %71, i32 0, i32 0 ; [#uses=1]
  %73 = bitcast %struct.lua_State* %72 to %struct.GCheader* ; [#uses=1]
  %74 = getelementptr inbounds %struct.GCheader* %73, i32 0, i32 2 ; [#uses=1]
  %75 = load i8* %74, align 1                     ; [#uses=1]
  %76 = zext i8 %75 to i32                        ; [#uses=1]
  %77 = and i32 %76, 4                            ; [#uses=1]
  %78 = icmp ne i32 %77, 0                        ; [#uses=1]
  br i1 %78, label %79, label %91

; <label>:79                                      ; preds = %69
  %80 = load %struct.lua_State** %1, align 4      ; [#uses=1]
  %81 = load %union.Closure** %func, align 4      ; [#uses=1]
  %82 = bitcast %union.Closure* %81 to %union.GCObject* ; [#uses=1]
  %83 = load %struct.lua_State** %1, align 4      ; [#uses=1]
  %84 = getelementptr inbounds %struct.lua_State* %83, i32 0, i32 4 ; [#uses=1]
  %85 = load %struct.lua_TValue** %84, align 4    ; [#uses=1]
  %86 = getelementptr inbounds %struct.lua_TValue* %85, i32 -1 ; [#uses=1]
  %87 = getelementptr inbounds %struct.lua_TValue* %86, i32 0, i32 0 ; [#uses=1]
  %88 = getelementptr inbounds %union.anon* %87, i32 0, i32 0 ; [#uses=1]
  %89 = bitcast double* %88 to %union.GCObject**  ; [#uses=1]
  %90 = load %union.GCObject** %89, align 4       ; [#uses=1]
  call void @_Z13luaC_barrierfP9lua_StateP8GCObjectS2_(%struct.lua_State* %80, %union.GCObject* %82, %union.GCObject* %90)
  br label %91

; <label>:91                                      ; preds = %79, %69, %53, %21
  br label %179

; <label>:92                                      ; preds = %15
  %93 = load %struct.lua_State** %1, align 4      ; [#uses=1]
  %94 = getelementptr inbounds %struct.lua_State* %93, i32 0, i32 4 ; [#uses=1]
  %95 = load %struct.lua_TValue** %94, align 4    ; [#uses=1]
  %96 = getelementptr inbounds %struct.lua_TValue* %95, i32 -1 ; [#uses=1]
  store %struct.lua_TValue* %96, %struct.lua_TValue** %o2, align 4
  %97 = load %struct.lua_TValue** %o, align 4     ; [#uses=1]
  store %struct.lua_TValue* %97, %struct.lua_TValue** %o1, align 4
  %98 = load %struct.lua_TValue** %o1, align 4    ; [#uses=1]
  %99 = getelementptr inbounds %struct.lua_TValue* %98, i32 0, i32 0 ; [#uses=1]
  %100 = load %struct.lua_TValue** %o2, align 4   ; [#uses=1]
  %101 = getelementptr inbounds %struct.lua_TValue* %100, i32 0, i32 0 ; [#uses=1]
  %102 = bitcast %union.anon* %99 to i8*          ; [#uses=1]
  %103 = bitcast %union.anon* %101 to i8*         ; [#uses=1]
  call void @llvm.memcpy.p0i8.p0i8.i32(i8* %102, i8* %103, i32 8, i32 4, i1 false)
  %104 = load %struct.lua_TValue** %o2, align 4   ; [#uses=1]
  %105 = getelementptr inbounds %struct.lua_TValue* %104, i32 0, i32 1 ; [#uses=1]
  %106 = load i32* %105, align 4                  ; [#uses=1]
  %107 = load %struct.lua_TValue** %o1, align 4   ; [#uses=1]
  %108 = getelementptr inbounds %struct.lua_TValue* %107, i32 0, i32 1 ; [#uses=1]
  store i32 %106, i32* %108, align 4
  %109 = load i32* %2, align 4                    ; [#uses=1]
  %110 = icmp slt i32 %109, -10002                ; [#uses=1]
  br i1 %110, label %111, label %178

; <label>:111                                     ; preds = %92
  %112 = load %struct.lua_State** %1, align 4     ; [#uses=1]
  %113 = getelementptr inbounds %struct.lua_State* %112, i32 0, i32 4 ; [#uses=1]
  %114 = load %struct.lua_TValue** %113, align 4  ; [#uses=1]
  %115 = getelementptr inbounds %struct.lua_TValue* %114, i32 -1 ; [#uses=1]
  %116 = getelementptr inbounds %struct.lua_TValue* %115, i32 0, i32 1 ; [#uses=1]
  %117 = load i32* %116, align 4                  ; [#uses=1]
  %118 = icmp sge i32 %117, 4                     ; [#uses=1]
  br i1 %118, label %119, label %177

; <label>:119                                     ; preds = %111
  %120 = load %struct.lua_State** %1, align 4     ; [#uses=1]
  %121 = getelementptr inbounds %struct.lua_State* %120, i32 0, i32 4 ; [#uses=1]
  %122 = load %struct.lua_TValue** %121, align 4  ; [#uses=1]
  %123 = getelementptr inbounds %struct.lua_TValue* %122, i32 -1 ; [#uses=1]
  %124 = getelementptr inbounds %struct.lua_TValue* %123, i32 0, i32 0 ; [#uses=1]
  %125 = getelementptr inbounds %union.anon* %124, i32 0, i32 0 ; [#uses=1]
  %126 = bitcast double* %125 to %union.GCObject** ; [#uses=1]
  %127 = load %union.GCObject** %126, align 4     ; [#uses=1]
  %128 = getelementptr inbounds %union.GCObject* %127, i32 0, i32 0 ; [#uses=1]
  %129 = bitcast %struct.lua_State* %128 to %struct.GCheader* ; [#uses=1]
  %130 = getelementptr inbounds %struct.GCheader* %129, i32 0, i32 2 ; [#uses=1]
  %131 = load i8* %130, align 1                   ; [#uses=1]
  %132 = zext i8 %131 to i32                      ; [#uses=1]
  %133 = and i32 %132, 3                          ; [#uses=1]
  %134 = icmp ne i32 %133, 0                      ; [#uses=1]
  br i1 %134, label %135, label %177

; <label>:135                                     ; preds = %119
  %136 = load %struct.lua_State** %1, align 4     ; [#uses=1]
  %137 = getelementptr inbounds %struct.lua_State* %136, i32 0, i32 7 ; [#uses=1]
  %138 = load %struct.CallInfo** %137, align 4    ; [#uses=1]
  %139 = getelementptr inbounds %struct.CallInfo* %138, i32 0, i32 1 ; [#uses=1]
  %140 = load %struct.lua_TValue** %139, align 4  ; [#uses=1]
  %141 = getelementptr inbounds %struct.lua_TValue* %140, i32 0, i32 0 ; [#uses=1]
  %142 = getelementptr inbounds %union.anon* %141, i32 0, i32 0 ; [#uses=1]
  %143 = bitcast double* %142 to %union.GCObject** ; [#uses=1]
  %144 = load %union.GCObject** %143, align 4     ; [#uses=1]
  %145 = getelementptr inbounds %union.GCObject* %144, i32 0, i32 0 ; [#uses=1]
  %146 = bitcast %struct.lua_State* %145 to %union.Closure* ; [#uses=1]
  %147 = bitcast %union.Closure* %146 to %union.GCObject* ; [#uses=1]
  %148 = getelementptr inbounds %union.GCObject* %147, i32 0, i32 0 ; [#uses=1]
  %149 = bitcast %struct.lua_State* %148 to %struct.GCheader* ; [#uses=1]
  %150 = getelementptr inbounds %struct.GCheader* %149, i32 0, i32 2 ; [#uses=1]
  %151 = load i8* %150, align 1                   ; [#uses=1]
  %152 = zext i8 %151 to i32                      ; [#uses=1]
  %153 = and i32 %152, 4                          ; [#uses=1]
  %154 = icmp ne i32 %153, 0                      ; [#uses=1]
  br i1 %154, label %155, label %177

; <label>:155                                     ; preds = %135
  %156 = load %struct.lua_State** %1, align 4     ; [#uses=1]
  %157 = load %struct.lua_State** %1, align 4     ; [#uses=1]
  %158 = getelementptr inbounds %struct.lua_State* %157, i32 0, i32 7 ; [#uses=1]
  %159 = load %struct.CallInfo** %158, align 4    ; [#uses=1]
  %160 = getelementptr inbounds %struct.CallInfo* %159, i32 0, i32 1 ; [#uses=1]
  %161 = load %struct.lua_TValue** %160, align 4  ; [#uses=1]
  %162 = getelementptr inbounds %struct.lua_TValue* %161, i32 0, i32 0 ; [#uses=1]
  %163 = getelementptr inbounds %union.anon* %162, i32 0, i32 0 ; [#uses=1]
  %164 = bitcast double* %163 to %union.GCObject** ; [#uses=1]
  %165 = load %union.GCObject** %164, align 4     ; [#uses=1]
  %166 = getelementptr inbounds %union.GCObject* %165, i32 0, i32 0 ; [#uses=1]
  %167 = bitcast %struct.lua_State* %166 to %union.Closure* ; [#uses=1]
  %168 = bitcast %union.Closure* %167 to %union.GCObject* ; [#uses=1]
  %169 = load %struct.lua_State** %1, align 4     ; [#uses=1]
  %170 = getelementptr inbounds %struct.lua_State* %169, i32 0, i32 4 ; [#uses=1]
  %171 = load %struct.lua_TValue** %170, align 4  ; [#uses=1]
  %172 = getelementptr inbounds %struct.lua_TValue* %171, i32 -1 ; [#uses=1]
  %173 = getelementptr inbounds %struct.lua_TValue* %172, i32 0, i32 0 ; [#uses=1]
  %174 = getelementptr inbounds %union.anon* %173, i32 0, i32 0 ; [#uses=1]
  %175 = bitcast double* %174 to %union.GCObject** ; [#uses=1]
  %176 = load %union.GCObject** %175, align 4     ; [#uses=1]
  call void @_Z13luaC_barrierfP9lua_StateP8GCObjectS2_(%struct.lua_State* %156, %union.GCObject* %168, %union.GCObject* %176)
  br label %177

; <label>:177                                     ; preds = %155, %135, %119, %111
  br label %178

; <label>:178                                     ; preds = %177, %92
  br label %179

; <label>:179                                     ; preds = %178, %91
  %180 = load %struct.lua_State** %1, align 4     ; [#uses=1]
  %181 = getelementptr inbounds %struct.lua_State* %180, i32 0, i32 4 ; [#uses=2]
  %182 = load %struct.lua_TValue** %181, align 4  ; [#uses=1]
  %183 = getelementptr inbounds %struct.lua_TValue* %182, i32 -1 ; [#uses=1]
  store %struct.lua_TValue* %183, %struct.lua_TValue** %181, align 4
  ret void
}

; [#uses=60]
define void @_Z13lua_pushvalueP9lua_Statei(%struct.lua_State* %L, i32 %idx) {
  %1 = alloca %struct.lua_State*, align 4         ; [#uses=4]
  %2 = alloca i32, align 4                        ; [#uses=2]
  %o2 = alloca %struct.lua_TValue*, align 4       ; [#uses=3]
  %o1 = alloca %struct.lua_TValue*, align 4       ; [#uses=3]
  store %struct.lua_State* %L, %struct.lua_State** %1, align 4
  store i32 %idx, i32* %2, align 4
  %3 = load %struct.lua_State** %1, align 4       ; [#uses=1]
  %4 = load i32* %2, align 4                      ; [#uses=1]
  %5 = call %struct.lua_TValue* @_Z9index2adrP9lua_Statei(%struct.lua_State* %3, i32 %4) ; [#uses=1]
  store %struct.lua_TValue* %5, %struct.lua_TValue** %o2, align 4
  %6 = load %struct.lua_State** %1, align 4       ; [#uses=1]
  %7 = getelementptr inbounds %struct.lua_State* %6, i32 0, i32 4 ; [#uses=1]
  %8 = load %struct.lua_TValue** %7, align 4      ; [#uses=1]
  store %struct.lua_TValue* %8, %struct.lua_TValue** %o1, align 4
  %9 = load %struct.lua_TValue** %o1, align 4     ; [#uses=1]
  %10 = getelementptr inbounds %struct.lua_TValue* %9, i32 0, i32 0 ; [#uses=1]
  %11 = load %struct.lua_TValue** %o2, align 4    ; [#uses=1]
  %12 = getelementptr inbounds %struct.lua_TValue* %11, i32 0, i32 0 ; [#uses=1]
  %13 = bitcast %union.anon* %10 to i8*           ; [#uses=1]
  %14 = bitcast %union.anon* %12 to i8*           ; [#uses=1]
  call void @llvm.memcpy.p0i8.p0i8.i32(i8* %13, i8* %14, i32 8, i32 4, i1 false)
  %15 = load %struct.lua_TValue** %o2, align 4    ; [#uses=1]
  %16 = getelementptr inbounds %struct.lua_TValue* %15, i32 0, i32 1 ; [#uses=1]
  %17 = load i32* %16, align 4                    ; [#uses=1]
  %18 = load %struct.lua_TValue** %o1, align 4    ; [#uses=1]
  %19 = getelementptr inbounds %struct.lua_TValue* %18, i32 0, i32 1 ; [#uses=1]
  store i32 %17, i32* %19, align 4
  %20 = load %struct.lua_State** %1, align 4      ; [#uses=1]
  %21 = getelementptr inbounds %struct.lua_State* %20, i32 0, i32 4 ; [#uses=2]
  %22 = load %struct.lua_TValue** %21, align 4    ; [#uses=1]
  %23 = getelementptr inbounds %struct.lua_TValue* %22, i32 1 ; [#uses=1]
  store %struct.lua_TValue* %23, %struct.lua_TValue** %21, align 4
  ret void
}

; [#uses=61]
define i32 @_Z8lua_typeP9lua_Statei(%struct.lua_State* %L, i32 %idx) {
  %1 = alloca %struct.lua_State*, align 4         ; [#uses=2]
  %2 = alloca i32, align 4                        ; [#uses=2]
  %o = alloca %struct.lua_TValue*, align 4        ; [#uses=3]
  store %struct.lua_State* %L, %struct.lua_State** %1, align 4
  store i32 %idx, i32* %2, align 4
  %3 = load %struct.lua_State** %1, align 4       ; [#uses=1]
  %4 = load i32* %2, align 4                      ; [#uses=1]
  %5 = call %struct.lua_TValue* @_Z9index2adrP9lua_Statei(%struct.lua_State* %3, i32 %4) ; [#uses=1]
  store %struct.lua_TValue* %5, %struct.lua_TValue** %o, align 4
  %6 = load %struct.lua_TValue** %o, align 4      ; [#uses=1]
  %7 = icmp eq %struct.lua_TValue* %6, bitcast (%7* @luaO_nilobject_ to %struct.lua_TValue*) ; [#uses=1]
  br i1 %7, label %8, label %9

; <label>:8                                       ; preds = %0
  br label %13

; <label>:9                                       ; preds = %0
  %10 = load %struct.lua_TValue** %o, align 4     ; [#uses=1]
  %11 = getelementptr inbounds %struct.lua_TValue* %10, i32 0, i32 1 ; [#uses=1]
  %12 = load i32* %11, align 4                    ; [#uses=1]
  br label %13

; <label>:13                                      ; preds = %9, %8
  %14 = phi i32 [ -1, %8 ], [ %12, %9 ]           ; [#uses=1]
  ret i32 %14
}

; [#uses=6]
define i8* @_Z12lua_typenameP9lua_Statei(%struct.lua_State* %L, i32 %t) nounwind {
  %1 = alloca %struct.lua_State*, align 4         ; [#uses=1]
  %2 = alloca i32, align 4                        ; [#uses=3]
  store %struct.lua_State* %L, %struct.lua_State** %1, align 4
  store i32 %t, i32* %2, align 4
  %3 = load i32* %2, align 4                      ; [#uses=1]
  %4 = icmp eq i32 %3, -1                         ; [#uses=1]
  br i1 %4, label %5, label %6

; <label>:5                                       ; preds = %0
  br label %10

; <label>:6                                       ; preds = %0
  %7 = load i32* %2, align 4                      ; [#uses=1]
  %8 = getelementptr inbounds [0 x i8*]* bitcast ([11 x i8*]* @luaT_typenames to [0 x i8*]*), i32 0, i32 %7 ; [#uses=1]
  %9 = load i8** %8                               ; [#uses=1]
  br label %10

; <label>:10                                      ; preds = %6, %5
  %11 = phi i8* [ getelementptr inbounds ([9 x i8]* @.str129, i32 0, i32 0), %5 ], [ %9, %6 ] ; [#uses=1]
  ret i8* %11
}

; [#uses=5]
define i32 @_Z15lua_iscfunctionP9lua_Statei(%struct.lua_State* %L, i32 %idx) {
; <label>:0
  %1 = alloca %struct.lua_State*, align 4         ; [#uses=2]
  %2 = alloca i32, align 4                        ; [#uses=2]
  %o = alloca %struct.lua_TValue*, align 4        ; [#uses=3]
  store %struct.lua_State* %L, %struct.lua_State** %1, align 4
  store i32 %idx, i32* %2, align 4
  %3 = load %struct.lua_State** %1, align 4       ; [#uses=1]
  %4 = load i32* %2, align 4                      ; [#uses=1]
  %5 = call %struct.lua_TValue* @_Z9index2adrP9lua_Statei(%struct.lua_State* %3, i32 %4) ; [#uses=1]
  store %struct.lua_TValue* %5, %struct.lua_TValue** %o, align 4
  %6 = load %struct.lua_TValue** %o, align 4      ; [#uses=1]
  %7 = getelementptr inbounds %struct.lua_TValue* %6, i32 0, i32 1 ; [#uses=1]
  %8 = load i32* %7, align 4                      ; [#uses=1]
  %9 = icmp eq i32 %8, 6                          ; [#uses=1]
  br i1 %9, label %10, label %22

; <label>:10                                      ; preds = %0
  %11 = load %struct.lua_TValue** %o, align 4     ; [#uses=1]
  %12 = getelementptr inbounds %struct.lua_TValue* %11, i32 0, i32 0 ; [#uses=1]
  %13 = getelementptr inbounds %union.anon* %12, i32 0, i32 0 ; [#uses=1]
  %14 = bitcast double* %13 to %union.GCObject**  ; [#uses=1]
  %15 = load %union.GCObject** %14, align 4       ; [#uses=1]
  %16 = getelementptr inbounds %union.GCObject* %15, i32 0, i32 0 ; [#uses=1]
  %17 = bitcast %struct.lua_State* %16 to %union.Closure* ; [#uses=1]
  %18 = getelementptr inbounds %union.Closure* %17, i32 0, i32 0 ; [#uses=1]
  %19 = getelementptr inbounds %struct.CClosure* %18, i32 0, i32 3 ; [#uses=1]
  %20 = load i8* %19, align 1                     ; [#uses=1]
  %21 = icmp ne i8 %20, 0                         ; [#uses=1]
  br label %22

; <label>:22                                      ; preds = %10, %0
  %23 = phi i1 [ false, %0 ], [ %21, %10 ]        ; [#uses=1]
  %24 = zext i1 %23 to i32                        ; [#uses=1]
  ret i32 %24
}

; [#uses=7]
define i32 @_Z12lua_isnumberP9lua_Statei(%struct.lua_State* %L, i32 %idx) {
; <label>:0
  %1 = alloca %struct.lua_State*, align 4         ; [#uses=2]
  %2 = alloca i32, align 4                        ; [#uses=2]
  %n = alloca %struct.lua_TValue, align 4         ; [#uses=1]
  %o = alloca %struct.lua_TValue*, align 4        ; [#uses=4]
  store %struct.lua_State* %L, %struct.lua_State** %1, align 4
  store i32 %idx, i32* %2, align 4
  %3 = load %struct.lua_State** %1, align 4       ; [#uses=1]
  %4 = load i32* %2, align 4                      ; [#uses=1]
  %5 = call %struct.lua_TValue* @_Z9index2adrP9lua_Statei(%struct.lua_State* %3, i32 %4) ; [#uses=1]
  store %struct.lua_TValue* %5, %struct.lua_TValue** %o, align 4
  %6 = load %struct.lua_TValue** %o, align 4      ; [#uses=1]
  %7 = getelementptr inbounds %struct.lua_TValue* %6, i32 0, i32 1 ; [#uses=1]
  %8 = load i32* %7, align 4                      ; [#uses=1]
  %9 = icmp eq i32 %8, 3                          ; [#uses=1]
  br i1 %9, label %14, label %10

; <label>:10                                      ; preds = %0
  %11 = load %struct.lua_TValue** %o, align 4     ; [#uses=1]
  %12 = call %struct.lua_TValue* @_Z13luaV_tonumberPK10lua_TValuePS_(%struct.lua_TValue* %11, %struct.lua_TValue* %n) ; [#uses=2]
  store %struct.lua_TValue* %12, %struct.lua_TValue** %o, align 4
  %13 = icmp ne %struct.lua_TValue* %12, null     ; [#uses=1]
  br label %14

; <label>:14                                      ; preds = %10, %0
  %15 = phi i1 [ true, %0 ], [ %13, %10 ]         ; [#uses=1]
  %16 = zext i1 %15 to i32                        ; [#uses=1]
  ret i32 %16
}

; [#uses=8]
define i32 @_Z12lua_isstringP9lua_Statei(%struct.lua_State* %L, i32 %idx) {
; <label>:0
  %1 = alloca %struct.lua_State*, align 4         ; [#uses=2]
  %2 = alloca i32, align 4                        ; [#uses=2]
  %t = alloca i32, align 4                        ; [#uses=3]
  store %struct.lua_State* %L, %struct.lua_State** %1, align 4
  store i32 %idx, i32* %2, align 4
  %3 = load %struct.lua_State** %1, align 4       ; [#uses=1]
  %4 = load i32* %2, align 4                      ; [#uses=1]
  %5 = call i32 @_Z8lua_typeP9lua_Statei(%struct.lua_State* %3, i32 %4) ; [#uses=1]
  store i32 %5, i32* %t, align 4
  %6 = load i32* %t, align 4                      ; [#uses=1]
  %7 = icmp eq i32 %6, 4                          ; [#uses=1]
  br i1 %7, label %11, label %8

; <label>:8                                       ; preds = %0
  %9 = load i32* %t, align 4                      ; [#uses=1]
  %10 = icmp eq i32 %9, 3                         ; [#uses=1]
  br label %11

; <label>:11                                      ; preds = %8, %0
  %12 = phi i1 [ true, %0 ], [ %10, %8 ]          ; [#uses=1]
  %13 = zext i1 %12 to i32                        ; [#uses=1]
  ret i32 %13
}

; [#uses=0]
define i32 @_Z14lua_isuserdataP9lua_Statei(%struct.lua_State* %L, i32 %idx) {
; <label>:0
  %1 = alloca %struct.lua_State*, align 4         ; [#uses=2]
  %2 = alloca i32, align 4                        ; [#uses=2]
  %o = alloca %struct.lua_TValue*, align 4        ; [#uses=3]
  store %struct.lua_State* %L, %struct.lua_State** %1, align 4
  store i32 %idx, i32* %2, align 4
  %3 = load %struct.lua_State** %1, align 4       ; [#uses=1]
  %4 = load i32* %2, align 4                      ; [#uses=1]
  %5 = call %struct.lua_TValue* @_Z9index2adrP9lua_Statei(%struct.lua_State* %3, i32 %4) ; [#uses=1]
  store %struct.lua_TValue* %5, %struct.lua_TValue** %o, align 4
  %6 = load %struct.lua_TValue** %o, align 4      ; [#uses=1]
  %7 = getelementptr inbounds %struct.lua_TValue* %6, i32 0, i32 1 ; [#uses=1]
  %8 = load i32* %7, align 4                      ; [#uses=1]
  %9 = icmp eq i32 %8, 7                          ; [#uses=1]
  br i1 %9, label %15, label %10

; <label>:10                                      ; preds = %0
  %11 = load %struct.lua_TValue** %o, align 4     ; [#uses=1]
  %12 = getelementptr inbounds %struct.lua_TValue* %11, i32 0, i32 1 ; [#uses=1]
  %13 = load i32* %12, align 4                    ; [#uses=1]
  %14 = icmp eq i32 %13, 2                        ; [#uses=1]
  br label %15

; <label>:15                                      ; preds = %10, %0
  %16 = phi i1 [ true, %0 ], [ %14, %10 ]         ; [#uses=1]
  %17 = zext i1 %16 to i32                        ; [#uses=1]
  ret i32 %17
}

; [#uses=3]
define i32 @_Z12lua_rawequalP9lua_Stateii(%struct.lua_State* %L, i32 %index1, i32 %index2) {
  %1 = alloca %struct.lua_State*, align 4         ; [#uses=3]
  %2 = alloca i32, align 4                        ; [#uses=2]
  %3 = alloca i32, align 4                        ; [#uses=2]
  %o1 = alloca %struct.lua_TValue*, align 4       ; [#uses=3]
  %o2 = alloca %struct.lua_TValue*, align 4       ; [#uses=3]
  store %struct.lua_State* %L, %struct.lua_State** %1, align 4
  store i32 %index1, i32* %2, align 4
  store i32 %index2, i32* %3, align 4
  %4 = load %struct.lua_State** %1, align 4       ; [#uses=1]
  %5 = load i32* %2, align 4                      ; [#uses=1]
  %6 = call %struct.lua_TValue* @_Z9index2adrP9lua_Statei(%struct.lua_State* %4, i32 %5) ; [#uses=1]
  store %struct.lua_TValue* %6, %struct.lua_TValue** %o1, align 4
  %7 = load %struct.lua_State** %1, align 4       ; [#uses=1]
  %8 = load i32* %3, align 4                      ; [#uses=1]
  %9 = call %struct.lua_TValue* @_Z9index2adrP9lua_Statei(%struct.lua_State* %7, i32 %8) ; [#uses=1]
  store %struct.lua_TValue* %9, %struct.lua_TValue** %o2, align 4
  %10 = load %struct.lua_TValue** %o1, align 4    ; [#uses=1]
  %11 = icmp eq %struct.lua_TValue* %10, bitcast (%7* @luaO_nilobject_ to %struct.lua_TValue*) ; [#uses=1]
  br i1 %11, label %15, label %12

; <label>:12                                      ; preds = %0
  %13 = load %struct.lua_TValue** %o2, align 4    ; [#uses=1]
  %14 = icmp eq %struct.lua_TValue* %13, bitcast (%7* @luaO_nilobject_ to %struct.lua_TValue*) ; [#uses=1]
  br i1 %14, label %15, label %16

; <label>:15                                      ; preds = %12, %0
  br label %20

; <label>:16                                      ; preds = %12
  %17 = load %struct.lua_TValue** %o1, align 4    ; [#uses=1]
  %18 = load %struct.lua_TValue** %o2, align 4    ; [#uses=1]
  %19 = call i32 @_Z16luaO_rawequalObjPK10lua_TValueS1_(%struct.lua_TValue* %17, %struct.lua_TValue* %18) ; [#uses=1]
  br label %20

; <label>:20                                      ; preds = %16, %15
  %21 = phi i32 [ 0, %15 ], [ %19, %16 ]          ; [#uses=1]
  ret i32 %21
}

; [#uses=0]
define i32 @_Z9lua_equalP9lua_Stateii(%struct.lua_State* %L, i32 %index1, i32 %index2) {
  %1 = alloca %struct.lua_State*, align 4         ; [#uses=4]
  %2 = alloca i32, align 4                        ; [#uses=2]
  %3 = alloca i32, align 4                        ; [#uses=2]
  %o1 = alloca %struct.lua_TValue*, align 4       ; [#uses=4]
  %o2 = alloca %struct.lua_TValue*, align 4       ; [#uses=4]
  %i = alloca i32, align 4                        ; [#uses=2]
  store %struct.lua_State* %L, %struct.lua_State** %1, align 4
  store i32 %index1, i32* %2, align 4
  store i32 %index2, i32* %3, align 4
  %4 = load %struct.lua_State** %1, align 4       ; [#uses=1]
  %5 = load i32* %2, align 4                      ; [#uses=1]
  %6 = call %struct.lua_TValue* @_Z9index2adrP9lua_Statei(%struct.lua_State* %4, i32 %5) ; [#uses=1]
  store %struct.lua_TValue* %6, %struct.lua_TValue** %o1, align 4
  %7 = load %struct.lua_State** %1, align 4       ; [#uses=1]
  %8 = load i32* %3, align 4                      ; [#uses=1]
  %9 = call %struct.lua_TValue* @_Z9index2adrP9lua_Statei(%struct.lua_State* %7, i32 %8) ; [#uses=1]
  store %struct.lua_TValue* %9, %struct.lua_TValue** %o2, align 4
  %10 = load %struct.lua_TValue** %o1, align 4    ; [#uses=1]
  %11 = icmp eq %struct.lua_TValue* %10, bitcast (%7* @luaO_nilobject_ to %struct.lua_TValue*) ; [#uses=1]
  br i1 %11, label %15, label %12

; <label>:12                                      ; preds = %0
  %13 = load %struct.lua_TValue** %o2, align 4    ; [#uses=1]
  %14 = icmp eq %struct.lua_TValue* %13, bitcast (%7* @luaO_nilobject_ to %struct.lua_TValue*) ; [#uses=1]
  br i1 %14, label %15, label %16

; <label>:15                                      ; preds = %12, %0
  br label %33

; <label>:16                                      ; preds = %12
  %17 = load %struct.lua_TValue** %o1, align 4    ; [#uses=1]
  %18 = getelementptr inbounds %struct.lua_TValue* %17, i32 0, i32 1 ; [#uses=1]
  %19 = load i32* %18, align 4                    ; [#uses=1]
  %20 = load %struct.lua_TValue** %o2, align 4    ; [#uses=1]
  %21 = getelementptr inbounds %struct.lua_TValue* %20, i32 0, i32 1 ; [#uses=1]
  %22 = load i32* %21, align 4                    ; [#uses=1]
  %23 = icmp eq i32 %19, %22                      ; [#uses=1]
  br i1 %23, label %24, label %30

; <label>:24                                      ; preds = %16
  %25 = load %struct.lua_State** %1, align 4      ; [#uses=1]
  %26 = load %struct.lua_TValue** %o1, align 4    ; [#uses=1]
  %27 = load %struct.lua_TValue** %o2, align 4    ; [#uses=1]
  %28 = call i32 @_Z13luaV_equalvalP9lua_StatePK10lua_TValueS3_(%struct.lua_State* %25, %struct.lua_TValue* %26, %struct.lua_TValue* %27) ; [#uses=1]
  %29 = icmp ne i32 %28, 0                        ; [#uses=1]
  br label %30

; <label>:30                                      ; preds = %24, %16
  %31 = phi i1 [ false, %16 ], [ %29, %24 ]       ; [#uses=1]
  %32 = zext i1 %31 to i32                        ; [#uses=1]
  br label %33

; <label>:33                                      ; preds = %30, %15
  %34 = phi i32 [ 0, %15 ], [ %32, %30 ]          ; [#uses=1]
  store i32 %34, i32* %i, align 4
  %35 = load i32* %i, align 4                     ; [#uses=1]
  ret i32 %35
}

; [#uses=1]
define i32 @_Z12lua_lessthanP9lua_Stateii(%struct.lua_State* %L, i32 %index1, i32 %index2) {
  %1 = alloca %struct.lua_State*, align 4         ; [#uses=4]
  %2 = alloca i32, align 4                        ; [#uses=2]
  %3 = alloca i32, align 4                        ; [#uses=2]
  %o1 = alloca %struct.lua_TValue*, align 4       ; [#uses=3]
  %o2 = alloca %struct.lua_TValue*, align 4       ; [#uses=3]
  %i = alloca i32, align 4                        ; [#uses=2]
  store %struct.lua_State* %L, %struct.lua_State** %1, align 4
  store i32 %index1, i32* %2, align 4
  store i32 %index2, i32* %3, align 4
  %4 = load %struct.lua_State** %1, align 4       ; [#uses=1]
  %5 = load i32* %2, align 4                      ; [#uses=1]
  %6 = call %struct.lua_TValue* @_Z9index2adrP9lua_Statei(%struct.lua_State* %4, i32 %5) ; [#uses=1]
  store %struct.lua_TValue* %6, %struct.lua_TValue** %o1, align 4
  %7 = load %struct.lua_State** %1, align 4       ; [#uses=1]
  %8 = load i32* %3, align 4                      ; [#uses=1]
  %9 = call %struct.lua_TValue* @_Z9index2adrP9lua_Statei(%struct.lua_State* %7, i32 %8) ; [#uses=1]
  store %struct.lua_TValue* %9, %struct.lua_TValue** %o2, align 4
  %10 = load %struct.lua_TValue** %o1, align 4    ; [#uses=1]
  %11 = icmp eq %struct.lua_TValue* %10, bitcast (%7* @luaO_nilobject_ to %struct.lua_TValue*) ; [#uses=1]
  br i1 %11, label %15, label %12

; <label>:12                                      ; preds = %0
  %13 = load %struct.lua_TValue** %o2, align 4    ; [#uses=1]
  %14 = icmp eq %struct.lua_TValue* %13, bitcast (%7* @luaO_nilobject_ to %struct.lua_TValue*) ; [#uses=1]
  br i1 %14, label %15, label %16

; <label>:15                                      ; preds = %12, %0
  br label %21

; <label>:16                                      ; preds = %12
  %17 = load %struct.lua_State** %1, align 4      ; [#uses=1]
  %18 = load %struct.lua_TValue** %o1, align 4    ; [#uses=1]
  %19 = load %struct.lua_TValue** %o2, align 4    ; [#uses=1]
  %20 = call i32 @_Z13luaV_lessthanP9lua_StatePK10lua_TValueS3_(%struct.lua_State* %17, %struct.lua_TValue* %18, %struct.lua_TValue* %19) ; [#uses=1]
  br label %21

; <label>:21                                      ; preds = %16, %15
  %22 = phi i32 [ 0, %15 ], [ %20, %16 ]          ; [#uses=1]
  store i32 %22, i32* %i, align 4
  %23 = load i32* %i, align 4                     ; [#uses=1]
  ret i32 %23
}

; [#uses=5]
define double @_Z12lua_tonumberP9lua_Statei(%struct.lua_State* %L, i32 %idx) {
  %1 = alloca double, align 4                     ; [#uses=3]
  %2 = alloca %struct.lua_State*, align 4         ; [#uses=2]
  %3 = alloca i32, align 4                        ; [#uses=2]
  %n = alloca %struct.lua_TValue, align 4         ; [#uses=1]
  %o = alloca %struct.lua_TValue*, align 4        ; [#uses=5]
  store %struct.lua_State* %L, %struct.lua_State** %2, align 4
  store i32 %idx, i32* %3, align 4
  %4 = load %struct.lua_State** %2, align 4       ; [#uses=1]
  %5 = load i32* %3, align 4                      ; [#uses=1]
  %6 = call %struct.lua_TValue* @_Z9index2adrP9lua_Statei(%struct.lua_State* %4, i32 %5) ; [#uses=1]
  store %struct.lua_TValue* %6, %struct.lua_TValue** %o, align 4
  %7 = load %struct.lua_TValue** %o, align 4      ; [#uses=1]
  %8 = getelementptr inbounds %struct.lua_TValue* %7, i32 0, i32 1 ; [#uses=1]
  %9 = load i32* %8, align 4                      ; [#uses=1]
  %10 = icmp eq i32 %9, 3                         ; [#uses=1]
  br i1 %10, label %15, label %11

; <label>:11                                      ; preds = %0
  %12 = load %struct.lua_TValue** %o, align 4     ; [#uses=1]
  %13 = call %struct.lua_TValue* @_Z13luaV_tonumberPK10lua_TValuePS_(%struct.lua_TValue* %12, %struct.lua_TValue* %n) ; [#uses=2]
  store %struct.lua_TValue* %13, %struct.lua_TValue** %o, align 4
  %14 = icmp ne %struct.lua_TValue* %13, null     ; [#uses=1]
  br i1 %14, label %15, label %20

; <label>:15                                      ; preds = %11, %0
  %16 = load %struct.lua_TValue** %o, align 4     ; [#uses=1]
  %17 = getelementptr inbounds %struct.lua_TValue* %16, i32 0, i32 0 ; [#uses=1]
  %18 = getelementptr inbounds %union.anon* %17, i32 0, i32 0 ; [#uses=1]
  %19 = load double* %18, align 4                 ; [#uses=1]
  store double %19, double* %1
  br label %21

; <label>:20                                      ; preds = %11
  store double 0.000000e+00, double* %1
  br label %21

; <label>:21                                      ; preds = %20, %15
  %22 = load double* %1                           ; [#uses=1]
  ret double %22
}

; [#uses=7]
define i32 @_Z13lua_tointegerP9lua_Statei(%struct.lua_State* %L, i32 %idx) {
  %1 = alloca i32, align 4                        ; [#uses=3]
  %2 = alloca %struct.lua_State*, align 4         ; [#uses=2]
  %3 = alloca i32, align 4                        ; [#uses=2]
  %n = alloca %struct.lua_TValue, align 4         ; [#uses=1]
  %o = alloca %struct.lua_TValue*, align 4        ; [#uses=5]
  %res = alloca i32, align 4                      ; [#uses=2]
  %num = alloca double, align 8                   ; [#uses=2]
  store %struct.lua_State* %L, %struct.lua_State** %2, align 4
  store i32 %idx, i32* %3, align 4
  %4 = load %struct.lua_State** %2, align 4       ; [#uses=1]
  %5 = load i32* %3, align 4                      ; [#uses=1]
  %6 = call %struct.lua_TValue* @_Z9index2adrP9lua_Statei(%struct.lua_State* %4, i32 %5) ; [#uses=1]
  store %struct.lua_TValue* %6, %struct.lua_TValue** %o, align 4
  %7 = load %struct.lua_TValue** %o, align 4      ; [#uses=1]
  %8 = getelementptr inbounds %struct.lua_TValue* %7, i32 0, i32 1 ; [#uses=1]
  %9 = load i32* %8, align 4                      ; [#uses=1]
  %10 = icmp eq i32 %9, 3                         ; [#uses=1]
  br i1 %10, label %15, label %11

; <label>:11                                      ; preds = %0
  %12 = load %struct.lua_TValue** %o, align 4     ; [#uses=1]
  %13 = call %struct.lua_TValue* @_Z13luaV_tonumberPK10lua_TValuePS_(%struct.lua_TValue* %12, %struct.lua_TValue* %n) ; [#uses=2]
  store %struct.lua_TValue* %13, %struct.lua_TValue** %o, align 4
  %14 = icmp ne %struct.lua_TValue* %13, null     ; [#uses=1]
  br i1 %14, label %15, label %23

; <label>:15                                      ; preds = %11, %0
  %16 = load %struct.lua_TValue** %o, align 4     ; [#uses=1]
  %17 = getelementptr inbounds %struct.lua_TValue* %16, i32 0, i32 0 ; [#uses=1]
  %18 = getelementptr inbounds %union.anon* %17, i32 0, i32 0 ; [#uses=1]
  %19 = load double* %18, align 4                 ; [#uses=1]
  store double %19, double* %num, align 8
  %20 = load double* %num, align 8                ; [#uses=1]
  %21 = fptosi double %20 to i32                  ; [#uses=1]
  store i32 %21, i32* %res, align 4
  %22 = load i32* %res, align 4                   ; [#uses=1]
  store i32 %22, i32* %1
  br label %24

; <label>:23                                      ; preds = %11
  store i32 0, i32* %1
  br label %24

; <label>:24                                      ; preds = %23, %15
  %25 = load i32* %1                              ; [#uses=1]
  ret i32 %25
}

; [#uses=10]
define i32 @_Z13lua_tobooleanP9lua_Statei(%struct.lua_State* %L, i32 %idx) {
; <label>:0
  %1 = alloca %struct.lua_State*, align 4         ; [#uses=2]
  %2 = alloca i32, align 4                        ; [#uses=2]
  %o = alloca %struct.lua_TValue*, align 4        ; [#uses=4]
  store %struct.lua_State* %L, %struct.lua_State** %1, align 4
  store i32 %idx, i32* %2, align 4
  %3 = load %struct.lua_State** %1, align 4       ; [#uses=1]
  %4 = load i32* %2, align 4                      ; [#uses=1]
  %5 = call %struct.lua_TValue* @_Z9index2adrP9lua_Statei(%struct.lua_State* %3, i32 %4) ; [#uses=1]
  store %struct.lua_TValue* %5, %struct.lua_TValue** %o, align 4
  %6 = load %struct.lua_TValue** %o, align 4      ; [#uses=1]
  %7 = getelementptr inbounds %struct.lua_TValue* %6, i32 0, i32 1 ; [#uses=1]
  %8 = load i32* %7, align 4                      ; [#uses=1]
  %9 = icmp eq i32 %8, 0                          ; [#uses=1]
  br i1 %9, label %24, label %10

; <label>:10                                      ; preds = %0
  %11 = load %struct.lua_TValue** %o, align 4     ; [#uses=1]
  %12 = getelementptr inbounds %struct.lua_TValue* %11, i32 0, i32 1 ; [#uses=1]
  %13 = load i32* %12, align 4                    ; [#uses=1]
  %14 = icmp eq i32 %13, 1                        ; [#uses=1]
  br i1 %14, label %15, label %22

; <label>:15                                      ; preds = %10
  %16 = load %struct.lua_TValue** %o, align 4     ; [#uses=1]
  %17 = getelementptr inbounds %struct.lua_TValue* %16, i32 0, i32 0 ; [#uses=1]
  %18 = getelementptr inbounds %union.anon* %17, i32 0, i32 0 ; [#uses=1]
  %19 = bitcast double* %18 to i32*               ; [#uses=1]
  %20 = load i32* %19, align 4                    ; [#uses=1]
  %21 = icmp eq i32 %20, 0                        ; [#uses=1]
  br label %22

; <label>:22                                      ; preds = %15, %10
  %23 = phi i1 [ false, %10 ], [ %21, %15 ]       ; [#uses=1]
  br label %24

; <label>:24                                      ; preds = %22, %0
  %25 = phi i1 [ true, %0 ], [ %23, %22 ]         ; [#uses=1]
  %26 = xor i1 %25, true                          ; [#uses=1]
  %27 = zext i1 %26 to i32                        ; [#uses=1]
  ret i32 %27
}

; [#uses=29]
define i8* @_Z13lua_tolstringP9lua_StateiPj(%struct.lua_State* %L, i32 %idx, i32* %len) {
  %1 = alloca i8*, align 4                        ; [#uses=3]
  %2 = alloca %struct.lua_State*, align 4         ; [#uses=7]
  %3 = alloca i32, align 4                        ; [#uses=3]
  %4 = alloca i32*, align 4                       ; [#uses=5]
  %o = alloca %struct.lua_TValue*, align 4        ; [#uses=6]
  store %struct.lua_State* %L, %struct.lua_State** %2, align 4
  store i32 %idx, i32* %3, align 4
  store i32* %len, i32** %4, align 4
  %5 = load %struct.lua_State** %2, align 4       ; [#uses=1]
  %6 = load i32* %3, align 4                      ; [#uses=1]
  %7 = call %struct.lua_TValue* @_Z9index2adrP9lua_Statei(%struct.lua_State* %5, i32 %6) ; [#uses=1]
  store %struct.lua_TValue* %7, %struct.lua_TValue** %o, align 4
  %8 = load %struct.lua_TValue** %o, align 4      ; [#uses=1]
  %9 = getelementptr inbounds %struct.lua_TValue* %8, i32 0, i32 1 ; [#uses=1]
  %10 = load i32* %9, align 4                     ; [#uses=1]
  %11 = icmp eq i32 %10, 4                        ; [#uses=1]
  br i1 %11, label %41, label %12

; <label>:12                                      ; preds = %0
  %13 = load %struct.lua_State** %2, align 4      ; [#uses=1]
  %14 = load %struct.lua_TValue** %o, align 4     ; [#uses=1]
  %15 = call i32 @_Z13luaV_tostringP9lua_StateP10lua_TValue(%struct.lua_State* %13, %struct.lua_TValue* %14) ; [#uses=1]
  %16 = icmp ne i32 %15, 0                        ; [#uses=1]
  br i1 %16, label %23, label %17

; <label>:17                                      ; preds = %12
  %18 = load i32** %4, align 4                    ; [#uses=1]
  %19 = icmp ne i32* %18, null                    ; [#uses=1]
  br i1 %19, label %20, label %22

; <label>:20                                      ; preds = %17
  %21 = load i32** %4, align 4                    ; [#uses=1]
  store i32 0, i32* %21
  br label %22

; <label>:22                                      ; preds = %20, %17
  store i8* null, i8** %1
  br label %66

; <label>:23                                      ; preds = %12
  %24 = load %struct.lua_State** %2, align 4      ; [#uses=1]
  %25 = getelementptr inbounds %struct.lua_State* %24, i32 0, i32 6 ; [#uses=1]
  %26 = load %struct.global_State** %25, align 4  ; [#uses=1]
  %27 = getelementptr inbounds %struct.global_State* %26, i32 0, i32 14 ; [#uses=1]
  %28 = load i32* %27, align 4                    ; [#uses=1]
  %29 = load %struct.lua_State** %2, align 4      ; [#uses=1]
  %30 = getelementptr inbounds %struct.lua_State* %29, i32 0, i32 6 ; [#uses=1]
  %31 = load %struct.global_State** %30, align 4  ; [#uses=1]
  %32 = getelementptr inbounds %struct.global_State* %31, i32 0, i32 13 ; [#uses=1]
  %33 = load i32* %32, align 4                    ; [#uses=1]
  %34 = icmp uge i32 %28, %33                     ; [#uses=1]
  br i1 %34, label %35, label %37

; <label>:35                                      ; preds = %23
  %36 = load %struct.lua_State** %2, align 4      ; [#uses=1]
  call void @_Z9luaC_stepP9lua_State(%struct.lua_State* %36)
  br label %37

; <label>:37                                      ; preds = %35, %23
  %38 = load %struct.lua_State** %2, align 4      ; [#uses=1]
  %39 = load i32* %3, align 4                     ; [#uses=1]
  %40 = call %struct.lua_TValue* @_Z9index2adrP9lua_Statei(%struct.lua_State* %38, i32 %39) ; [#uses=1]
  store %struct.lua_TValue* %40, %struct.lua_TValue** %o, align 4
  br label %41

; <label>:41                                      ; preds = %37, %0
  %42 = load i32** %4, align 4                    ; [#uses=1]
  %43 = icmp ne i32* %42, null                    ; [#uses=1]
  br i1 %43, label %44, label %56

; <label>:44                                      ; preds = %41
  %45 = load %struct.lua_TValue** %o, align 4     ; [#uses=1]
  %46 = getelementptr inbounds %struct.lua_TValue* %45, i32 0, i32 0 ; [#uses=1]
  %47 = getelementptr inbounds %union.anon* %46, i32 0, i32 0 ; [#uses=1]
  %48 = bitcast double* %47 to %union.GCObject**  ; [#uses=1]
  %49 = load %union.GCObject** %48, align 4       ; [#uses=1]
  %50 = getelementptr inbounds %union.GCObject* %49, i32 0, i32 0 ; [#uses=1]
  %51 = bitcast %struct.lua_State* %50 to %union.TString* ; [#uses=1]
  %52 = getelementptr inbounds %union.TString* %51, i32 0, i32 0 ; [#uses=1]
  %53 = getelementptr inbounds %struct.anon* %52, i32 0, i32 5 ; [#uses=1]
  %54 = load i32* %53, align 4                    ; [#uses=1]
  %55 = load i32** %4, align 4                    ; [#uses=1]
  store i32 %54, i32* %55
  br label %56

; <label>:56                                      ; preds = %44, %41
  %57 = load %struct.lua_TValue** %o, align 4     ; [#uses=1]
  %58 = getelementptr inbounds %struct.lua_TValue* %57, i32 0, i32 0 ; [#uses=1]
  %59 = getelementptr inbounds %union.anon* %58, i32 0, i32 0 ; [#uses=1]
  %60 = bitcast double* %59 to %union.GCObject**  ; [#uses=1]
  %61 = load %union.GCObject** %60, align 4       ; [#uses=1]
  %62 = getelementptr inbounds %union.GCObject* %61, i32 0, i32 0 ; [#uses=1]
  %63 = bitcast %struct.lua_State* %62 to %union.TString* ; [#uses=1]
  %64 = getelementptr inbounds %union.TString* %63, i32 1 ; [#uses=1]
  %65 = bitcast %union.TString* %64 to i8*        ; [#uses=1]
  store i8* %65, i8** %1
  br label %66

; <label>:66                                      ; preds = %56, %22
  %67 = load i8** %1                              ; [#uses=1]
  ret i8* %67
}

; [#uses=13]
define i32 @_Z10lua_objlenP9lua_Statei(%struct.lua_State* %L, i32 %idx) {
  %1 = alloca i32, align 4                        ; [#uses=6]
  %2 = alloca %struct.lua_State*, align 4         ; [#uses=3]
  %3 = alloca i32, align 4                        ; [#uses=2]
  %o = alloca %struct.lua_TValue*, align 4        ; [#uses=7]
  %l = alloca i32, align 4                        ; [#uses=2]
  store %struct.lua_State* %L, %struct.lua_State** %2, align 4
  store i32 %idx, i32* %3, align 4
  %4 = load %struct.lua_State** %2, align 4       ; [#uses=1]
  %5 = load i32* %3, align 4                      ; [#uses=1]
  %6 = call %struct.lua_TValue* @_Z9index2adrP9lua_Statei(%struct.lua_State* %4, i32 %5) ; [#uses=1]
  store %struct.lua_TValue* %6, %struct.lua_TValue** %o, align 4
  %7 = load %struct.lua_TValue** %o, align 4      ; [#uses=1]
  %8 = getelementptr inbounds %struct.lua_TValue* %7, i32 0, i32 1 ; [#uses=1]
  %9 = load i32* %8, align 4                      ; [#uses=1]
  switch i32 %9, label %61 [
    i32 4, label %10
    i32 7, label %21
    i32 5, label %32
    i32 3, label %41
  ]

; <label>:10                                      ; preds = %0
  %11 = load %struct.lua_TValue** %o, align 4     ; [#uses=1]
  %12 = getelementptr inbounds %struct.lua_TValue* %11, i32 0, i32 0 ; [#uses=1]
  %13 = getelementptr inbounds %union.anon* %12, i32 0, i32 0 ; [#uses=1]
  %14 = bitcast double* %13 to %union.GCObject**  ; [#uses=1]
  %15 = load %union.GCObject** %14, align 4       ; [#uses=1]
  %16 = getelementptr inbounds %union.GCObject* %15, i32 0, i32 0 ; [#uses=1]
  %17 = bitcast %struct.lua_State* %16 to %union.TString* ; [#uses=1]
  %18 = getelementptr inbounds %union.TString* %17, i32 0, i32 0 ; [#uses=1]
  %19 = getelementptr inbounds %struct.anon* %18, i32 0, i32 5 ; [#uses=1]
  %20 = load i32* %19, align 4                    ; [#uses=1]
  store i32 %20, i32* %1
  br label %62

; <label>:21                                      ; preds = %0
  %22 = load %struct.lua_TValue** %o, align 4     ; [#uses=1]
  %23 = getelementptr inbounds %struct.lua_TValue* %22, i32 0, i32 0 ; [#uses=1]
  %24 = getelementptr inbounds %union.anon* %23, i32 0, i32 0 ; [#uses=1]
  %25 = bitcast double* %24 to %union.GCObject**  ; [#uses=1]
  %26 = load %union.GCObject** %25, align 4       ; [#uses=1]
  %27 = getelementptr inbounds %union.GCObject* %26, i32 0, i32 0 ; [#uses=1]
  %28 = bitcast %struct.lua_State* %27 to %union.Udata* ; [#uses=1]
  %29 = getelementptr inbounds %union.Udata* %28, i32 0, i32 0 ; [#uses=1]
  %30 = getelementptr inbounds %4* %29, i32 0, i32 5 ; [#uses=1]
  %31 = load i32* %30, align 4                    ; [#uses=1]
  store i32 %31, i32* %1
  br label %62

; <label>:32                                      ; preds = %0
  %33 = load %struct.lua_TValue** %o, align 4     ; [#uses=1]
  %34 = getelementptr inbounds %struct.lua_TValue* %33, i32 0, i32 0 ; [#uses=1]
  %35 = getelementptr inbounds %union.anon* %34, i32 0, i32 0 ; [#uses=1]
  %36 = bitcast double* %35 to %union.GCObject**  ; [#uses=1]
  %37 = load %union.GCObject** %36, align 4       ; [#uses=1]
  %38 = getelementptr inbounds %union.GCObject* %37, i32 0, i32 0 ; [#uses=1]
  %39 = bitcast %struct.lua_State* %38 to %struct.Table* ; [#uses=1]
  %40 = call i32 @_Z9luaH_getnP5Table(%struct.Table* %39) ; [#uses=1]
  store i32 %40, i32* %1
  br label %62

; <label>:41                                      ; preds = %0
  %42 = load %struct.lua_State** %2, align 4      ; [#uses=1]
  %43 = load %struct.lua_TValue** %o, align 4     ; [#uses=1]
  %44 = call i32 @_Z13luaV_tostringP9lua_StateP10lua_TValue(%struct.lua_State* %42, %struct.lua_TValue* %43) ; [#uses=1]
  %45 = icmp ne i32 %44, 0                        ; [#uses=1]
  br i1 %45, label %46, label %57

; <label>:46                                      ; preds = %41
  %47 = load %struct.lua_TValue** %o, align 4     ; [#uses=1]
  %48 = getelementptr inbounds %struct.lua_TValue* %47, i32 0, i32 0 ; [#uses=1]
  %49 = getelementptr inbounds %union.anon* %48, i32 0, i32 0 ; [#uses=1]
  %50 = bitcast double* %49 to %union.GCObject**  ; [#uses=1]
  %51 = load %union.GCObject** %50, align 4       ; [#uses=1]
  %52 = getelementptr inbounds %union.GCObject* %51, i32 0, i32 0 ; [#uses=1]
  %53 = bitcast %struct.lua_State* %52 to %union.TString* ; [#uses=1]
  %54 = getelementptr inbounds %union.TString* %53, i32 0, i32 0 ; [#uses=1]
  %55 = getelementptr inbounds %struct.anon* %54, i32 0, i32 5 ; [#uses=1]
  %56 = load i32* %55, align 4                    ; [#uses=1]
  br label %58

; <label>:57                                      ; preds = %41
  br label %58

; <label>:58                                      ; preds = %57, %46
  %59 = phi i32 [ %56, %46 ], [ 0, %57 ]          ; [#uses=1]
  store i32 %59, i32* %l, align 4
  %60 = load i32* %l, align 4                     ; [#uses=1]
  store i32 %60, i32* %1
  br label %62

; <label>:61                                      ; preds = %0
  store i32 0, i32* %1
  br label %62

; <label>:62                                      ; preds = %61, %58, %32, %21, %10
  %63 = load i32* %1                              ; [#uses=1]
  ret i32 %63
}

; [#uses=1]
define i32 (%struct.lua_State*)* @_Z15lua_tocfunctionP9lua_Statei(%struct.lua_State* %L, i32 %idx) {
  %1 = alloca %struct.lua_State*, align 4         ; [#uses=2]
  %2 = alloca i32, align 4                        ; [#uses=2]
  %o = alloca %struct.lua_TValue*, align 4        ; [#uses=4]
  store %struct.lua_State* %L, %struct.lua_State** %1, align 4
  store i32 %idx, i32* %2, align 4
  %3 = load %struct.lua_State** %1, align 4       ; [#uses=1]
  %4 = load i32* %2, align 4                      ; [#uses=1]
  %5 = call %struct.lua_TValue* @_Z9index2adrP9lua_Statei(%struct.lua_State* %3, i32 %4) ; [#uses=1]
  store %struct.lua_TValue* %5, %struct.lua_TValue** %o, align 4
  %6 = load %struct.lua_TValue** %o, align 4      ; [#uses=1]
  %7 = getelementptr inbounds %struct.lua_TValue* %6, i32 0, i32 1 ; [#uses=1]
  %8 = load i32* %7, align 4                      ; [#uses=1]
  %9 = icmp eq i32 %8, 6                          ; [#uses=1]
  br i1 %9, label %10, label %22

; <label>:10                                      ; preds = %0
  %11 = load %struct.lua_TValue** %o, align 4     ; [#uses=1]
  %12 = getelementptr inbounds %struct.lua_TValue* %11, i32 0, i32 0 ; [#uses=1]
  %13 = getelementptr inbounds %union.anon* %12, i32 0, i32 0 ; [#uses=1]
  %14 = bitcast double* %13 to %union.GCObject**  ; [#uses=1]
  %15 = load %union.GCObject** %14, align 4       ; [#uses=1]
  %16 = getelementptr inbounds %union.GCObject* %15, i32 0, i32 0 ; [#uses=1]
  %17 = bitcast %struct.lua_State* %16 to %union.Closure* ; [#uses=1]
  %18 = getelementptr inbounds %union.Closure* %17, i32 0, i32 0 ; [#uses=1]
  %19 = getelementptr inbounds %struct.CClosure* %18, i32 0, i32 3 ; [#uses=1]
  %20 = load i8* %19, align 1                     ; [#uses=1]
  %21 = icmp ne i8 %20, 0                         ; [#uses=1]
  br i1 %21, label %23, label %22

; <label>:22                                      ; preds = %10, %0
  br label %34

; <label>:23                                      ; preds = %10
  %24 = load %struct.lua_TValue** %o, align 4     ; [#uses=1]
  %25 = getelementptr inbounds %struct.lua_TValue* %24, i32 0, i32 0 ; [#uses=1]
  %26 = getelementptr inbounds %union.anon* %25, i32 0, i32 0 ; [#uses=1]
  %27 = bitcast double* %26 to %union.GCObject**  ; [#uses=1]
  %28 = load %union.GCObject** %27, align 4       ; [#uses=1]
  %29 = getelementptr inbounds %union.GCObject* %28, i32 0, i32 0 ; [#uses=1]
  %30 = bitcast %struct.lua_State* %29 to %union.Closure* ; [#uses=1]
  %31 = getelementptr inbounds %union.Closure* %30, i32 0, i32 0 ; [#uses=1]
  %32 = getelementptr inbounds %struct.CClosure* %31, i32 0, i32 7 ; [#uses=1]
  %33 = load i32 (%struct.lua_State*)** %32, align 4 ; [#uses=1]
  br label %34

; <label>:34                                      ; preds = %23, %22
  %35 = phi i32 (%struct.lua_State*)* [ null, %22 ], [ %33, %23 ] ; [#uses=1]
  ret i32 (%struct.lua_State*)* %35
}

; [#uses=9]
define i8* @_Z14lua_touserdataP9lua_Statei(%struct.lua_State* %L, i32 %idx) {
  %1 = alloca i8*, align 4                        ; [#uses=4]
  %2 = alloca %struct.lua_State*, align 4         ; [#uses=2]
  %3 = alloca i32, align 4                        ; [#uses=2]
  %o = alloca %struct.lua_TValue*, align 4        ; [#uses=4]
  store %struct.lua_State* %L, %struct.lua_State** %2, align 4
  store i32 %idx, i32* %3, align 4
  %4 = load %struct.lua_State** %2, align 4       ; [#uses=1]
  %5 = load i32* %3, align 4                      ; [#uses=1]
  %6 = call %struct.lua_TValue* @_Z9index2adrP9lua_Statei(%struct.lua_State* %4, i32 %5) ; [#uses=1]
  store %struct.lua_TValue* %6, %struct.lua_TValue** %o, align 4
  %7 = load %struct.lua_TValue** %o, align 4      ; [#uses=1]
  %8 = getelementptr inbounds %struct.lua_TValue* %7, i32 0, i32 1 ; [#uses=1]
  %9 = load i32* %8, align 4                      ; [#uses=1]
  switch i32 %9, label %26 [
    i32 7, label %10
    i32 2, label %20
  ]

; <label>:10                                      ; preds = %0
  %11 = load %struct.lua_TValue** %o, align 4     ; [#uses=1]
  %12 = getelementptr inbounds %struct.lua_TValue* %11, i32 0, i32 0 ; [#uses=1]
  %13 = getelementptr inbounds %union.anon* %12, i32 0, i32 0 ; [#uses=1]
  %14 = bitcast double* %13 to %union.GCObject**  ; [#uses=1]
  %15 = load %union.GCObject** %14, align 4       ; [#uses=1]
  %16 = getelementptr inbounds %union.GCObject* %15, i32 0, i32 0 ; [#uses=1]
  %17 = bitcast %struct.lua_State* %16 to %union.Udata* ; [#uses=1]
  %18 = getelementptr inbounds %union.Udata* %17, i32 1 ; [#uses=1]
  %19 = bitcast %union.Udata* %18 to i8*          ; [#uses=1]
  store i8* %19, i8** %1
  br label %27

; <label>:20                                      ; preds = %0
  %21 = load %struct.lua_TValue** %o, align 4     ; [#uses=1]
  %22 = getelementptr inbounds %struct.lua_TValue* %21, i32 0, i32 0 ; [#uses=1]
  %23 = getelementptr inbounds %union.anon* %22, i32 0, i32 0 ; [#uses=1]
  %24 = bitcast double* %23 to i8**               ; [#uses=1]
  %25 = load i8** %24, align 4                    ; [#uses=1]
  store i8* %25, i8** %1
  br label %27

; <label>:26                                      ; preds = %0
  store i8* null, i8** %1
  br label %27

; <label>:27                                      ; preds = %26, %20, %10
  %28 = load i8** %1                              ; [#uses=1]
  ret i8* %28
}

; [#uses=4]
define %struct.lua_State* @_Z12lua_tothreadP9lua_Statei(%struct.lua_State* %L, i32 %idx) {
  %1 = alloca %struct.lua_State*, align 4         ; [#uses=2]
  %2 = alloca i32, align 4                        ; [#uses=2]
  %o = alloca %struct.lua_TValue*, align 4        ; [#uses=3]
  store %struct.lua_State* %L, %struct.lua_State** %1, align 4
  store i32 %idx, i32* %2, align 4
  %3 = load %struct.lua_State** %1, align 4       ; [#uses=1]
  %4 = load i32* %2, align 4                      ; [#uses=1]
  %5 = call %struct.lua_TValue* @_Z9index2adrP9lua_Statei(%struct.lua_State* %3, i32 %4) ; [#uses=1]
  store %struct.lua_TValue* %5, %struct.lua_TValue** %o, align 4
  %6 = load %struct.lua_TValue** %o, align 4      ; [#uses=1]
  %7 = getelementptr inbounds %struct.lua_TValue* %6, i32 0, i32 1 ; [#uses=1]
  %8 = load i32* %7, align 4                      ; [#uses=1]
  %9 = icmp eq i32 %8, 8                          ; [#uses=1]
  br i1 %9, label %11, label %10

; <label>:10                                      ; preds = %0
  br label %18

; <label>:11                                      ; preds = %0
  %12 = load %struct.lua_TValue** %o, align 4     ; [#uses=1]
  %13 = getelementptr inbounds %struct.lua_TValue* %12, i32 0, i32 0 ; [#uses=1]
  %14 = getelementptr inbounds %union.anon* %13, i32 0, i32 0 ; [#uses=1]
  %15 = bitcast double* %14 to %union.GCObject**  ; [#uses=1]
  %16 = load %union.GCObject** %15, align 4       ; [#uses=1]
  %17 = getelementptr inbounds %union.GCObject* %16, i32 0, i32 0 ; [#uses=1]
  br label %18

; <label>:18                                      ; preds = %11, %10
  %19 = phi %struct.lua_State* [ null, %10 ], [ %17, %11 ] ; [#uses=1]
  ret %struct.lua_State* %19
}

; [#uses=1]
define i8* @_Z13lua_topointerP9lua_Statei(%struct.lua_State* %L, i32 %idx) {
  %1 = alloca i8*, align 4                        ; [#uses=6]
  %2 = alloca %struct.lua_State*, align 4         ; [#uses=3]
  %3 = alloca i32, align 4                        ; [#uses=3]
  %o = alloca %struct.lua_TValue*, align 4        ; [#uses=5]
  store %struct.lua_State* %L, %struct.lua_State** %2, align 4
  store i32 %idx, i32* %3, align 4
  %4 = load %struct.lua_State** %2, align 4       ; [#uses=1]
  %5 = load i32* %3, align 4                      ; [#uses=1]
  %6 = call %struct.lua_TValue* @_Z9index2adrP9lua_Statei(%struct.lua_State* %4, i32 %5) ; [#uses=1]
  store %struct.lua_TValue* %6, %struct.lua_TValue** %o, align 4
  %7 = load %struct.lua_TValue** %o, align 4      ; [#uses=1]
  %8 = getelementptr inbounds %struct.lua_TValue* %7, i32 0, i32 1 ; [#uses=1]
  %9 = load i32* %8, align 4                      ; [#uses=1]
  switch i32 %9, label %40 [
    i32 5, label %10
    i32 6, label %19
    i32 8, label %28
    i32 7, label %36
    i32 2, label %36
  ]

; <label>:10                                      ; preds = %0
  %11 = load %struct.lua_TValue** %o, align 4     ; [#uses=1]
  %12 = getelementptr inbounds %struct.lua_TValue* %11, i32 0, i32 0 ; [#uses=1]
  %13 = getelementptr inbounds %union.anon* %12, i32 0, i32 0 ; [#uses=1]
  %14 = bitcast double* %13 to %union.GCObject**  ; [#uses=1]
  %15 = load %union.GCObject** %14, align 4       ; [#uses=1]
  %16 = getelementptr inbounds %union.GCObject* %15, i32 0, i32 0 ; [#uses=1]
  %17 = bitcast %struct.lua_State* %16 to %struct.Table* ; [#uses=1]
  %18 = bitcast %struct.Table* %17 to i8*         ; [#uses=1]
  store i8* %18, i8** %1
  br label %41

; <label>:19                                      ; preds = %0
  %20 = load %struct.lua_TValue** %o, align 4     ; [#uses=1]
  %21 = getelementptr inbounds %struct.lua_TValue* %20, i32 0, i32 0 ; [#uses=1]
  %22 = getelementptr inbounds %union.anon* %21, i32 0, i32 0 ; [#uses=1]
  %23 = bitcast double* %22 to %union.GCObject**  ; [#uses=1]
