
sanitizer_stoptheworld_linux_libcdep.cc.o:

sanitizer_symbolizer_mac.cc.o:

sanitizer_procmaps_mac.cc.o:

sanitizer_libc.cc.o:
         U _ZN11__sanitizer11CheckFailedEPKciS1_yy
-------- T _ZN11__sanitizer11mem_is_zeroEPKcm
         U _ZN11__sanitizer13InternalAllocEmPNS_28SizeClassAllocatorLocalCacheINS_20SizeClassAllocator32INS_4AP32EEEEEm
-------- T _ZN11__sanitizer14internal_atollEPKc
-------- T _ZN11__sanitizer15internal_memchrEPKvim
-------- T _ZN11__sanitizer15internal_memcmpEPKvS1_m
-------- T _ZN11__sanitizer15internal_memcpyEPvPKvm
-------- T _ZN11__sanitizer15internal_memsetEPvim
-------- T _ZN11__sanitizer15internal_strchrEPKci
-------- T _ZN11__sanitizer15internal_strcmpEPKcS1_
-------- T _ZN11__sanitizer15internal_strdupEPKc
-------- T _ZN11__sanitizer15internal_strlenEPKc
-------- T _ZN11__sanitizer15internal_strstrEPKcS1_
-------- T _ZN11__sanitizer16internal_memmoveEPvPKvm
-------- T _ZN11__sanitizer16internal_memrchrEPKvim
-------- T _ZN11__sanitizer16internal_strcspnEPKcS1_
-------- T _ZN11__sanitizer16internal_strlcatEPcPKcm
-------- T _ZN11__sanitizer16internal_strlcpyEPcPKcm
-------- T _ZN11__sanitizer16internal_strncatEPcPKcm
-------- T _ZN11__sanitizer16internal_strncmpEPKcS1_m
-------- T _ZN11__sanitizer16internal_strncpyEPcPKcm
-------- T _ZN11__sanitizer16internal_strnlenEPKcm
-------- T _ZN11__sanitizer16internal_strrchrEPKci
-------- T _ZN11__sanitizer18internal_strchrnulEPKci
-------- T _ZN11__sanitizer23internal_simple_strtollEPKcPS1_i

sanitizer_allocator.cc.o:
         U _ZN11__sanitizer10UnmapOrDieEPvm
         U _ZN11__sanitizer11CheckFailedEPKciS1_yy
         U _ZN11__sanitizer11GetPageSizeEv
-------- T _ZN11__sanitizer12InternalFreeEPvPNS_28SizeClassAllocatorLocalCacheINS_20SizeClassAllocator32INS_4AP32EEEEE
-------- T _ZN11__sanitizer13InternalAllocEmPNS_28SizeClassAllocatorLocalCacheINS_20SizeClassAllocator32INS_4AP32EEEEEm
-------- T _ZN11__sanitizer14InternalCallocEmmPNS_28SizeClassAllocatorLocalCacheINS_20SizeClassAllocator32INS_4AP32EEEEE
         U _ZN11__sanitizer14PageSizeCachedE
-------- T _ZN11__sanitizer15InternalReallocEPvmPNS_28SizeClassAllocatorLocalCacheINS_20SizeClassAllocator32INS_4AP32EEEEE
-------- W _ZN11__sanitizer15StaticSpinMutex8LockSlowEv
         U _ZN11__sanitizer15internal_memcpyEPvPKvm
         U _ZN11__sanitizer15internal_memsetEPvim
-------- W _ZN11__sanitizer17CombinedAllocatorINS_20SizeClassAllocator32INS_4AP32EEENS_28SizeClassAllocatorLocalCacheIS3_EENS_18LargeMmapAllocatorINS_20NoOpMapUnmapCallbackENS_32LargeMmapAllocatorPtrArrayStaticENS_21LocalAddressSpaceViewEEES9_E10ReallocateEPS5_Pvmm
-------- W _ZN11__sanitizer17CombinedAllocatorINS_20SizeClassAllocator32INS_4AP32EEENS_28SizeClassAllocatorLocalCacheIS3_EENS_18LargeMmapAllocatorINS_20NoOpMapUnmapCallbackENS_32LargeMmapAllocatorPtrArrayStaticENS_21LocalAddressSpaceViewEEES9_E24GetActuallyAllocatedSizeEPv
-------- W _ZN11__sanitizer17CombinedAllocatorINS_20SizeClassAllocator32INS_4AP32EEENS_28SizeClassAllocatorLocalCacheIS3_EENS_18LargeMmapAllocatorINS_20NoOpMapUnmapCallbackENS_32LargeMmapAllocatorPtrArrayStaticENS_21LocalAddressSpaceViewEEES9_E8AllocateEPS5_mm
-------- T _ZN11__sanitizer17LowLevelAllocator8AllocateEm
         U _ZN11__sanitizer17SanitizerToolNameE
-------- W _ZN11__sanitizer18LargeMmapAllocatorINS_20NoOpMapUnmapCallbackENS_32LargeMmapAllocatorPtrArrayStaticENS_21LocalAddressSpaceViewEE10DeallocateEPNS_14AllocatorStatsEPv
-------- W _ZN11__sanitizer18LargeMmapAllocatorINS_20NoOpMapUnmapCallbackENS_32LargeMmapAllocatorPtrArrayStaticENS_21LocalAddressSpaceViewEE13GetBlockBeginEPKv
-------- W _ZN11__sanitizer18LargeMmapAllocatorINS_20NoOpMapUnmapCallbackENS_32LargeMmapAllocatorPtrArrayStaticENS_21LocalAddressSpaceViewEE8AllocateEPNS_14AllocatorStatsEmm
-------- T _ZN11__sanitizer18internal_allocatorEv
-------- D _ZN11__sanitizer20PrimaryAllocatorNameE
-------- W _ZN11__sanitizer20SizeClassAllocator32INS_4AP32EE13AllocateBatchEPNS_14AllocatorStatsEPNS_30SizeClassAllocator32LocalCacheIS2_EEm
-------- W _ZN11__sanitizer20SizeClassAllocator32INS_4AP32EE15DeallocateBatchEPNS_14AllocatorStatsEmPNS2_13TransferBatchE
-------- W _ZN11__sanitizer20SizeClassAllocator32INS_4AP32EE16PopulateFreeListEPNS_14AllocatorStatsEPNS_30SizeClassAllocator32LocalCacheIS2_EEPNS2_13SizeClassInfoEm
         U _ZN11__sanitizer20internal_sched_yieldEv
         U _ZN11__sanitizer21MmapOrDieOnFatalErrorEmPKc
-------- T _ZN11__sanitizer22AllocatorMayReturnNullEv
-------- T _ZN11__sanitizer22IsAllocatorOutOfMemoryEv
-------- D _ZN11__sanitizer22SecondaryAllocatorNameE
-------- T _ZN11__sanitizer23SetAllocatorOutOfMemoryEv
-------- T _ZN11__sanitizer25SetAllocatorMayReturnNullEb
-------- T _ZN11__sanitizer27SetLowLevelAllocateCallbackEPFvmmE
         U _ZN11__sanitizer28MmapAlignedOrDieOnFatalErrorEmmPKc
-------- W _ZN11__sanitizer30SizeClassAllocator32LocalCacheINS_20SizeClassAllocator32INS_4AP32EEEE10DeallocateEPS3_mPv
-------- W _ZN11__sanitizer30SizeClassAllocator32LocalCacheINS_20SizeClassAllocator32INS_4AP32EEEE5DrainEPNS4_8PerClassEPS3_m
-------- W _ZN11__sanitizer30SizeClassAllocator32LocalCacheINS_20SizeClassAllocator32INS_4AP32EEEE6RefillEPNS4_8PerClassEPS3_m
-------- W _ZN11__sanitizer30SizeClassAllocator32LocalCacheINS_20SizeClassAllocator32INS_4AP32EEEE8AllocateEPS3_m
-------- T _ZN11__sanitizer31SetLowLevelAllocateMinAlignmentEm
-------- T _ZN11__sanitizer34PrintHintAllocatorCannotReturnNullEv
         U _ZN11__sanitizer3DieEv
         U _ZN11__sanitizer6ReportEPKcz
         U _ZN11__sanitizer8RawWriteEPKc
         U _ZN11__sanitizer9MmapOrDieEmPKcb
         U __stack_pointer

sanitizer_file.cc.o:
         U _ZN11__sanitizer10FileExistsEPKc
-------- T _ZN11__sanitizer10ReportFile13SetReportPathEPKc
-------- T _ZN11__sanitizer10ReportFile17ReopenIfNecessaryEv
         U _ZN11__sanitizer10ReportFile5WriteEPKcm
         U _ZN11__sanitizer10UnmapOrDieEPvm
         U _ZN11__sanitizer11CheckFailedEPKciS1_yy
         U _ZN11__sanitizer11GetPageSizeEv
         U _ZN11__sanitizer11WriteToFileEiPKvmPmPi
-------- D _ZN11__sanitizer11report_fileE
         U _ZN11__sanitizer12ReadFromFileEiPvmPmPi
         U _ZN11__sanitizer14GetProcessNameEv
         U _ZN11__sanitizer14PageSizeCachedE
-------- D _ZN11__sanitizer14report_file_muE
-------- W _ZN11__sanitizer15StaticSpinMutex8LockSlowEv
         U _ZN11__sanitizer15internal_getpidEv
         U _ZN11__sanitizer15internal_memcpyEPvPKvm
         U _ZN11__sanitizer15internal_memsetEPvim
         U _ZN11__sanitizer15internal_strcmpEPKcS1_
         U _ZN11__sanitizer15internal_strdupEPKc
         U _ZN11__sanitizer15internal_strlenEPKc
-------- T _ZN11__sanitizer16FindPathToBinaryEPKc
-------- T _ZN11__sanitizer16ReadFileToBufferEPKcPPcPmS4_mPi
-------- T _ZN11__sanitizer16ReadFileToVectorEPKcPNS_24InternalMmapVectorNoCtorIcEEmPi
         U _ZN11__sanitizer17internal_snprintfEPcmPKcz
         U _ZN11__sanitizer18internal_strchrnulEPKci
         U _ZN11__sanitizer20internal_sched_yieldEv
         U _ZN11__sanitizer21common_flags_dont_useE
-------- T _ZN11__sanitizer22CatastrophicErrorWriteEPKcm
         U _ZN11__sanitizer23stoptheworld_tracer_pidE
-------- W _ZN11__sanitizer24InternalMmapVectorNoCtorIcE7ReallocEm
         U _ZN11__sanitizer24stoptheworld_tracer_ppidE
         U _ZN11__sanitizer3DieEv
         U _ZN11__sanitizer6GetEnvEPKc
         U _ZN11__sanitizer6ReportEPKcz
         U _ZN11__sanitizer8OpenFileEPKcNS_14FileAccessModeEPi
-------- T _ZN11__sanitizer8RawWriteEPKc
         U _ZN11__sanitizer9CloseFileEi
         U _ZN11__sanitizer9MmapOrDieEmPKcb
         U _ZSt9terminatev
-------- W __clang_call_terminate
         U __cxa_begin_catch
-------- T __sanitizer_set_report_fd
-------- T __sanitizer_set_report_path
         U __stack_pointer

sanitizer_tls_get_addr.cc.o:
         U _ZN11__sanitizer11CheckFailedEPKciS1_yy
-------- T _ZN11__sanitizer12DTLS_DestroyEv
-------- T _ZN11__sanitizer17DTLSInDestructionEPNS_4DTLSE
-------- T _ZN11__sanitizer20DTLS_on_tls_get_addrEPvS0_mm
-------- T _ZN11__sanitizer21DTLS_on_libc_memalignEPvm
-------- T _ZN11__sanitizer8DTLS_GetEv

sanitizer_mac_libcdep.cc.o:

sanitizer_stackdepot.cc.o:
         U _ZN11__sanitizer10UnmapOrDieEPvm
         U _ZN11__sanitizer11CheckFailedEPKciS1_yy
         U _ZN11__sanitizer11GetPageSizeEv
-------- T _ZN11__sanitizer13StackDepotGetEj
-------- T _ZN11__sanitizer13StackDepotPutENS_10StackTraceE
         U _ZN11__sanitizer14PageSizeCachedE
-------- W _ZN11__sanitizer14StackDepotBaseINS_14StackDepotNodeELi1ELi20EE3GetEj
-------- W _ZN11__sanitizer14StackDepotBaseINS_14StackDepotNodeELi1ELi20EE3PutENS_10StackTraceEPb
-------- W _ZN11__sanitizer15StaticSpinMutex8LockSlowEv
         U _ZN11__sanitizer15internal_memcpyEPvPKvm
-------- T _ZN11__sanitizer16StackDepotHandle20inc_use_count_unsafeEv
-------- T _ZN11__sanitizer16StackDepotHandle2idEv
-------- T _ZN11__sanitizer16StackDepotHandle9use_countEv
-------- T _ZN11__sanitizer17StackDepotLockAllEv
-------- T _ZN11__sanitizer18StackDepotGetStatsEv
-------- T _ZN11__sanitizer19StackDepotUnlockAllEv
-------- T _ZN11__sanitizer20StackDepotReverseMap10IdDescPair12IdComparatorERKS1_S3_
-------- T _ZN11__sanitizer20StackDepotReverseMap3GetEj
-------- T _ZN11__sanitizer20StackDepotReverseMapC1Ev
-------- T _ZN11__sanitizer20StackDepotReverseMapC2Ev
         U _ZN11__sanitizer20internal_sched_yieldEv
         U _ZN11__sanitizer22thePersistentAllocatorE
-------- W _ZN11__sanitizer24InternalMmapVectorNoCtorINS_20StackDepotReverseMap10IdDescPairEE7ReallocEm
-------- W _ZN11__sanitizer24InternalMmapVectorNoCtorINS_20StackDepotReverseMap10IdDescPairEE9push_backERKS2_
-------- T _ZN11__sanitizer24StackDepotPut_WithHandleENS_10StackTraceE
         U _ZN11__sanitizer3DieEv
         U _ZN11__sanitizer8RawWriteEPKc
         U _ZN11__sanitizer9MmapOrDieEmPKcb
         U _ZSt9terminatev
-------- W __clang_call_terminate
         U __cxa_begin_catch
         U __stack_pointer

sanitizer_platform_limits_solaris.cc.o:

sanitizer_symbolizer_posix_libcdep.cc.o:
         U _ZN11__sanitizer10FileExistsEPKc
-------- T _ZN11__sanitizer10Symbolizer12PlatformInitEv
-------- T _ZN11__sanitizer10Symbolizer14LateInitializeEv
-------- T _ZN11__sanitizer10Symbolizer16PlatformDemangleEPKc
         U _ZN11__sanitizer10Symbolizer21symbolizer_allocator_E
         U _ZN11__sanitizer10Symbolizer9GetOrInitEv
         U _ZN11__sanitizer10SymbolizerC1ENS_13IntrusiveListINS_14SymbolizerToolEEE
         U _ZN11__sanitizer10UnmapOrDieEPvm
         U _ZN11__sanitizer11CheckFailedEPKciS1_yy
         U _ZN11__sanitizer11GetPageSizeEv
-------- W _ZN11__sanitizer13Addr2LinePool11SendCommandEPKcm
-------- W _ZN11__sanitizer13Addr2LinePool11SymbolizePCEmPNS_15SymbolizedStackE
-------- W _ZN11__sanitizer13Addr2LinePool13SymbolizeDataEmPNS_8DataInfoE
-------- T _ZN11__sanitizer13DemangleSwiftEPKc
-------- T _ZN11__sanitizer14DemangleCXXABIEPKc
         U _ZN11__sanitizer14LLVMSymbolizerC1EPKcPNS_17LowLevelAllocatorE
         U _ZN11__sanitizer14PageSizeCachedE
         U _ZN11__sanitizer14SleepForMillisEi
-------- W _ZN11__sanitizer14SymbolizerTool5FlushEv
-------- W _ZN11__sanitizer14SymbolizerTool8DemangleEPKc
         U _ZN11__sanitizer14internal_closeEi
         U _ZN11__sanitizer15StartSubprocessEPKcPKS1_iii
         U _ZN11__sanitizer15StripModuleNameEPKc
         U _ZN11__sanitizer15internal_memcmpEPKvS1_m
         U _ZN11__sanitizer15internal_memcpyEPvPKvm
         U _ZN11__sanitizer15internal_memsetEPvim
         U _ZN11__sanitizer15internal_strcmpEPKcS1_
         U _ZN11__sanitizer15internal_strdupEPKc
         U _ZN11__sanitizer15internal_strlenEPKc
         U _ZN11__sanitizer15internal_strstrEPKcS1_
-------- W _ZN11__sanitizer16Addr2LineProcess18ReadFromSymbolizerEPcm
-------- D _ZN11__sanitizer16Addr2LineProcess18output_terminator_E
         U _ZN11__sanitizer16FindPathToBinaryEPKc
         U _ZN11__sanitizer16IsProcessRunningEi
         U _ZN11__sanitizer17LowLevelAllocator8AllocateEm
         U _ZN11__sanitizer17SymbolizerProcess11SendCommandEPKc
         U _ZN11__sanitizer17SymbolizerProcess18ReadFromSymbolizerEPcm
-------- T _ZN11__sanitizer17SymbolizerProcess25StartSymbolizerSubprocessEv
         U _ZN11__sanitizer17SymbolizerProcessC2EPKcb
         U _ZN11__sanitizer17current_verbosityE
         U _ZN11__sanitizer17internal_snprintfEPcmPKcz
-------- T _ZN11__sanitizer19DemangleSwiftAndCXXEPKc
         U _ZN11__sanitizer21common_flags_dont_useE
         U _ZN11__sanitizer22IsAllocatorOutOfMemoryEv
         U _ZN11__sanitizer22LibbacktraceSymbolizer3getEPNS_17LowLevelAllocatorE
         U _ZN11__sanitizer22ParseSymbolizePCOutputEPKcPNS_15SymbolizedStackE
-------- W _ZN11__sanitizer24InternalMmapVectorNoCtorIPNS_16Addr2LineProcessEE7ReallocEm
-------- W _ZN11__sanitizer24InternalMmapVectorNoCtorIPNS_16Addr2LineProcessEE9push_backERKS2_
         U _ZN11__sanitizer3DieEv
         U _ZN11__sanitizer6ReportEPKcz
         U _ZN11__sanitizer8RawWriteEPKc
         U _ZN11__sanitizer9MmapOrDieEmPKcb
-------- T _ZNK11__sanitizer16Addr2LineProcess18ReachedEndOfOutputEPKcm
-------- W _ZNK11__sanitizer16Addr2LineProcess7GetArgVEPKcRA6_S2_
         U _ZSt9terminatev
-------- W _ZTIN11__sanitizer13Addr2LinePoolE
-------- W _ZTIN11__sanitizer14SymbolizerToolE
-------- D _ZTIN11__sanitizer16Addr2LineProcessE
         U _ZTIN11__sanitizer17SymbolizerProcessE
-------- W _ZTSN11__sanitizer13Addr2LinePoolE
-------- W _ZTSN11__sanitizer14SymbolizerToolE
-------- D _ZTSN11__sanitizer16Addr2LineProcessE
         U _ZTVN10__cxxabiv117__class_type_infoE
         U _ZTVN10__cxxabiv120__si_class_type_infoE
-------- W _ZTVN11__sanitizer13Addr2LinePoolE
-------- D _ZTVN11__sanitizer16Addr2LineProcessE
-------- W __clang_call_terminate
         U __cxa_begin_catch
         w __cxa_demangle
         U __errno_location
         U __stack_pointer
         U dlerror
         U dlsym
         U pipe

sanitizer_openbsd.cc.o:

sanitizer_stacktrace.cc.o:
-------- T _ZN11__sanitizer10StackTrace12GetCurrentPcEv
-------- T _ZN11__sanitizer10StackTrace20GetNextInstructionPcEm
         U _ZN11__sanitizer11CheckFailedEPKciS1_yy
         U _ZN11__sanitizer11GetPageSizeEv
         U _ZN11__sanitizer14PageSizeCachedE
         U _ZN11__sanitizer15internal_memcpyEPvPKvm
-------- T _ZN11__sanitizer18BufferedStackTrace14PopStackFramesEm
-------- T _ZN11__sanitizer18BufferedStackTrace15FastUnwindStackEmmmmj
-------- T _ZN11__sanitizer18BufferedStackTrace15LocatePcInTraceEm
-------- T _ZN11__sanitizer18BufferedStackTrace4InitEPKmmm
         U emscripten_return_address

sanitizer_unwind_linux_libcdep.cc.o:

sanitizer_coverage_win_dll_thunk.cc.o:

sanitizer_mac.cc.o:

sanitizer_common_libcdep.cc.o:
         U _ZN11__sanitizer10UnmapOrDieEPvm
         U _ZN11__sanitizer11CheckFailedEPKciS1_yy
         U _ZN11__sanitizer11GetPageSizeEv
-------- T _ZN11__sanitizer13WriteToSyslogEPKc
         U _ZN11__sanitizer14PageSizeCachedE
         U _ZN11__sanitizer15internal_memcpyEPvPKvm
         U _ZN11__sanitizer15internal_memsetEPvim
         U _ZN11__sanitizer15internal_strchrEPKci
         U _ZN11__sanitizer20InternalScopedString6appendEPKcz
-------- T _ZN11__sanitizer21SetSandboxingCallbackEPFvvE
-------- W _ZN11__sanitizer24InternalMmapVectorNoCtorIcE7ReallocEm
-------- T _ZN11__sanitizer25MaybeStartBackgroudThreadEv
         U _ZN11__sanitizer28PlatformPrepareForSandboxingEP29__sanitizer_sandbox_arguments
-------- T _ZN11__sanitizer31SetSoftRssLimitExceededCallbackEPFvbE
         U _ZN11__sanitizer3DieEv
         U _ZN11__sanitizer8RawWriteEPKc
         U _ZN11__sanitizer9MmapOrDieEmPKcb
         U _ZSt9terminatev
-------- W __clang_call_terminate
         U __cxa_begin_catch
-------- W __sanitizer_sandbox_on_notify
         U __stack_pointer

sanitizer_common.cc.o:
         U _ZN11__sanitizer10UnmapOrDieEPvm
         U _ZN11__sanitizer11CheckFailedEPKciS1_yy
         U _ZN11__sanitizer11GetPageSizeEv
         U _ZN11__sanitizer12InternalFreeEPvPNS_28SizeClassAllocatorLocalCacheINS_20SizeClassAllocator32INS_4AP32EEEEE
-------- T _ZN11__sanitizer12LoadedModule15addAddressRangeEmmbbPKc
-------- T _ZN11__sanitizer12LoadedModule3setEPKcm
-------- T _ZN11__sanitizer12LoadedModule3setEPKcmNS_10ModuleArchEPhb
-------- T _ZN11__sanitizer12LoadedModule5clearEv
-------- T _ZN11__sanitizer12PrintCmdlineEv
-------- T _ZN11__sanitizer12RunFreeHooksEPKv
         U _ZN11__sanitizer13InternalAllocEmPNS_28SizeClassAllocatorLocalCacheINS_20SizeClassAllocator32INS_4AP32EEEEEm
-------- T _ZN11__sanitizer13TemplateMatchEPKcS1_
         U _ZN11__sanitizer14DumpProcessMapEv
-------- T _ZN11__sanitizer14GetProcessNameEv
-------- D _ZN11__sanitizer14PageSizeCachedE
         U _ZN11__sanitizer14ReadBinaryNameEPcm
-------- T _ZN11__sanitizer14RunMallocHooksEPKvm
-------- T _ZN11__sanitizer15CacheBinaryNameEv
-------- T _ZN11__sanitizer15StripModuleNameEPKc
-------- T _ZN11__sanitizer15StripPathPrefixEPKcS1_
         U _ZN11__sanitizer15internal_memcpyEPvPKvm
         U _ZN11__sanitizer15internal_memsetEPvim
         U _ZN11__sanitizer15internal_strchrEPKci
         U _ZN11__sanitizer15internal_strdupEPKc
         U _ZN11__sanitizer15internal_strlenEPKc
         U _ZN11__sanitizer15internal_strstrEPKcS1_
         U _ZN11__sanitizer16internal_memmoveEPvPKvm
         U _ZN11__sanitizer16internal_strncpyEPcPKcm
         U _ZN11__sanitizer16internal_strrchrEPKci
-------- T _ZN11__sanitizer17DecreaseTotalMmapEm
-------- T _ZN11__sanitizer17IncreaseTotalMmapEm
-------- D _ZN11__sanitizer17SanitizerToolNameE
-------- T _ZN11__sanitizer17UpdateProcessNameEv
-------- D _ZN11__sanitizer17current_verbosityE
-------- D _ZN11__sanitizer18NumberOfCPUsCachedE
-------- T _ZN11__sanitizer18ReportErrorSummaryEPKcS1_
         U _ZN11__sanitizer18internal_strchrnulEPKci
         U _ZN11__sanitizer19ReadLongProcessNameEPcm
         U _ZN11__sanitizer20InternalScopedString6appendEPKcz
-------- T _ZN11__sanitizer20ReadBinaryNameCachedEPcm
         U _ZN11__sanitizer21common_flags_dont_useE
-------- T _ZN11__sanitizer23ReportMmapFailureAndDieEmPKcS1_ib
-------- D _ZN11__sanitizer23stoptheworld_tracer_pidE
-------- W _ZN11__sanitizer24InternalMmapVectorNoCtorIcE7ReallocEm
-------- D _ZN11__sanitizer24stoptheworld_tracer_ppidE
-------- T _ZN11__sanitizer35RemoveANSIEscapeSequencesFromStringEPc
         U _ZN11__sanitizer3DieEv
         U _ZN11__sanitizer6PrintfEPKcz
         U _ZN11__sanitizer6ReportEPKcz
         U _ZN11__sanitizer7GetArgvEv
         U _ZN11__sanitizer8RawWriteEPKc
         U _ZN11__sanitizer9MmapOrDieEmPKcb
-------- T _ZNK11__sanitizer12LoadedModule15containsAddressEm
         U _ZSt9terminatev
-------- W __clang_call_terminate
         U __cxa_begin_catch
-------- T __sanitizer_acquire_crash_state
-------- T __sanitizer_install_malloc_and_free_hooks
-------- W __sanitizer_report_error_summary
         U __stack_pointer

sanitizer_type_traits.cc.o:
-------- D _ZN11__sanitizer10false_type5valueE
-------- D _ZN11__sanitizer9true_type5valueE

sanitizer_rtems.cc.o:

sanitizer_libignore.cc.o:

sanitizer_coverage_libcdep_new.cc.o:
         U _ZN11__sanitizer10UnmapOrDieEPvm
         U _ZN11__sanitizer11CheckFailedEPKciS1_yy
         U _ZN11__sanitizer11GetPageSizeEv
         U _ZN11__sanitizer11WriteToFileEiPKvmPmPi
         U _ZN11__sanitizer12InternalFreeEPvPNS_28SizeClassAllocatorLocalCacheINS_20SizeClassAllocator32INS_4AP32EEEEE
         U _ZN11__sanitizer13InternalAllocEmPNS_28SizeClassAllocatorLocalCacheINS_20SizeClassAllocator32INS_4AP32EEEEEm
         U _ZN11__sanitizer14AddDieCallbackEPFvvE
         U _ZN11__sanitizer14PageSizeCachedE
         U _ZN11__sanitizer15StripModuleNameEPKc
         U _ZN11__sanitizer15internal_getpidEv
         U _ZN11__sanitizer15internal_memcpyEPvPKvm
         U _ZN11__sanitizer15internal_memsetEPvim
         U _ZN11__sanitizer17internal_snprintfEPcmPKcz
-------- T _ZN11__sanitizer18InitializeCoverageEbPKc
         U _ZN11__sanitizer21common_flags_dont_useE
-------- W _ZN11__sanitizer24InternalMmapVectorNoCtorImE7ReallocEm
         U _ZN11__sanitizer3DieEv
-------- W _ZN11__sanitizer4SortImNS_11CompareLessImEEEEvPT_mT0_
         U _ZN11__sanitizer6AtexitEPFvvE
         U _ZN11__sanitizer6PrintfEPKcz
         U _ZN11__sanitizer6ReportEPKcz
         U _ZN11__sanitizer8OpenFileEPKcNS_14FileAccessModeEPi
         U _ZN11__sanitizer8RawWriteEPKc
         U _ZN11__sanitizer9CloseFileEi
         U _ZN11__sanitizer9MmapOrDieEmPKcb
         U _ZN8__sancov21InitializeSancovFlagsEv
-------- W __sancov_lowest_stack
-------- W __sanitizer_cov_8bit_counters_init
-------- T __sanitizer_cov_dump
-------- W __sanitizer_cov_pcs_init
-------- T __sanitizer_cov_reset
-------- W __sanitizer_cov_trace_cmp
-------- W __sanitizer_cov_trace_cmp1
-------- W __sanitizer_cov_trace_cmp2
-------- W __sanitizer_cov_trace_cmp4
-------- W __sanitizer_cov_trace_cmp8
-------- W __sanitizer_cov_trace_const_cmp1
-------- W __sanitizer_cov_trace_const_cmp2
-------- W __sanitizer_cov_trace_const_cmp4
-------- W __sanitizer_cov_trace_const_cmp8
-------- W __sanitizer_cov_trace_div4
-------- W __sanitizer_cov_trace_div8
-------- W __sanitizer_cov_trace_gep
-------- W __sanitizer_cov_trace_pc_guard
-------- W __sanitizer_cov_trace_pc_guard_init
-------- W __sanitizer_cov_trace_pc_indir
-------- W __sanitizer_cov_trace_switch
-------- T __sanitizer_dump_coverage
-------- T __sanitizer_dump_trace_pc_guard_coverage
         U __sanitizer_get_module_and_offset_for_pc
         U __stack_pointer
         U emscripten_return_address

sanitizer_errno.cc.o:
-------- D _ZN11__sanitizer16errno_EOWNERDEADE

sanitizer_emscripten.cc.o:
-------- T _ZN11__sanitizer10GetEnvironEv
         U _ZN11__sanitizer12LoadedModule5clearEv
-------- T _ZN11__sanitizer13ListOfModules12fallbackInitEv
-------- T _ZN11__sanitizer13ListOfModules4initEv
         w _ZN11__sanitizer14real_sigactionEiPKvPv
-------- T _ZN11__sanitizer18internal_sigactionEiPKvPv
-------- T _ZN11__sanitizer26GetThreadStackTopAndBottomEbPmS0_
-------- T _ZN11__sanitizer7GetArgvEv
-------- D _ZN11__sanitizer9fake_argvE
-------- D _ZN11__sanitizer9fake_envpE
         U emscripten_get_stack_base
         U emscripten_get_stack_top
         U sigaction

sanitizer_symbolizer_win.cc.o:

sanitizer_linux_libcdep.cc.o:

sanitizer_platform_limits_netbsd.cc.o:

sanitizer_posix_libcdep.cc.o:
         U _ZN11__sanitizer10GetTlsSizeEv
         U _ZN11__sanitizer10UnmapOrDieEPvm
         U _ZN11__sanitizer11CheckFailedEPKciS1_yy
         U _ZN11__sanitizer11GetPageSizeEv
-------- T _ZN11__sanitizer12MmapNoAccessEm
-------- T _ZN11__sanitizer13GetThreadSelfEv
         U _ZN11__sanitizer13internal_dup2Eii
         U _ZN11__sanitizer13internal_forkEv
         U _ZN11__sanitizer13internal_mmapEPvmiiim
         U _ZN11__sanitizer14MmapFixedOrDieEmm
         U _ZN11__sanitizer14PageSizeCachedE
-------- T _ZN11__sanitizer14SleepForMillisEi
-------- T _ZN11__sanitizer14WaitForProcessEi
         U _ZN11__sanitizer14internal__exitEi
         U _ZN11__sanitizer14internal_closeEi
         U _ZN11__sanitizer14internal_writeEiPKvm
         U _ZN11__sanitizer14si_SEGV_ACCERRE
         U _ZN11__sanitizer14si_SEGV_MAPERRE
-------- T _ZN11__sanitizer15AdjustStackSizeEPv
-------- T _ZN11__sanitizer15IsStateDetachedEi
-------- T _ZN11__sanitizer15SleepForSecondsEi
-------- T _ZN11__sanitizer15StartSubprocessEPKcPKS1_iii
         U _ZN11__sanitizer15internal_getpidEv
         U _ZN11__sanitizer15internal_memsetEPvim
         U _ZN11__sanitizer15internal_strlenEPKc
-------- T _ZN11__sanitizer16IsProcessRunningEi
         U _ZN11__sanitizer16internal_iserrorEmPi
         U _ZN11__sanitizer16internal_waitpidEiPii
-------- T _ZN11__sanitizer17GetNamedMappingFdEPKcm
         U _ZN11__sanitizer17IncreaseTotalMmapEm
-------- T _ZN11__sanitizer17MmapFixedNoAccessEmmPKc
         U _ZN11__sanitizer17SanitizerToolNameE
         U _ZN11__sanitizer17current_verbosityE
         U _ZN11__sanitizer17internal_snprintfEPcmPKcz
-------- T _ZN11__sanitizer18MmapFixedNoReserveEmmPKc
         U _ZN11__sanitizer18internal_ftruncateEim
         U _ZN11__sanitizer18internal_sigactionEiPKvPv
         U _ZN11__sanitizer19GetHandleSignalModeEi
-------- T _ZN11__sanitizer19NoHugePagesInRegionEmm
-------- T _ZN11__sanitizer20DontDumpShadowMemoryEmm
-------- T _ZN11__sanitizer20ReservedAddressRange3MapEmm
-------- T _ZN11__sanitizer20ReservedAddressRange4InitEmPKcm
-------- T _ZN11__sanitizer20ReservedAddressRange5UnmapEmm
-------- T _ZN11__sanitizer20ReservedAddressRange8MapOrDieEmm
-------- T _ZN11__sanitizer20StackSizeIsUnlimitedEv
-------- T _ZN11__sanitizer21SupportsColoredOutputEi
         U _ZN11__sanitizer21common_flags_dont_useE
-------- T _ZN11__sanitizer22ReleaseMemoryPagesToOSEmm
-------- T _ZN11__sanitizer23AddressSpaceIsUnlimitedEv
-------- T _ZN11__sanitizer23IsAccessibleMemoryRangeEmm
-------- T _ZN11__sanitizer23SetAlternateSignalStackEv
-------- T _ZN11__sanitizer24GetStackSizeLimitInBytesEv
-------- T _ZN11__sanitizer24SetAddressSpaceUnlimitedEv
-------- T _ZN11__sanitizer24SetStackSizeLimitInBytesEm
-------- T _ZN11__sanitizer24my_pthread_attr_getstackEPvPS0_Pm
-------- T _ZN11__sanitizer25UnsetAlternateSignalStackEv
         U _ZN11__sanitizer26MmapFixedOrDieOnFatalErrorEmm
-------- T _ZN11__sanitizer27InstallDeadlySignalHandlersEPFviPvS0_E
-------- T _ZN11__sanitizer28DisableCoreDumperIfNecessaryEv
-------- T _ZN11__sanitizer28PlatformPrepareForSandboxingEP29__sanitizer_sandbox_arguments
         U _ZN11__sanitizer3DieEv
-------- T _ZN11__sanitizer5AbortEv
-------- T _ZN11__sanitizer6AtexitEPFvvE
-------- T _ZN11__sanitizer6GetUidEv
         U _ZN11__sanitizer6PrintfEPKcz
         U _ZN11__sanitizer6ReportEPKcz
         U _ZN11__sanitizer8RawWriteEPKc
         U _ZN11__sanitizer9MmapOrDieEmPKcb
-------- T _ZNK11__sanitizer13SignalContext15IsStackOverflowEv
         U _ZSt9terminatev
-------- W __clang_call_terminate
         U __cxa_begin_catch
         U __errno_location
         U __stack_pointer
         U abort
         U atexit
         U execv
         U getrlimit
         U getuid
         U isatty
         U madvise
         U pipe
         U pthread_attr_getstack
         U pthread_attr_setstacksize
         U pthread_self
         w real_pthread_attr_getstack
         U setrlimit
         U shm_open
         U shm_unlink
         U sigaltstack
         U sleep
         U sysconf
         U usleep

sanitizer_coverage_fuchsia.cc.o:

sanitizer_linux_s390.cc.o:

sanitizer_printf.cc.o:
-------- W OnPrint
         U _ZN11__sanitizer10UnmapOrDieEPvm
         U _ZN11__sanitizer11CheckFailedEPKciS1_yy
         U _ZN11__sanitizer14GetProcessNameEv
         U _ZN11__sanitizer15internal_getpidEv
         U _ZN11__sanitizer15internal_memsetEPvim
         U _ZN11__sanitizer15internal_strlenEPKc
-------- T _ZN11__sanitizer17internal_snprintfEPcmPKcz
-------- T _ZN11__sanitizer20InternalScopedString6appendEPKcz
         U _ZN11__sanitizer21common_flags_dont_useE
-------- T _ZN11__sanitizer26SetPrintfAndReportCallbackEPFvPKcE
         U _ZN11__sanitizer35RemoveANSIEscapeSequencesFromStringEPc
         U _ZN11__sanitizer3DieEv
-------- T _ZN11__sanitizer6PrintfEPKcz
-------- T _ZN11__sanitizer6ReportEPKcz
         U _ZN11__sanitizer8RawWriteEPKc
         U _ZN11__sanitizer9MmapOrDieEmPKcb
-------- T _ZN11__sanitizer9VSNPrintfEPciPKcPv
         U __stack_pointer

sanitizer_flags.cc.o:
         U _ZN11__sanitizer10FlagParser15RegisterHandlerEPKcPNS_15FlagHandlerBaseES2_
         U _ZN11__sanitizer10FlagParser5AllocE
         U _ZN11__sanitizer10FlagParser9ParseFileEPKcb
         U _ZN11__sanitizer10UnmapOrDieEPvm
         U _ZN11__sanitizer11CheckFailedEPKciS1_yy
-------- T _ZN11__sanitizer11CommonFlags11SetDefaultsEv
-------- T _ZN11__sanitizer11CommonFlags8CopyFromERKS0_
-------- W _ZN11__sanitizer11FlagHandlerINS_16HandleSignalModeEE5ParseEPKc
-------- W _ZN11__sanitizer11FlagHandlerIPKcE5ParseES2_
-------- W _ZN11__sanitizer11FlagHandlerIbE5ParseEPKc
-------- W _ZN11__sanitizer11FlagHandlerIiE5ParseEPKc
-------- W _ZN11__sanitizer11FlagHandlerImE5ParseEPKc
         U _ZN11__sanitizer14GetProcessNameEv
         U _ZN11__sanitizer15internal_getpidEv
         U _ZN11__sanitizer15internal_memcpyEPvPKvm
         U _ZN11__sanitizer15internal_strchrEPKci
         U _ZN11__sanitizer15internal_strcmpEPKcS1_
         U _ZN11__sanitizer17LowLevelAllocator8AllocateEm
         U _ZN11__sanitizer17current_verbosityE
-------- W _ZN11__sanitizer18FlagHandlerInclude5ParseEPKc
-------- T _ZN11__sanitizer19RegisterCommonFlagsEPNS_10FlagParserEPNS_11CommonFlagsE
-------- T _ZN11__sanitizer20RegisterIncludeFlagsEPNS_10FlagParserEPNS_11CommonFlagsE
-------- T _ZN11__sanitizer21InitializeCommonFlagsEPNS_11CommonFlagsE
-------- D _ZN11__sanitizer21common_flags_dont_useE
-------- T _ZN11__sanitizer22SubstituteForFlagValueEPKcPcm
         U _ZN11__sanitizer23internal_simple_strtollEPKcPS1_i
         U _ZN11__sanitizer6PrintfEPKcz
         U _ZN11__sanitizer9MmapOrDieEmPKcb
-------- W _ZTIN11__sanitizer11FlagHandlerINS_16HandleSignalModeEEE
-------- W _ZTIN11__sanitizer11FlagHandlerIPKcEE
-------- W _ZTIN11__sanitizer11FlagHandlerIbEE
-------- W _ZTIN11__sanitizer11FlagHandlerIiEE
-------- W _ZTIN11__sanitizer11FlagHandlerImEE
-------- W _ZTIN11__sanitizer15FlagHandlerBaseE
-------- W _ZTIN11__sanitizer18FlagHandlerIncludeE
-------- W _ZTSN11__sanitizer11FlagHandlerINS_16HandleSignalModeEEE
-------- W _ZTSN11__sanitizer11FlagHandlerIPKcEE
-------- W _ZTSN11__sanitizer11FlagHandlerIbEE
-------- W _ZTSN11__sanitizer11FlagHandlerIiEE
-------- W _ZTSN11__sanitizer11FlagHandlerImEE
-------- W _ZTSN11__sanitizer15FlagHandlerBaseE
-------- W _ZTSN11__sanitizer18FlagHandlerIncludeE
         U _ZTVN10__cxxabiv117__class_type_infoE
         U _ZTVN10__cxxabiv120__si_class_type_infoE
-------- W _ZTVN11__sanitizer11FlagHandlerINS_16HandleSignalModeEEE
-------- W _ZTVN11__sanitizer11FlagHandlerIPKcEE
-------- W _ZTVN11__sanitizer11FlagHandlerIbEE
-------- W _ZTVN11__sanitizer11FlagHandlerIiEE
-------- W _ZTVN11__sanitizer11FlagHandlerImEE
-------- W _ZTVN11__sanitizer18FlagHandlerIncludeE
         U __stack_pointer

sanitizer_coverage_win_dynamic_runtime_thunk.cc.o:

sanitizer_posix.cc.o:
         U _ZN11__sanitizer10ReportFile17ReopenIfNecessaryEv
-------- T _ZN11__sanitizer10ReportFile5WriteEPKcm
-------- T _ZN11__sanitizer10UnmapOrDieEPvm
         U _ZN11__sanitizer11CheckFailedEPKciS1_yy
         U _ZN11__sanitizer11GetPageSizeEv
-------- T _ZN11__sanitizer11WriteToFileEiPKvmPmPi
-------- T _ZN11__sanitizer12ReadFromFileEiPvmPmPi
         U _ZN11__sanitizer12internal_dupEi
-------- T _ZN11__sanitizer13MmapFixedImplEmmb
         U _ZN11__sanitizer13internal_mmapEPvmiiim
         U _ZN11__sanitizer13internal_openEPKcij
         U _ZN11__sanitizer13internal_readEiPvm
-------- T _ZN11__sanitizer14DumpProcessMapEv
-------- T _ZN11__sanitizer14IsAbsolutePathEPKc
-------- T _ZN11__sanitizer14MmapFixedOrDieEmm
         U _ZN11__sanitizer14PageSizeCachedE
         U _ZN11__sanitizer14internal_closeEi
         U _ZN11__sanitizer14internal_writeEiPKvm
-------- T _ZN11__sanitizer15IsPathSeparatorEc
-------- T _ZN11__sanitizer15MapFileToMemoryEPKcPm
-------- W _ZN11__sanitizer15StaticSpinMutex8LockSlowEv
         U _ZN11__sanitizer15internal_memsetEPvim
         U _ZN11__sanitizer15internal_munmapEPvm
-------- T _ZN11__sanitizer16MprotectNoAccessEmm
-------- T _ZN11__sanitizer16MprotectReadOnlyEmm
         U _ZN11__sanitizer16internal_iserrorEmPi
         U _ZN11__sanitizer16internal_strncmpEPKcS1_m
         U _ZN11__sanitizer17DecreaseTotalMmapEm
         U _ZN11__sanitizer17IncreaseTotalMmapEm
         U _ZN11__sanitizer17SanitizerToolNameE
         U _ZN11__sanitizer17internal_filesizeEi
         U _ZN11__sanitizer17internal_mprotectEPvmi
         U _ZN11__sanitizer17internal_snprintfEPcmPKcz
-------- T _ZN11__sanitizer18GetMmapGranularityEv
-------- T _ZN11__sanitizer18MmapNoReserveOrDieEmPKc
-------- T _ZN11__sanitizer18ReserveStandardFdsEi
-------- T _ZN11__sanitizer19GetCodeRangeForFileEPKcPmS2_
-------- T _ZN11__sanitizer19MprotectMallocZonesEPvi
         U _ZN11__sanitizer20internal_sched_yieldEv
-------- T _ZN11__sanitizer21MmapOrDieOnFatalErrorEmPKc
         U _ZN11__sanitizer21common_flags_dont_useE
-------- T _ZN11__sanitizer22MemoryRangeIsAvailableEmm
-------- T _ZN11__sanitizer23MapWritableFileToMemoryEPvmim
         U _ZN11__sanitizer23ReportMmapFailureAndDieEmPKcS1_ib
-------- T _ZN11__sanitizer23ShouldMockFailureToOpenEPKc
-------- T _ZN11__sanitizer26MmapFixedOrDieOnFatalErrorEmm
-------- T _ZN11__sanitizer28MmapAlignedOrDieOnFatalErrorEmmPKc
         U _ZN11__sanitizer3DieEv
         U _ZN11__sanitizer6GetEnvEPKc
-------- T _ZN11__sanitizer6GetPwdEv
         U _ZN11__sanitizer6PrintfEPKcz
         U _ZN11__sanitizer6ReportEPKcz
-------- T _ZN11__sanitizer8OpenFileEPKcNS_14FileAccessModeEPi
         U _ZN11__sanitizer8RawWriteEPKc
-------- T _ZN11__sanitizer9CloseFileEi
-------- T _ZN11__sanitizer9MmapOrDieEmPKcb
-------- T _ZNK11__sanitizer13SignalContext10GetAddressEv
-------- T _ZNK11__sanitizer13SignalContext14IsMemoryAccessEv
-------- T _ZNK11__sanitizer13SignalContext7GetTypeEv
-------- T _ZNK11__sanitizer13SignalContext8DescribeEv
         U __stack_pointer

sanitizer_allocator_checks.cc.o:
-------- T _ZN11__sanitizer16SetErrnoToENOMEMEv
         U __errno_location

sanitizer_allocator_report.cc.o:
         U _ZN11__sanitizer11GetPageSizeEv
         U _ZN11__sanitizer14PageSizeCachedE
         U _ZN11__sanitizer15ColorizeReportsEv
-------- T _ZN11__sanitizer17ReportOutOfMemoryEmPKNS_10StackTraceE
         U _ZN11__sanitizer17SanitizerToolNameE
         U _ZN11__sanitizer18ReportErrorSummaryEPKcPKNS_10StackTraceES1_
-------- T _ZN11__sanitizer20ReportCallocOverflowEmmPKNS_10StackTraceE
-------- T _ZN11__sanitizer21ReportPvallocOverflowEmPKNS_10StackTraceE
         U _ZN11__sanitizer21ScopedErrorReportLockC1Ev
         U _ZN11__sanitizer21ScopedErrorReportLockD1Ev
-------- T _ZN11__sanitizer26ReportAllocationSizeTooBigEmmPKNS_10StackTraceE
-------- W _ZN11__sanitizer26ScopedAllocatorErrorReportD2Ev
-------- T _ZN11__sanitizer32ReportInvalidAllocationAlignmentEmPKNS_10StackTraceE
         U _ZN11__sanitizer34PrintHintAllocatorCannotReturnNullEv
-------- T _ZN11__sanitizer34ReportInvalidAlignedAllocAlignmentEmmPKNS_10StackTraceE
-------- T _ZN11__sanitizer35ReportInvalidPosixMemalignAlignmentEmPKNS_10StackTraceE
         U _ZN11__sanitizer3DieEv
         U _ZN11__sanitizer6PrintfEPKcz
         U _ZN11__sanitizer6ReportEPKcz
         U _ZNK11__sanitizer10StackTrace5PrintEv
         U _ZSt9terminatev
-------- W __clang_call_terminate
         U __cxa_begin_catch
         U __stack_pointer

sanitizer_thread_registry.cc.o:
         U _ZN11__sanitizer11CheckFailedEPKciS1_yy
         U _ZN11__sanitizer13BlockingMutex11CheckLockedEv
         U _ZN11__sanitizer13BlockingMutex4LockEv
         U _ZN11__sanitizer13BlockingMutex6UnlockEv
         U _ZN11__sanitizer13BlockingMutexC1Ev
-------- T _ZN11__sanitizer14ThreadRegistry10FindThreadEPFbPNS_17ThreadContextBaseEPvES3_
-------- T _ZN11__sanitizer14ThreadRegistry10JoinThreadEjPv
-------- T _ZN11__sanitizer14ThreadRegistry11StartThreadEjybPv
-------- D _ZN11__sanitizer14ThreadRegistry11kUnknownTidE
-------- T _ZN11__sanitizer14ThreadRegistry12CreateThreadEmbjPv
-------- T _ZN11__sanitizer14ThreadRegistry12DetachThreadEjPv
-------- T _ZN11__sanitizer14ThreadRegistry12FinishThreadEj
-------- T _ZN11__sanitizer14ThreadRegistry13QuarantinePopEv
-------- T _ZN11__sanitizer14ThreadRegistry13SetThreadNameEjPKc
-------- T _ZN11__sanitizer14ThreadRegistry14QuarantinePushEPNS_17ThreadContextBaseE
-------- T _ZN11__sanitizer14ThreadRegistry15SetThreadUserIdEjm
-------- T _ZN11__sanitizer14ThreadRegistry18GetMaxAliveThreadsEv
-------- T _ZN11__sanitizer14ThreadRegistry18GetNumberOfThreadsEPmS1_S1_
-------- T _ZN11__sanitizer14ThreadRegistry21SetThreadNameByUserIdEmPKc
-------- T _ZN11__sanitizer14ThreadRegistry23FindThreadContextLockedEPFbPNS_17ThreadContextBaseEPvES3_
-------- T _ZN11__sanitizer14ThreadRegistry29FindThreadContextByOsIDLockedEy
-------- T _ZN11__sanitizer14ThreadRegistry30RunCallbackForEachThreadLockedEPFvPNS_17ThreadContextBaseEPvES3_
-------- T _ZN11__sanitizer14ThreadRegistryC1EPFPNS_17ThreadContextBaseEjEjjj
-------- T _ZN11__sanitizer14ThreadRegistryC2EPFPNS_17ThreadContextBaseEjEjjj
         U _ZN11__sanitizer16internal_strncpyEPcPKcm
         U _ZN11__sanitizer17SanitizerToolNameE
-------- W _ZN11__sanitizer17ThreadContextBase10OnDetachedEPv
-------- W _ZN11__sanitizer17ThreadContextBase10OnFinishedEv
-------- T _ZN11__sanitizer17ThreadContextBase10SetCreatedEmybjPv
-------- T _ZN11__sanitizer17ThreadContextBase10SetStartedEybPv
-------- T _ZN11__sanitizer17ThreadContextBase11SetFinishedEv
-------- T _ZN11__sanitizer17ThreadContextBase12GetDestroyedEv
-------- T _ZN11__sanitizer17ThreadContextBase12SetDestroyedEv
-------- T _ZN11__sanitizer17ThreadContextBase5ResetEv
-------- W _ZN11__sanitizer17ThreadContextBase6OnDeadEv
-------- W _ZN11__sanitizer17ThreadContextBase7OnResetEv
-------- T _ZN11__sanitizer17ThreadContextBase7SetDeadEv
-------- T _ZN11__sanitizer17ThreadContextBase7SetNameEPKc
-------- W _ZN11__sanitizer17ThreadContextBase8OnJoinedEPv
-------- W _ZN11__sanitizer17ThreadContextBase9OnCreatedEPv
-------- W _ZN11__sanitizer17ThreadContextBase9OnStartedEPv
-------- T _ZN11__sanitizer17ThreadContextBase9SetJoinedEPv
-------- T _ZN11__sanitizer17ThreadContextBaseC1Ej
-------- T _ZN11__sanitizer17ThreadContextBaseC2Ej
-------- T _ZN11__sanitizer17ThreadContextBaseD1Ev
-------- T _ZN11__sanitizer17ThreadContextBaseD2Ev
         U _ZN11__sanitizer20internal_sched_yieldEv
         U _ZN11__sanitizer3DieEv
         U _ZN11__sanitizer6ReportEPKcz
         U _ZN11__sanitizer9MmapOrDieEmPKcb
         U _ZSt9terminatev
-------- W _ZTIN11__sanitizer17ThreadContextBaseE
-------- W _ZTSN11__sanitizer17ThreadContextBaseE
         U _ZTVN10__cxxabiv117__class_type_infoE
-------- W _ZTVN11__sanitizer17ThreadContextBaseE
-------- W __clang_call_terminate
         U __cxa_begin_catch
         U __stack_pointer

sanitizer_solaris.cc.o:

sancov_flags.cc.o:
         U _ZN11__sanitizer10FlagParser11ParseStringEPKc
         U _ZN11__sanitizer10FlagParser15RegisterHandlerEPKcPNS_15FlagHandlerBaseES2_
         U _ZN11__sanitizer10FlagParser21PrintFlagDescriptionsEv
         U _ZN11__sanitizer10FlagParser5AllocE
         U _ZN11__sanitizer10FlagParserC1Ev
-------- W _ZN11__sanitizer11FlagHandlerIbE5ParseEPKc
         U _ZN11__sanitizer15internal_strcmpEPKcS1_
         U _ZN11__sanitizer17LowLevelAllocator8AllocateEm
         U _ZN11__sanitizer23ReportUnrecognizedFlagsEv
         U _ZN11__sanitizer6GetEnvEPKc
         U _ZN11__sanitizer6PrintfEPKcz
-------- T _ZN8__sancov11SancovFlags11SetDefaultsEv
-------- T _ZN8__sancov21InitializeSancovFlagsEv
-------- D _ZN8__sancov30sancov_flags_dont_use_directlyE
-------- W _ZTIN11__sanitizer11FlagHandlerIbEE
-------- W _ZTIN11__sanitizer15FlagHandlerBaseE
-------- W _ZTSN11__sanitizer11FlagHandlerIbEE
-------- W _ZTSN11__sanitizer15FlagHandlerBaseE
         U _ZTVN10__cxxabiv117__class_type_infoE
         U _ZTVN10__cxxabiv120__si_class_type_infoE
-------- W _ZTVN11__sanitizer11FlagHandlerIbEE
-------- W __sancov_default_options
         U __stack_pointer

sanitizer_stacktrace_printer.cc.o:
-------- T _ZN11__sanitizer10RenderDataEPNS_20InternalScopedStringEPKcPKNS_8DataInfoES3_
         U _ZN11__sanitizer11CheckFailedEPKciS1_yy
-------- T _ZN11__sanitizer11RenderFrameEPNS_20InternalScopedStringEPKciRKNS_11AddressInfoEbS3_S3_
         U _ZN11__sanitizer15StripModuleNameEPKc
         U _ZN11__sanitizer15StripPathPrefixEPKcS1_
         U _ZN11__sanitizer15internal_strcmpEPKcS1_
         U _ZN11__sanitizer15internal_strlenEPKc
         U _ZN11__sanitizer16internal_strncmpEPKcS1_m
         U _ZN11__sanitizer20InternalScopedString6appendEPKcz
-------- T _ZN11__sanitizer20RenderModuleLocationEPNS_20InternalScopedStringEPKcmNS_10ModuleArchES3_
-------- T _ZN11__sanitizer20RenderSourceLocationEPNS_20InternalScopedStringEPKciibS3_
         U _ZN11__sanitizer3DieEv
         U _ZN11__sanitizer6ReportEPKcz
         U __stack_pointer

sanitizer_stacktrace_sparc.cc.o:

sanitizer_symbolizer_libcdep.cc.o:
-------- T _ZN11__sanitizer10ExtractIntEPKcS1_Pi
-------- T _ZN11__sanitizer10Symbolizer11SymbolizePCEm
         U _ZN11__sanitizer10Symbolizer11symbolizer_E
         U _ZN11__sanitizer10Symbolizer12PlatformInitEv
-------- T _ZN11__sanitizer10Symbolizer13SymbolizeDataEmPNS_8DataInfoE
-------- T _ZN11__sanitizer10Symbolizer14RefreshModulesEv
         U _ZN11__sanitizer10Symbolizer15ModuleNameOwner12GetOwnedCopyEPKc
         U _ZN11__sanitizer10Symbolizer15SymbolizerScopeC1EPKS0_
         U _ZN11__sanitizer10Symbolizer15SymbolizerScopeD1Ev
         U _ZN11__sanitizer10Symbolizer16PlatformDemangleEPKc
-------- T _ZN11__sanitizer10Symbolizer20FindModuleForAddressEm
-------- T _ZN11__sanitizer10Symbolizer27GetModuleNameAndOffsetForPCEmPPKcPm
-------- T _ZN11__sanitizer10Symbolizer33FindModuleNameAndOffsetForAddressEmPPKcPmPNS_10ModuleArchE
-------- T _ZN11__sanitizer10Symbolizer5FlushEv
-------- T _ZN11__sanitizer10Symbolizer8DemangleEPKc
         U _ZN11__sanitizer10Symbolizer8init_mu_E
-------- T _ZN11__sanitizer10Symbolizer9GetOrInitEv
         U _ZN11__sanitizer11AddressInfo14FillModuleInfoEPKcmNS_10ModuleArchE
         U _ZN11__sanitizer11CheckFailedEPKciS1_yy
-------- T _ZN11__sanitizer11ExtractUptrEPKcS1_Pm
         U _ZN11__sanitizer11WriteToFileEiPKvmPmPi
-------- T _ZN11__sanitizer12ExtractTokenEPKcS1_PPc
         U _ZN11__sanitizer12InternalFreeEPvPNS_28SizeClassAllocatorLocalCacheINS_20SizeClassAllocator32INS_4AP32EEEEE
         U _ZN11__sanitizer12ReadFromFileEiPvmPmPi
         U _ZN11__sanitizer13BlockingMutex4LockEv
         U _ZN11__sanitizer13BlockingMutex6UnlockEv
         U _ZN11__sanitizer13InternalAllocEmPNS_28SizeClassAllocatorLocalCacheINS_20SizeClassAllocator32INS_4AP32EEEEEm
         U _ZN11__sanitizer13ListOfModules12fallbackInitEv
         U _ZN11__sanitizer13ListOfModules4initEv
         U _ZN11__sanitizer14GetProcessNameEv
-------- T _ZN11__sanitizer14LLVMSymbolizer11SymbolizePCEmPNS_15SymbolizedStackE
-------- T _ZN11__sanitizer14LLVMSymbolizer13SymbolizeDataEmPNS_8DataInfoE
-------- T _ZN11__sanitizer14LLVMSymbolizer20FormatAndSendCommandEbPKcmNS_10ModuleArchE
-------- T _ZN11__sanitizer14LLVMSymbolizerC1EPKcPNS_17LowLevelAllocatorE
-------- T _ZN11__sanitizer14LLVMSymbolizerC2EPKcPNS_17LowLevelAllocatorE
-------- W _ZN11__sanitizer14SymbolizerTool5FlushEv
-------- W _ZN11__sanitizer14SymbolizerTool8DemangleEPKc
         U _ZN11__sanitizer14internal_atollEPKc
-------- W _ZN11__sanitizer15StaticSpinMutex8LockSlowEv
         U _ZN11__sanitizer15StripModuleNameEPKc
         U _ZN11__sanitizer15SymbolizedStack3NewEm
         U _ZN11__sanitizer15internal_memcpyEPvPKvm
         U _ZN11__sanitizer15internal_strcmpEPKcS1_
         U _ZN11__sanitizer15internal_strdupEPKc
         U _ZN11__sanitizer15internal_strlenEPKc
         U _ZN11__sanitizer15internal_strstrEPKcS1_
         U _ZN11__sanitizer16internal_strcspnEPKcS1_
         U _ZN11__sanitizer17LowLevelAllocator8AllocateEm
-------- T _ZN11__sanitizer17SymbolizerProcess11SendCommandEPKc
-------- T _ZN11__sanitizer17SymbolizerProcess15SendCommandImplEPKc
-------- T _ZN11__sanitizer17SymbolizerProcess17WriteToSymbolizerEPKcm
-------- T _ZN11__sanitizer17SymbolizerProcess18ReadFromSymbolizerEPcm
         U _ZN11__sanitizer17SymbolizerProcess25StartSymbolizerSubprocessEv
-------- T _ZN11__sanitizer17SymbolizerProcess7RestartEv
-------- T _ZN11__sanitizer17SymbolizerProcessC1EPKcb
-------- T _ZN11__sanitizer17SymbolizerProcessC2EPKcb
         U _ZN11__sanitizer17internal_snprintfEPcmPKcz
         U _ZN11__sanitizer20internal_sched_yieldEv
         U _ZN11__sanitizer21common_flags_dont_useE
-------- T _ZN11__sanitizer22ParseSymbolizePCOutputEPKcPNS_15SymbolizedStackE
-------- T _ZN11__sanitizer24ParseSymbolizeDataOutputEPKcPNS_8DataInfoE
-------- T _ZN11__sanitizer25ExtractTokenUpToDelimiterEPKcS1_PPc
         U _ZN11__sanitizer3DieEv
         U _ZN11__sanitizer6ReportEPKcz
         U _ZN11__sanitizer8DataInfo5ClearEv
         U _ZN11__sanitizer8RawWriteEPKc
         U _ZN11__sanitizer9CloseFileEi
         U _ZNK11__sanitizer12LoadedModule15containsAddressEm
-------- W _ZNK11__sanitizer17SymbolizerProcess18ReachedEndOfOutputEPKcm
-------- W _ZNK11__sanitizer17SymbolizerProcess7GetArgVEPKcRA6_S2_
-------- W _ZNK11__sanitizer21LLVMSymbolizerProcess18ReachedEndOfOutputEPKcm
-------- W _ZNK11__sanitizer21LLVMSymbolizerProcess7GetArgVEPKcRA6_S2_
         U _ZSt9terminatev
-------- D _ZTIN11__sanitizer14LLVMSymbolizerE
-------- W _ZTIN11__sanitizer14SymbolizerToolE
-------- D _ZTIN11__sanitizer17SymbolizerProcessE
-------- W _ZTIN11__sanitizer21LLVMSymbolizerProcessE
-------- D _ZTSN11__sanitizer14LLVMSymbolizerE
-------- W _ZTSN11__sanitizer14SymbolizerToolE
-------- D _ZTSN11__sanitizer17SymbolizerProcessE
-------- W _ZTSN11__sanitizer21LLVMSymbolizerProcessE
         U _ZTVN10__cxxabiv117__class_type_infoE
         U _ZTVN10__cxxabiv120__si_class_type_infoE
-------- D _ZTVN11__sanitizer14LLVMSymbolizerE
-------- D _ZTVN11__sanitizer17SymbolizerProcessE
-------- W _ZTVN11__sanitizer21LLVMSymbolizerProcessE
-------- W __clang_call_terminate
         U __cxa_begin_catch
         U __stack_pointer

sanitizer_persistent_allocator.cc.o:
-------- D _ZN11__sanitizer22thePersistentAllocatorE

sanitizer_platform_limits_freebsd.cc.o:

sanitizer_win_dll_thunk.cc.o:

sanitizer_procmaps_bsd.cc.o:

sanitizer_procmaps_linux.cc.o:

sanitizer_win.cc.o:

sanitizer_linux.cc.o:
-------- T _ZN11__sanitizer10FileExistsEPKc
         U _ZN11__sanitizer11CheckFailedEPKciS1_yy
-------- T _ZN11__sanitizer11GetPageSizeEv
-------- T _ZN11__sanitizer11MaybeReexecEv
-------- T _ZN11__sanitizer12internal_dupEi
-------- T _ZN11__sanitizer13BlockingMutex11CheckLockedEv
-------- T _ZN11__sanitizer13BlockingMutex4LockEv
-------- T _ZN11__sanitizer13BlockingMutex6UnlockEv
-------- T _ZN11__sanitizer13BlockingMutexC1Ev
-------- T _ZN11__sanitizer13BlockingMutexC2Ev
-------- T _ZN11__sanitizer13CheckMPROTECTEv
-------- T _ZN11__sanitizer13LibraryNameIsEPKcS1_
-------- T _ZN11__sanitizer13SignalContext10InitPcSpBpEv
-------- T _ZN11__sanitizer13SignalContext16DumpAllRegistersEPv
-------- T _ZN11__sanitizer13internal_dup2Eii
-------- T _ZN11__sanitizer13internal_forkEv
-------- T _ZN11__sanitizer13internal_mmapEPvmiiim
-------- T _ZN11__sanitizer13internal_openEPKci
-------- T _ZN11__sanitizer13internal_openEPKcij
-------- T _ZN11__sanitizer13internal_readEiPvm
-------- T _ZN11__sanitizer13internal_statEPKcPv
         U _ZN11__sanitizer14PageSizeCachedE
-------- T _ZN11__sanitizer14PrintModuleMapEv
-------- T _ZN11__sanitizer14ReadBinaryNameEPcm
-------- T _ZN11__sanitizer14internal__exitEi
-------- T _ZN11__sanitizer14internal_closeEi
-------- T _ZN11__sanitizer14internal_fstatEiPv
-------- T _ZN11__sanitizer14internal_lseekEimi
-------- T _ZN11__sanitizer14internal_lstatEPKcPv
-------- T _ZN11__sanitizer14internal_sleepEj
-------- T _ZN11__sanitizer14internal_writeEiPKvm
-------- T _ZN11__sanitizer15CheckNoDeepBindEPKci
         U _ZN11__sanitizer15__clock_gettimeEiPv
-------- T _ZN11__sanitizer15internal_execveEPKcPKPcS4_
-------- T _ZN11__sanitizer15internal_getpidEv
         U _ZN11__sanitizer15internal_memsetEPvim
-------- T _ZN11__sanitizer15internal_munmapEPvm
-------- T _ZN11__sanitizer15internal_ptraceEiiPvS0_
-------- T _ZN11__sanitizer15internal_renameEPKcS1_
         U _ZN11__sanitizer15internal_strlenEPKc
-------- T _ZN11__sanitizer15internal_unlinkEPKc
-------- T _ZN11__sanitizer16internal_getppidEv
-------- T _ZN11__sanitizer16internal_iserrorEmPi
         U _ZN11__sanitizer16internal_strncmpEPKcS1_m
-------- T _ZN11__sanitizer16internal_waitpidEiPii
-------- T _ZN11__sanitizer17internal_filesizeEi
-------- T _ZN11__sanitizer17internal_getdentsEiPNS_12linux_direntEj
-------- T _ZN11__sanitizer17internal_mprotectEPvmi
-------- T _ZN11__sanitizer17internal_readlinkEPKcPcm
         w _ZN11__sanitizer17real_pthread_joinEPvPS0_
-------- T _ZN11__sanitizer18internal_ftruncateEim
-------- T _ZN11__sanitizer19ForEachMappedRegionEP8link_mapPFvPKvmE
-------- T _ZN11__sanitizer19GetHandleSignalModeEi
-------- T _ZN11__sanitizer19ReadLongProcessNameEPcm
-------- T _ZN11__sanitizer19internal_sigfillsetEPm
         w _ZN11__sanitizer19real_pthread_createEPvS0_PFS0_S0_ES0_
-------- T _ZN11__sanitizer20GetMaxVirtualAddressEv
-------- T _ZN11__sanitizer20internal_join_threadEPv
-------- T _ZN11__sanitizer20internal_sched_yieldEv
-------- T _ZN11__sanitizer20internal_sigaltstackEPKvPv
-------- T _ZN11__sanitizer20internal_sigemptysetEPm
-------- T _ZN11__sanitizer20internal_sigprocmaskEiPmS0_
         U _ZN11__sanitizer21common_flags_dont_useE
-------- T _ZN11__sanitizer21internal_start_threadEPFvPvES0_
-------- T _ZN11__sanitizer22internal_clock_gettimeEiPv
-------- T _ZN11__sanitizer23InitializePlatformEarlyEv
         U _ZN11__sanitizer23ShouldMockFailureToOpenEPKc
-------- T _ZN11__sanitizer24FindAvailableMemoryRangeEmmmPmS0_
-------- T _ZN11__sanitizer24GetMaxUserVirtualAddressEv
         U _ZN11__sanitizer3DieEv
         U _ZN11__sanitizer5AbortEv
-------- T _ZN11__sanitizer6GetEnvEPKc
-------- T _ZN11__sanitizer6GetTidEv
         U _ZN11__sanitizer6ReportEPKcz
-------- T _ZN11__sanitizer6TgKillEiyi
-------- T _ZN11__sanitizer8NanoTimeEv
         U _ZN11__sanitizer8RawWriteEPKc
-------- T _ZN11__sanitizer9CheckASLREv
-------- T _ZN11__sanitizer9GetRandomEPvmb
-------- T _ZNK11__sanitizer13SignalContext12GetWriteFlagEv
         U __stack_pointer
         U __syscall10
         U __syscall11
         U __syscall114
         U __syscall125
         U __syscall141
         U __syscall162
         U __syscall175
         U __syscall186
         U __syscall19
         U __syscall192
         U __syscall195
         U __syscall196
         U __syscall197
         U __syscall20
         U __syscall224
         U __syscall252
         U __syscall26
         U __syscall270
         U __syscall3
         U __syscall38
         U __syscall4
         U __syscall41
         U __syscall5
         U __syscall6
         U __syscall63
         U __syscall64
         U __syscall78
         U __syscall85
         U __syscall91
         U __syscall93
         U emscripten_get_env
         U emscripten_get_module_name
         U sched_yield
         U sysconf

sanitizer_symbolizer.cc.o:
-------- D _ZN11__sanitizer10Symbolizer11symbolizer_E
-------- T _ZN11__sanitizer10Symbolizer15ModuleNameOwner12GetOwnedCopyEPKc
-------- T _ZN11__sanitizer10Symbolizer15SymbolizerScopeC1EPKS0_
-------- T _ZN11__sanitizer10Symbolizer15SymbolizerScopeC2EPKS0_
-------- T _ZN11__sanitizer10Symbolizer15SymbolizerScopeD1Ev
-------- T _ZN11__sanitizer10Symbolizer15SymbolizerScopeD2Ev
-------- T _ZN11__sanitizer10Symbolizer20InvalidateModuleListEv
-------- D _ZN11__sanitizer10Symbolizer21symbolizer_allocator_E
-------- T _ZN11__sanitizer10Symbolizer8AddHooksEPFvvES2_
-------- D _ZN11__sanitizer10Symbolizer8init_mu_E
-------- T _ZN11__sanitizer10SymbolizerC1ENS_13IntrusiveListINS_14SymbolizerToolEEE
-------- T _ZN11__sanitizer10SymbolizerC2ENS_13IntrusiveListINS_14SymbolizerToolEEE
         U _ZN11__sanitizer10UnmapOrDieEPvm
-------- T _ZN11__sanitizer11AddressInfo14FillModuleInfoEPKcmNS_10ModuleArchE
-------- T _ZN11__sanitizer11AddressInfo5ClearEv
-------- T _ZN11__sanitizer11AddressInfoC1Ev
-------- T _ZN11__sanitizer11AddressInfoC2Ev
         U _ZN11__sanitizer11CheckFailedEPKciS1_yy
         U _ZN11__sanitizer11GetPageSizeEv
         U _ZN11__sanitizer12InternalFreeEPvPNS_28SizeClassAllocatorLocalCacheINS_20SizeClassAllocator32INS_4AP32EEEEE
         U _ZN11__sanitizer13BlockingMutex11CheckLockedEv
         U _ZN11__sanitizer13BlockingMutexC1Ev
         U _ZN11__sanitizer13InternalAllocEmPNS_28SizeClassAllocatorLocalCacheINS_20SizeClassAllocator32INS_4AP32EEEEEm
         U _ZN11__sanitizer14PageSizeCachedE
-------- T _ZN11__sanitizer15SymbolizedStack3NewEm
-------- T _ZN11__sanitizer15SymbolizedStack8ClearAllEv
-------- T _ZN11__sanitizer15SymbolizedStackC1Ev
-------- T _ZN11__sanitizer15SymbolizedStackC2Ev
         U _ZN11__sanitizer15internal_memcpyEPvPKvm
         U _ZN11__sanitizer15internal_memsetEPvim
         U _ZN11__sanitizer15internal_strcmpEPKcS1_
         U _ZN11__sanitizer15internal_strdupEPKc
-------- W _ZN11__sanitizer24InternalMmapVectorNoCtorIPKcE7ReallocEm
-------- W _ZN11__sanitizer24InternalMmapVectorNoCtorIPKcE9push_backERKS2_
         U _ZN11__sanitizer3DieEv
-------- T _ZN11__sanitizer8DataInfo5ClearEv
-------- T _ZN11__sanitizer8DataInfoC1Ev
-------- T _ZN11__sanitizer8DataInfoC2Ev
         U _ZN11__sanitizer8RawWriteEPKc
         U _ZN11__sanitizer9MmapOrDieEmPKcb
         U _ZSt9terminatev
-------- W __clang_call_terminate
         U __cxa_begin_catch

sanitizer_procmaps_solaris.cc.o:

sanitizer_suppressions.cc.o:
         U _ZN11__sanitizer10FileExistsEPKc
         U _ZN11__sanitizer10UnmapOrDieEPvm
         U _ZN11__sanitizer11CheckFailedEPKciS1_yy
         U _ZN11__sanitizer11GetPageSizeEv
         U _ZN11__sanitizer13InternalAllocEmPNS_28SizeClassAllocatorLocalCacheINS_20SizeClassAllocator32INS_4AP32EEEEEm
         U _ZN11__sanitizer13TemplateMatchEPKcS1_
         U _ZN11__sanitizer14IsAbsolutePathEPKc
         U _ZN11__sanitizer14PageSizeCachedE
         U _ZN11__sanitizer15StripModuleNameEPKc
         U _ZN11__sanitizer15internal_memcpyEPvPKvm
         U _ZN11__sanitizer15internal_memsetEPvim
         U _ZN11__sanitizer15internal_strchrEPKci
         U _ZN11__sanitizer15internal_strcmpEPKcS1_
         U _ZN11__sanitizer15internal_strlenEPKc
         U _ZN11__sanitizer16ReadFileToBufferEPKcPPcPmS4_mPi
         U _ZN11__sanitizer16internal_strncatEPcPKcm
         U _ZN11__sanitizer17SanitizerToolNameE
         U _ZN11__sanitizer17current_verbosityE
-------- T _ZN11__sanitizer18SuppressionContext10GetMatchedEPNS_18InternalMmapVectorIPNS_11SuppressionEEE
-------- T _ZN11__sanitizer18SuppressionContext13ParseFromFileEPKc
-------- T _ZN11__sanitizer18SuppressionContext5MatchEPKcS2_PPNS_11SuppressionE
-------- T _ZN11__sanitizer18SuppressionContext5ParseEPKc
-------- T _ZN11__sanitizer18SuppressionContextC1EPPKci
-------- T _ZN11__sanitizer18SuppressionContextC2EPPKci
         U _ZN11__sanitizer20ReadBinaryNameCachedEPcm
-------- W _ZN11__sanitizer24InternalMmapVectorNoCtorINS_11SuppressionEE7ReallocEm
-------- W _ZN11__sanitizer24InternalMmapVectorNoCtorINS_11SuppressionEE9push_backERKS1_
-------- W _ZN11__sanitizer24InternalMmapVectorNoCtorIPNS_11SuppressionEE7ReallocEm
-------- W _ZN11__sanitizer24InternalMmapVectorNoCtorIPNS_11SuppressionEE9push_backERKS2_
-------- W _ZN11__sanitizer24InternalMmapVectorNoCtorIcE7ReallocEm
         U _ZN11__sanitizer3DieEv
         U _ZN11__sanitizer6PrintfEPKcz
         U _ZN11__sanitizer8RawWriteEPKc
         U _ZN11__sanitizer9MmapOrDieEmPKcb
-------- T _ZNK11__sanitizer18SuppressionContext13SuppressionAtEm
-------- T _ZNK11__sanitizer18SuppressionContext16SuppressionCountEv
-------- T _ZNK11__sanitizer18SuppressionContext18HasSuppressionTypeEPKc
         U _ZSt9terminatev
-------- W __clang_call_terminate
         U __cxa_begin_catch
         U __stack_pointer

sanitizer_coverage_win_sections.cc.o:

sanitizer_symbolizer_report.cc.o:
         U _ZN11__sanitizer10Symbolizer11SymbolizePCEm
         U _ZN11__sanitizer10Symbolizer9GetOrInitEv
         U _ZN11__sanitizer10UnmapOrDieEPvm
         U _ZN11__sanitizer11CheckFailedEPKciS1_yy
         U _ZN11__sanitizer11GetPageSizeEv
         U _ZN11__sanitizer11RenderFrameEPNS_20InternalScopedStringEPKciRKNS_11AddressInfoEbS3_S3_
         U _ZN11__sanitizer13GetThreadSelfEv
         U _ZN11__sanitizer13SignalContext10InitPcSpBpEv
         U _ZN11__sanitizer13SignalContext16DumpAllRegistersEPv
         U _ZN11__sanitizer14PageSizeCachedE
         U _ZN11__sanitizer14internal__exitEi
-------- T _ZN11__sanitizer15ColorizeReportsEv
-------- W _ZN11__sanitizer15StaticSpinMutex8LockSlowEv
         U _ZN11__sanitizer15SymbolizedStack8ClearAllEv
         U _ZN11__sanitizer15internal_memcpyEPvPKvm
         U _ZN11__sanitizer15internal_memsetEPvim
         U _ZN11__sanitizer15internal_strcmpEPKcS1_
         U _ZN11__sanitizer15internal_strlenEPKc
         U _ZN11__sanitizer17SanitizerToolNameE
         U _ZN11__sanitizer18BufferedStackTrace6UnwindEjmmPvmmb
-------- T _ZN11__sanitizer18HandleDeadlySignalEPvS0_jPFvRKNS_13SignalContextEPKvPNS_18BufferedStackTraceEES5_
-------- T _ZN11__sanitizer18ReportDeadlySignalERKNS_13SignalContextEjPFvS2_PKvPNS_18BufferedStackTraceEES4_
-------- T _ZN11__sanitizer18ReportErrorSummaryEPKcPKNS_10StackTraceES1_
-------- T _ZN11__sanitizer18ReportErrorSummaryEPKcRKNS_11AddressInfoES1_
         U _ZN11__sanitizer18ReportErrorSummaryEPKcS1_
-------- T _ZN11__sanitizer19ReportMmapWriteExecEi
         U _ZN11__sanitizer20InternalScopedString6appendEPKcz
         U _ZN11__sanitizer20internal_sched_yieldEv
-------- T _ZN11__sanitizer21ScopedErrorReportLock11CheckLockedEv
-------- T _ZN11__sanitizer21ScopedErrorReportLockC1Ev
-------- T _ZN11__sanitizer21ScopedErrorReportLockC2Ev
-------- T _ZN11__sanitizer21ScopedErrorReportLockD1Ev
-------- T _ZN11__sanitizer21ScopedErrorReportLockD2Ev
         U _ZN11__sanitizer21common_flags_dont_useE
         U _ZN11__sanitizer22CatastrophicErrorWriteEPKcm
         U _ZN11__sanitizer23IsAccessibleMemoryRangeEmm
-------- T _ZN11__sanitizer23StartReportDeadlySignalEv
-------- W _ZN11__sanitizer24InternalMmapVectorNoCtorINS_18BufferedStackTraceEE7ReallocEm
-------- W _ZN11__sanitizer24InternalMmapVectorNoCtorIcE7ReallocEm
         U _ZN11__sanitizer26GetThreadStackTopAndBottomEbPmS0_
         U _ZN11__sanitizer3DieEv
         U _ZN11__sanitizer6PrintfEPKcz
         U _ZN11__sanitizer6ReportEPKcz
         U _ZN11__sanitizer8RawWriteEPKc
         U _ZN11__sanitizer9MmapOrDieEmPKcb
         U _ZNK11__sanitizer10StackTrace5PrintEv
         U _ZNK11__sanitizer13SignalContext10GetAddressEv
         U _ZNK11__sanitizer13SignalContext12GetWriteFlagEv
         U _ZNK11__sanitizer13SignalContext14IsMemoryAccessEv
         U _ZNK11__sanitizer13SignalContext15IsStackOverflowEv
         U _ZNK11__sanitizer13SignalContext8DescribeEv
         U _ZSt9terminatev
-------- W __clang_call_terminate
         U __cxa_begin_catch
         U __stack_pointer
         U emscripten_return_address

sanitizer_win_weak_interception.cc.o:

sanitizer_platform_limits_openbsd.cc.o:

sanitizer_termination.cc.o:
-------- T _ZN11__sanitizer11CheckFailedEPKciS1_yy
-------- T _ZN11__sanitizer14AddDieCallbackEPFvvE
         U _ZN11__sanitizer14internal__exitEi
         U _ZN11__sanitizer15SleepForSecondsEi
         U _ZN11__sanitizer16internal_memmoveEPvPKvm
-------- T _ZN11__sanitizer17RemoveDieCallbackEPFvvE
-------- T _ZN11__sanitizer18SetUserDieCallbackEPFvvE
         U _ZN11__sanitizer21common_flags_dont_useE
-------- T _ZN11__sanitizer22SetCheckFailedCallbackEPFvPKciS1_yyE
-------- T _ZN11__sanitizer3DieEv
         U _ZN11__sanitizer5AbortEv
         U _ZN11__sanitizer6ReportEPKcz
-------- T __sanitizer_set_death_callback
         U __stack_pointer

sanitizer_stoptheworld_mac.cc.o:

sanitizer_symbolizer_markup.cc.o:

sanitizer_deadlock_detector1.cc.o:
         U _ZN11__sanitizer11CheckFailedEPKciS1_yy
         U _ZN11__sanitizer12InternalFreeEPvPNS_28SizeClassAllocatorLocalCacheINS_20SizeClassAllocator32INS_4AP32EEEEE
         U _ZN11__sanitizer13InternalAllocEmPNS_28SizeClassAllocatorLocalCacheINS_20SizeClassAllocator32INS_4AP32EEEEEm
-------- W _ZN11__sanitizer15StaticSpinMutex8LockSlowEv
-------- W _ZN11__sanitizer16DeadlockDetectorINS_17TwoLevelBitVectorILm1ENS_14BasicBitVectorImEEEEE10removeNodeEm
-------- W _ZN11__sanitizer16DeadlockDetectorINS_17TwoLevelBitVectorILm1ENS_14BasicBitVectorImEEEEE14findPathToLockEPNS_19DeadlockDetectorTLSIS4_EEmPmm
-------- W _ZN11__sanitizer16DeadlockDetectorINS_17TwoLevelBitVectorILm1ENS_14BasicBitVectorImEEEEE7newNodeEm
-------- W _ZN11__sanitizer16DeadlockDetectorINS_17TwoLevelBitVectorILm1ENS_14BasicBitVectorImEEEEE8addEdgesEPNS_19DeadlockDetectorTLSIS4_EEmji
-------- W _ZN11__sanitizer17TwoLevelBitVectorILm1ENS_14BasicBitVectorImEEE19getAndClearFirstOneEv
-------- W _ZN11__sanitizer17TwoLevelBitVectorILm1ENS_14BasicBitVectorImEEE8Iterator4nextEv
-------- W _ZN11__sanitizer19DeadlockDetectorTLSINS_17TwoLevelBitVectorILm1ENS_14BasicBitVectorImEEEEE10removeLockEm
-------- W _ZN11__sanitizer19DeadlockDetectorTLSINS_17TwoLevelBitVectorILm1ENS_14BasicBitVectorImEEEEE7addLockEmmj
         U _ZN11__sanitizer20internal_sched_yieldEv
-------- T _ZN11__sanitizer2DD12MutexDestroyEPNS_10DDCallbackEPNS_7DDMutexE
-------- T _ZN11__sanitizer2DD13MutexEnsureIDEPNS_15DDLogicalThreadEPNS_7DDMutexE
-------- T _ZN11__sanitizer2DD14MutexAfterLockEPNS_10DDCallbackEPNS_7DDMutexEbb
-------- T _ZN11__sanitizer2DD14ReportDeadlockEPNS_10DDCallbackEPNS_7DDMutexE
-------- T _ZN11__sanitizer2DD15MutexBeforeLockEPNS_10DDCallbackEPNS_7DDMutexEb
-------- T _ZN11__sanitizer2DD17MutexBeforeUnlockEPNS_10DDCallbackEPNS_7DDMutexEb
-------- T _ZN11__sanitizer2DD19CreateLogicalThreadEy
-------- T _ZN11__sanitizer2DD20CreatePhysicalThreadEv
-------- T _ZN11__sanitizer2DD20DestroyLogicalThreadEPNS_15DDLogicalThreadE
-------- T _ZN11__sanitizer2DD21DestroyPhysicalThreadEPNS_16DDPhysicalThreadE
-------- T _ZN11__sanitizer2DD9GetReportEPNS_10DDCallbackE
-------- T _ZN11__sanitizer2DD9MutexInitEPNS_10DDCallbackEPNS_7DDMutexE
-------- T _ZN11__sanitizer2DDC1EPKNS_7DDFlagsE
-------- T _ZN11__sanitizer2DDC2EPKNS_7DDFlagsE
         U _ZN11__sanitizer6PrintfEPKcz
-------- W _ZN11__sanitizer7BVGraphINS_17TwoLevelBitVectorILm1ENS_14BasicBitVectorImEEEEE11isReachableEmRKS4_
-------- W _ZN11__sanitizer7BVGraphINS_17TwoLevelBitVectorILm1ENS_14BasicBitVectorImEEEEE8addEdgesERKS4_mPmm
-------- W _ZN11__sanitizer7BVGraphINS_17TwoLevelBitVectorILm1ENS_14BasicBitVectorImEEEEE8findPathEmRKS4_Pmm
-------- T _ZN11__sanitizer9DDetector6CreateEPKNS_7DDFlagsE
         U _ZN11__sanitizer9MmapOrDieEmPKcb
-------- W _ZNK11__sanitizer16DeadlockDetectorINS_17TwoLevelBitVectorILm1ENS_14BasicBitVectorImEEEEE6isHeldEPNS_19DeadlockDetectorTLSIS4_EEm
-------- D _ZTIN11__sanitizer2DDE
-------- W _ZTIN11__sanitizer9DDetectorE
-------- D _ZTSN11__sanitizer2DDE
-------- W _ZTSN11__sanitizer9DDetectorE
         U _ZTVN10__cxxabiv117__class_type_infoE
         U _ZTVN10__cxxabiv120__si_class_type_infoE
-------- D _ZTVN11__sanitizer2DDE
         U __stack_pointer

sanitizer_fuchsia.cc.o:

sanitizer_netbsd.cc.o:

sanitizer_symbolizer_libbacktrace.cc.o:
-------- W _ZN11__sanitizer14SymbolizerTool5FlushEv
-------- T _ZN11__sanitizer22LibbacktraceSymbolizer11SymbolizePCEmPNS_15SymbolizedStackE
-------- T _ZN11__sanitizer22LibbacktraceSymbolizer13SymbolizeDataEmPNS_8DataInfoE
-------- T _ZN11__sanitizer22LibbacktraceSymbolizer3getEPNS_17LowLevelAllocatorE
-------- T _ZN11__sanitizer22LibbacktraceSymbolizer8DemangleEPKc
-------- W _ZTIN11__sanitizer14SymbolizerToolE
-------- D _ZTIN11__sanitizer22LibbacktraceSymbolizerE
-------- W _ZTSN11__sanitizer14SymbolizerToolE
-------- D _ZTSN11__sanitizer22LibbacktraceSymbolizerE
         U _ZTVN10__cxxabiv117__class_type_infoE
         U _ZTVN10__cxxabiv120__si_class_type_infoE
-------- D _ZTVN11__sanitizer22LibbacktraceSymbolizerE

sanitizer_win_dynamic_runtime_thunk.cc.o:

sanitizer_deadlock_detector2.cc.o:

sanitizer_platform_limits_posix.cc.o:

sanitizer_unwind_win.cc.o:

sanitizer_platform_limits_linux.cc.o:

sanitizer_stacktrace_libcdep.cc.o:
         U _ZN11__sanitizer10RenderDataEPNS_20InternalScopedStringEPKcPKNS_8DataInfoES3_
         U _ZN11__sanitizer10Symbolizer11SymbolizePCEm
         U _ZN11__sanitizer10Symbolizer13SymbolizeDataEmPNS_8DataInfoE
         U _ZN11__sanitizer10Symbolizer27GetModuleNameAndOffsetForPCEmPPKcPm
         U _ZN11__sanitizer10Symbolizer9GetOrInitEv
         U _ZN11__sanitizer10UnmapOrDieEPvm
         U _ZN11__sanitizer11CheckFailedEPKciS1_yy
         U _ZN11__sanitizer11GetPageSizeEv
         U _ZN11__sanitizer11RenderFrameEPNS_20InternalScopedStringEPKciRKNS_11AddressInfoEbS3_S3_
         U _ZN11__sanitizer14PageSizeCachedE
         U _ZN11__sanitizer15SymbolizedStack8ClearAllEv
         U _ZN11__sanitizer15internal_memcpyEPvPKvm
         U _ZN11__sanitizer15internal_memsetEPvim
         U _ZN11__sanitizer16internal_strncpyEPcPKcm
         U _ZN11__sanitizer18BufferedStackTrace15FastUnwindStackEmmmmj
-------- T _ZN11__sanitizer18BufferedStackTrace6UnwindEjmmPvmmb
         U _ZN11__sanitizer20InternalScopedString6appendEPKcz
-------- W _ZN11__sanitizer20InternalScopedStringC2Em
         U _ZN11__sanitizer21common_flags_dont_useE
-------- W _ZN11__sanitizer24InternalMmapVectorNoCtorIcE7ReallocEm
         U _ZN11__sanitizer3DieEv
         U _ZN11__sanitizer6PrintfEPKcz
         U _ZN11__sanitizer8DataInfoC1Ev
         U _ZN11__sanitizer8RawWriteEPKc
         U _ZN11__sanitizer9MmapOrDieEmPKcb
-------- T _ZNK11__sanitizer10StackTrace5PrintEv
         U _ZSt9terminatev
-------- W __clang_call_terminate
         U __cxa_begin_catch
-------- T __sanitizer_get_module_and_offset_for_pc
-------- T __sanitizer_symbolize_global
-------- T __sanitizer_symbolize_pc
         U __stack_pointer

sanitizer_procmaps_common.cc.o:

sanitizer_coverage_win_weak_interception.cc.o:

sanitizer_flag_parser.cc.o:
-------- T _ZN11__sanitizer10FlagParser10ll_strndupEPKcm
-------- T _ZN11__sanitizer10FlagParser10parse_flagEv
-------- T _ZN11__sanitizer10FlagParser11ParseStringEPKc
-------- T _ZN11__sanitizer10FlagParser11fatal_errorEPKc
-------- T _ZN11__sanitizer10FlagParser11parse_flagsEv
-------- T _ZN11__sanitizer10FlagParser11run_handlerEPKcS2_
-------- T _ZN11__sanitizer10FlagParser15RegisterHandlerEPKcPNS_15FlagHandlerBaseES2_
-------- T _ZN11__sanitizer10FlagParser15skip_whitespaceEv
-------- T _ZN11__sanitizer10FlagParser21PrintFlagDescriptionsEv
-------- D _ZN11__sanitizer10FlagParser5AllocE
-------- T _ZN11__sanitizer10FlagParser8is_spaceEc
-------- T _ZN11__sanitizer10FlagParser9ParseFileEPKcb
-------- T _ZN11__sanitizer10FlagParserC1Ev
-------- T _ZN11__sanitizer10FlagParserC2Ev
         U _ZN11__sanitizer10UnmapOrDieEPvm
         U _ZN11__sanitizer11CheckFailedEPKciS1_yy
         U _ZN11__sanitizer11GetPageSizeEv
-------- D _ZN11__sanitizer13unknown_flagsE
         U _ZN11__sanitizer14PageSizeCachedE
         U _ZN11__sanitizer15internal_memcpyEPvPKvm
         U _ZN11__sanitizer15internal_strcmpEPKcS1_
         U _ZN11__sanitizer16ReadFileToBufferEPKcPPcPmS4_mPi
         U _ZN11__sanitizer16internal_strnlenEPKcm
         U _ZN11__sanitizer17LowLevelAllocator8AllocateEm
         U _ZN11__sanitizer17SanitizerToolNameE
         U _ZN11__sanitizer21common_flags_dont_useE
-------- T _ZN11__sanitizer23ReportUnrecognizedFlagsEv
         U _ZN11__sanitizer3DieEv
         U _ZN11__sanitizer6PrintfEPKcz
         U __stack_pointer
