
ubsan_type_hash_itanium.cc.o:
         U _ZN11__sanitizer23IsAccessibleMemoryRangeEmm
-------- T _ZN7__ubsan16checkDynamicTypeEPvS0_m
-------- T _ZN7__ubsan28getDynamicTypeInfoFromVtableEPv
         U _ZTIN10__cxxabiv117__class_type_infoE
         U _ZTIN10__cxxabiv120__si_class_type_infoE
         U _ZTIN10__cxxabiv121__vmi_class_type_infoE
         U _ZTISt9type_info
         U __dynamic_cast
         U __ubsan_vptr_type_cache

ubsan_flags.cc.o:
         U _ZN11__sanitizer10FlagParser11ParseStringEPKc
         U _ZN11__sanitizer10FlagParser15RegisterHandlerEPKcPNS_15FlagHandlerBaseES2_
         U _ZN11__sanitizer10FlagParser21PrintFlagDescriptionsEv
         U _ZN11__sanitizer10FlagParser5AllocE
         U _ZN11__sanitizer10FlagParserC1Ev
         U _ZN11__sanitizer11CommonFlags11SetDefaultsEv
         U _ZN11__sanitizer11CommonFlags8CopyFromERKS0_
-------- W _ZN11__sanitizer11FlagHandlerIPKcE5ParseES2_
-------- W _ZN11__sanitizer11FlagHandlerIbE5ParseEPKc
         U _ZN11__sanitizer15internal_strcmpEPKcS1_
         U _ZN11__sanitizer17LowLevelAllocator8AllocateEm
         U _ZN11__sanitizer17current_verbosityE
         U _ZN11__sanitizer19RegisterCommonFlagsEPNS_10FlagParserEPNS_11CommonFlagsE
         U _ZN11__sanitizer21InitializeCommonFlagsEPNS_11CommonFlagsE
         U _ZN11__sanitizer21common_flags_dont_useE
         U _ZN11__sanitizer23ReportUnrecognizedFlagsEv
         U _ZN11__sanitizer6PrintfEPKcz
-------- D _ZN7__ubsan11ubsan_flagsE
-------- T _ZN7__ubsan15InitializeFlagsEv
-------- T _ZN7__ubsan18RegisterUbsanFlagsEPN11__sanitizer10FlagParserEPNS_5FlagsE
-------- T _ZN7__ubsan28MaybeCallUbsanDefaultOptionsEv
-------- T _ZN7__ubsan5Flags11SetDefaultsEv
-------- W _ZTIN11__sanitizer11FlagHandlerIPKcEE
-------- W _ZTIN11__sanitizer11FlagHandlerIbEE
-------- W _ZTIN11__sanitizer15FlagHandlerBaseE
-------- W _ZTSN11__sanitizer11FlagHandlerIPKcEE
-------- W _ZTSN11__sanitizer11FlagHandlerIbEE
-------- W _ZTSN11__sanitizer15FlagHandlerBaseE
         U _ZTVN10__cxxabiv117__class_type_infoE
         U _ZTVN10__cxxabiv120__si_class_type_infoE
-------- W _ZTVN11__sanitizer11FlagHandlerIPKcEE
-------- W _ZTVN11__sanitizer11FlagHandlerIbEE
         U __stack_pointer
-------- W __ubsan_default_options
         U getenv

ubsan_monitor.cc.o:
         U _ZN11__sanitizer10UnmapOrDieEPvm
         U _ZN11__sanitizer11CheckFailedEPKciS1_yy
         U _ZN11__sanitizer11GetPageSizeEv
         U _ZN11__sanitizer14PageSizeCachedE
         U _ZN11__sanitizer15internal_memcpyEPvPKvm
         U _ZN11__sanitizer15internal_memsetEPvim
         U _ZN11__sanitizer20InternalScopedString6appendEPKcz
-------- W _ZN11__sanitizer20InternalScopedStringC2Em
-------- W _ZN11__sanitizer24InternalMmapVectorNoCtorIcE7ReallocEm
         U _ZN11__sanitizer3DieEv
         U _ZN11__sanitizer8RawWriteEPKc
         U _ZN11__sanitizer9MmapOrDieEmPKcb
-------- T _ZN7__ubsan23UndefinedBehaviorReportC1EPKcRNS_8LocationERN11__sanitizer20InternalScopedStringE
-------- T _ZN7__ubsan23UndefinedBehaviorReportC2EPKcRNS_8LocationERN11__sanitizer20InternalScopedStringE
-------- T _ZN7__ubsan31RegisterUndefinedBehaviorReportEPNS_23UndefinedBehaviorReportE
         U _ZSt9terminatev
-------- W __clang_call_terminate
         U __cxa_begin_catch
         U __stack_pointer
-------- T __ubsan_get_current_report_data
-------- W __ubsan_on_report

ubsan_signals_standalone.cc.o:
-------- T _ZN7__ubsan23InitializeDeadlySignalsEv

ubsan_value.cc.o:
         U _ZN11__sanitizer11CheckFailedEPKciS1_yy
         U _ZN11__sanitizer15internal_memcpyEPvPKvm
-------- T _ZNK7__ubsan5Value12getSIntValueEv
-------- T _ZNK7__ubsan5Value12getUIntValueEv
-------- T _ZNK7__ubsan5Value13getFloatValueEv
-------- T _ZNK7__ubsan5Value19getPositiveIntValueEv
         U __ashlti3
         U __ashrti3
         U __extenddftf2
         U __extendsftf2
         U __stack_pointer

ubsan_win_dll_thunk.cc.o:

ubsan_handlers.cc.o:
         U _ZN11__sanitizer10Symbolizer27GetModuleNameAndOffsetForPCEmPPKcPm
         U _ZN11__sanitizer10Symbolizer9GetOrInitEv
         U _ZN11__sanitizer11CheckFailedEPKciS1_yy
         U _ZN11__sanitizer15SymbolizedStack8ClearAllEv
         U _ZN11__sanitizer15internal_memcpyEPvPKvm
         U _ZN11__sanitizer15internal_strcmpEPKcS1_
         U _ZN11__sanitizer16internal_strncmpEPKcS1_m
         U _ZN11__sanitizer3DieEv
         U _ZN7__ubsan11ubsan_flagsE
         U _ZN7__ubsan12ScopedReportC1ENS_13ReportOptionsENS_8LocationENS_9ErrorTypeE
         U _ZN7__ubsan12ScopedReportD1Ev
-------- T _ZN7__ubsan12ignoreReportENS_14SourceLocationENS_13ReportOptionsENS_9ErrorTypeE
         U _ZN7__ubsan14IsPCSuppressedENS_9ErrorTypeEmPKc
-------- D _ZN7__ubsan14TypeCheckKindsE
         U _ZN7__ubsan21getSymbolizedLocationEm
         U _ZN7__ubsan4DiagD1Ev
         U _ZN7__ubsan4DiaglsERKNS_14TypeDescriptorE
         U _ZN7__ubsan4DiaglsERKNS_5ValueE
         U _ZNK7__ubsan5Value12getSIntValueEv
         U _ZNK7__ubsan5Value19getPositiveIntValueEv
         U _ZSt9terminatev
-------- W __clang_call_terminate
         U __cxa_begin_catch
         U __stack_pointer
-------- T __ubsan_handle_add_overflow
-------- T __ubsan_handle_add_overflow_abort
-------- T __ubsan_handle_alignment_assumption
-------- T __ubsan_handle_alignment_assumption_abort
-------- T __ubsan_handle_builtin_unreachable
         w __ubsan_handle_cfi_bad_type
-------- T __ubsan_handle_cfi_check_fail
-------- T __ubsan_handle_cfi_check_fail_abort
-------- T __ubsan_handle_divrem_overflow
-------- T __ubsan_handle_divrem_overflow_abort
-------- T __ubsan_handle_float_cast_overflow
-------- T __ubsan_handle_float_cast_overflow_abort
-------- T __ubsan_handle_function_type_mismatch
-------- T __ubsan_handle_function_type_mismatch_abort
-------- T __ubsan_handle_implicit_conversion
-------- T __ubsan_handle_implicit_conversion_abort
-------- T __ubsan_handle_invalid_builtin
-------- T __ubsan_handle_invalid_builtin_abort
-------- T __ubsan_handle_load_invalid_value
-------- T __ubsan_handle_load_invalid_value_abort
-------- T __ubsan_handle_missing_return
-------- T __ubsan_handle_mul_overflow
-------- T __ubsan_handle_mul_overflow_abort
-------- T __ubsan_handle_negate_overflow
-------- T __ubsan_handle_negate_overflow_abort
-------- T __ubsan_handle_nonnull_arg
-------- T __ubsan_handle_nonnull_arg_abort
-------- T __ubsan_handle_nonnull_return_v1
-------- T __ubsan_handle_nonnull_return_v1_abort
-------- T __ubsan_handle_nullability_arg
-------- T __ubsan_handle_nullability_arg_abort
-------- T __ubsan_handle_nullability_return_v1
-------- T __ubsan_handle_nullability_return_v1_abort
-------- T __ubsan_handle_out_of_bounds
-------- T __ubsan_handle_out_of_bounds_abort
-------- T __ubsan_handle_pointer_overflow
-------- T __ubsan_handle_pointer_overflow_abort
-------- T __ubsan_handle_shift_out_of_bounds
-------- T __ubsan_handle_shift_out_of_bounds_abort
-------- T __ubsan_handle_sub_overflow
-------- T __ubsan_handle_sub_overflow_abort
-------- T __ubsan_handle_type_mismatch_v1
-------- T __ubsan_handle_type_mismatch_v1_abort
-------- T __ubsan_handle_vla_bound_not_positive
-------- T __ubsan_handle_vla_bound_not_positive_abort
         U emscripten_return_address

ubsan_diag_standalone.cc.o:
         U _ZN11__sanitizer10StackTrace12GetCurrentPcEv
         U _ZN11__sanitizer18BufferedStackTrace6UnwindEjmmPvmmb
         U _ZN11__sanitizer21common_flags_dont_useE
         U _ZN11__sanitizer26GetThreadStackTopAndBottomEbPmS0_
         U _ZNK11__sanitizer10StackTrace5PrintEv
-------- T __sanitizer_print_stack_trace
         U __stack_pointer

ubsan_type_hash_win.cc.o:

ubsan_init_standalone.cc.o:
         U _ZN7__ubsan16InitAsStandaloneEv
         U _ZN7__ubsan23InitializeDeadlySignalsEv

ubsan_win_dynamic_runtime_thunk.cc.o:

ubsan_diag.cc.o:
         U _ZN11__sanitizer10Symbolizer11SymbolizePCEm
         U _ZN11__sanitizer10Symbolizer27GetModuleNameAndOffsetForPCEmPPKcPm
         U _ZN11__sanitizer10Symbolizer8DemangleEPKc
         U _ZN11__sanitizer10Symbolizer9GetOrInitEv
         U _ZN11__sanitizer10UnmapOrDieEPvm
         U _ZN11__sanitizer11AddressInfo5ClearEv
         U _ZN11__sanitizer11AddressInfoC1Ev
         U _ZN11__sanitizer11CheckFailedEPKciS1_yy
         U _ZN11__sanitizer11GetPageSizeEv
         U _ZN11__sanitizer14PageSizeCachedE
         U _ZN11__sanitizer15ColorizeReportsEv
         U _ZN11__sanitizer15SymbolizedStack8ClearAllEv
         U _ZN11__sanitizer15internal_memcpyEPvPKvm
         U _ZN11__sanitizer15internal_memsetEPvim
         U _ZN11__sanitizer15internal_strdupEPKc
         U _ZN11__sanitizer18BufferedStackTrace6UnwindEjmmPvmmb
         U _ZN11__sanitizer18ReportErrorSummaryEPKcRKNS_11AddressInfoES1_
         U _ZN11__sanitizer18ReportErrorSummaryEPKcS1_
         U _ZN11__sanitizer18SuppressionContext13ParseFromFileEPKc
         U _ZN11__sanitizer18SuppressionContext5MatchEPKcS2_PPNS_11SuppressionE
         U _ZN11__sanitizer18SuppressionContextC1EPPKci
         U _ZN11__sanitizer20InternalScopedString6appendEPKcz
         U _ZN11__sanitizer20RenderModuleLocationEPNS_20InternalScopedStringEPKcmNS_10ModuleArchES3_
         U _ZN11__sanitizer20RenderSourceLocationEPNS_20InternalScopedStringEPKciibS3_
         U _ZN11__sanitizer21ScopedErrorReportLock11CheckLockedEv
         U _ZN11__sanitizer21ScopedErrorReportLockC1Ev
         U _ZN11__sanitizer21ScopedErrorReportLockD1Ev
         U _ZN11__sanitizer21common_flags_dont_useE
         U _ZN11__sanitizer23IsAccessibleMemoryRangeEmm
-------- W _ZN11__sanitizer24InternalMmapVectorNoCtorIcE7ReallocEm
         U _ZN11__sanitizer26GetThreadStackTopAndBottomEbPmS0_
         U _ZN11__sanitizer3DieEv
         U _ZN11__sanitizer6PrintfEPKcz
         U _ZN11__sanitizer8RawWriteEPKc
         U _ZN11__sanitizer9MmapOrDieEmPKcb
         U _ZN7__ubsan11ubsan_flagsE
-------- T _ZN7__ubsan12ScopedReport11InitializerC1Ev
-------- T _ZN7__ubsan12ScopedReport11InitializerC2Ev
-------- T _ZN7__ubsan12ScopedReportC1ENS_13ReportOptionsENS_8LocationENS_9ErrorTypeE
-------- T _ZN7__ubsan12ScopedReportC2ENS_13ReportOptionsENS_8LocationENS_9ErrorTypeE
-------- T _ZN7__ubsan12ScopedReportD1Ev
-------- T _ZN7__ubsan12ScopedReportD2Ev
-------- T _ZN7__ubsan13GetStackTraceEPN11__sanitizer18BufferedStackTraceEmmmPvb
-------- T _ZN7__ubsan14IsPCSuppressedENS_9ErrorTypeEmPKc
-------- T _ZN7__ubsan21IsVptrCheckSuppressedEPKc
-------- T _ZN7__ubsan21getSymbolizedLocationEm
         U _ZN7__ubsan22GetSanititizerToolNameEv
-------- T _ZN7__ubsan22InitializeSuppressionsEv
         U _ZN7__ubsan23UndefinedBehaviorReportC1EPKcRNS_8LocationERN11__sanitizer20InternalScopedStringE
         U _ZN7__ubsan27InitAsStandaloneIfNecessaryEv
-------- T _ZN7__ubsan4DiagD1Ev
-------- T _ZN7__ubsan4DiagD2Ev
-------- T _ZN7__ubsan4DiaglsERKNS_14TypeDescriptorE
-------- T _ZN7__ubsan4DiaglsERKNS_5ValueE
         U _ZNK11__sanitizer10StackTrace5PrintEv
         U _ZNK11__sanitizer18SuppressionContext18HasSuppressionTypeEPKc
         U _ZNK7__ubsan5Value12getSIntValueEv
         U _ZNK7__ubsan5Value12getUIntValueEv
         U _ZNK7__ubsan5Value13getFloatValueEv
         U _ZSt9terminatev
-------- W __clang_call_terminate
         U __cxa_begin_catch
         U __stack_pointer
         U snprintf

ubsan_win_weak_interception.cc.o:

ubsan_init_standalone_preinit.cc.o:

ubsan_init.cc.o:
         U _ZN11__sanitizer15CacheBinaryNameEv
-------- W _ZN11__sanitizer15StaticSpinMutex8LockSlowEv
         U _ZN11__sanitizer17SanitizerToolNameE
         U _ZN11__sanitizer18InitializeCoverageEbPKc
         U _ZN11__sanitizer20internal_sched_yieldEv
         U _ZN11__sanitizer21common_flags_dont_useE
-------- T _ZN7__ubsan12InitAsPluginEv
         U _ZN7__ubsan15InitializeFlagsEv
-------- T _ZN7__ubsan16InitAsStandaloneEv
-------- T _ZN7__ubsan22GetSanititizerToolNameEv
         U _ZN7__ubsan22InitializeSuppressionsEv
-------- T _ZN7__ubsan27InitAsStandaloneIfNecessaryEv
         U __sanitizer_set_report_path

ubsan_handlers_cxx.cc.o:
         U _ZN11__sanitizer10Symbolizer27GetModuleNameAndOffsetForPCEmPPKcPm
         U _ZN11__sanitizer10Symbolizer9GetOrInitEv
         U _ZN11__sanitizer11CheckFailedEPKciS1_yy
         U _ZN11__sanitizer15internal_strcmpEPKcS1_
         U _ZN11__sanitizer3DieEv
         U _ZN7__ubsan12ScopedReportC1ENS_13ReportOptionsENS_8LocationENS_9ErrorTypeE
         U _ZN7__ubsan12ScopedReportD1Ev
         U _ZN7__ubsan12ignoreReportENS_14SourceLocationENS_13ReportOptionsENS_9ErrorTypeE
         U _ZN7__ubsan14TypeCheckKindsE
         U _ZN7__ubsan16checkDynamicTypeEPvS0_m
         U _ZN7__ubsan21IsVptrCheckSuppressedEPKc
         U _ZN7__ubsan28getDynamicTypeInfoFromObjectEPv
         U _ZN7__ubsan28getDynamicTypeInfoFromVtableEPv
         U _ZN7__ubsan4DiagD1Ev
         U _ZN7__ubsan4DiaglsERKNS_14TypeDescriptorE
         U __stack_pointer
-------- T __ubsan_handle_cfi_bad_type
-------- T __ubsan_handle_dynamic_type_cache_miss
-------- T __ubsan_handle_dynamic_type_cache_miss_abort
         U emscripten_return_address

ubsan_type_hash.cc.o:
-------- T _ZN7__ubsan28getDynamicTypeInfoFromObjectEPv
         U _ZN7__ubsan28getDynamicTypeInfoFromVtableEPv
-------- D __ubsan_vptr_type_cache
