# Auto-generated by tools/update_symbols.py.  DO NOT EDIT.
-------- T _ZNKSt12bad_any_cast4whatEv
-------- T _ZNKSt12experimental15fundamentals_v112bad_any_cast4whatEv
-------- W _ZNKSt12experimental15fundamentals_v13pmr26__null_memory_resource_imp11do_is_equalERKNS1_15memory_resourceE
-------- W _ZNKSt12experimental15fundamentals_v13pmr32__new_delete_memory_resource_imp11do_is_equalERKNS1_15memory_resourceE
-------- T _ZNKSt16nested_exception14rethrow_nestedEv
-------- T _ZNKSt18bad_variant_access4whatEv
-------- T _ZNKSt19bad_optional_access4whatEv
-------- W _ZNKSt3__210__equal_toIccEclERKcS3_
-------- W _ZNKSt3__210__equal_toIwwEclERKwS3_
-------- T _ZNKSt3__210__time_put8__do_putEPcRS1_PK2tmcc
-------- T _ZNKSt3__210__time_put8__do_putEPwRS1_PK2tmcc
-------- W _ZNKSt3__210error_code5valueEv
-------- T _ZNKSt3__210error_code7messageEv
-------- W _ZNKSt3__210error_code8categoryEv
-------- W _ZNKSt3__210error_codecvbEv
-------- W _ZNKSt3__210moneypunctIcLb0EE10neg_formatEv
-------- W _ZNKSt3__210moneypunctIcLb0EE10pos_formatEv
-------- W _ZNKSt3__210moneypunctIcLb0EE11curr_symbolEv
-------- W _ZNKSt3__210moneypunctIcLb0EE11do_groupingEv
-------- W _ZNKSt3__210moneypunctIcLb0EE11frac_digitsEv
-------- W _ZNKSt3__210moneypunctIcLb0EE13decimal_pointEv
-------- W _ZNKSt3__210moneypunctIcLb0EE13do_neg_formatEv
-------- W _ZNKSt3__210moneypunctIcLb0EE13do_pos_formatEv
-------- W _ZNKSt3__210moneypunctIcLb0EE13negative_signEv
-------- W _ZNKSt3__210moneypunctIcLb0EE13positive_signEv
-------- W _ZNKSt3__210moneypunctIcLb0EE13thousands_sepEv
-------- W _ZNKSt3__210moneypunctIcLb0EE14do_curr_symbolEv
-------- W _ZNKSt3__210moneypunctIcLb0EE14do_frac_digitsEv
-------- W _ZNKSt3__210moneypunctIcLb0EE16do_decimal_pointEv
-------- W _ZNKSt3__210moneypunctIcLb0EE16do_negative_signEv
-------- W _ZNKSt3__210moneypunctIcLb0EE16do_positive_signEv
-------- W _ZNKSt3__210moneypunctIcLb0EE16do_thousands_sepEv
-------- W _ZNKSt3__210moneypunctIcLb0EE8groupingEv
-------- W _ZNKSt3__210moneypunctIcLb1EE10neg_formatEv
-------- W _ZNKSt3__210moneypunctIcLb1EE10pos_formatEv
-------- W _ZNKSt3__210moneypunctIcLb1EE11curr_symbolEv
-------- W _ZNKSt3__210moneypunctIcLb1EE11do_groupingEv
-------- W _ZNKSt3__210moneypunctIcLb1EE11frac_digitsEv
-------- W _ZNKSt3__210moneypunctIcLb1EE13decimal_pointEv
-------- W _ZNKSt3__210moneypunctIcLb1EE13do_neg_formatEv
-------- W _ZNKSt3__210moneypunctIcLb1EE13do_pos_formatEv
-------- W _ZNKSt3__210moneypunctIcLb1EE13negative_signEv
-------- W _ZNKSt3__210moneypunctIcLb1EE13positive_signEv
-------- W _ZNKSt3__210moneypunctIcLb1EE13thousands_sepEv
-------- W _ZNKSt3__210moneypunctIcLb1EE14do_curr_symbolEv
-------- W _ZNKSt3__210moneypunctIcLb1EE14do_frac_digitsEv
-------- W _ZNKSt3__210moneypunctIcLb1EE16do_decimal_pointEv
-------- W _ZNKSt3__210moneypunctIcLb1EE16do_negative_signEv
-------- W _ZNKSt3__210moneypunctIcLb1EE16do_positive_signEv
-------- W _ZNKSt3__210moneypunctIcLb1EE16do_thousands_sepEv
-------- W _ZNKSt3__210moneypunctIcLb1EE8groupingEv
-------- W _ZNKSt3__210moneypunctIwLb0EE10neg_formatEv
-------- W _ZNKSt3__210moneypunctIwLb0EE10pos_formatEv
-------- W _ZNKSt3__210moneypunctIwLb0EE11curr_symbolEv
-------- W _ZNKSt3__210moneypunctIwLb0EE11do_groupingEv
-------- W _ZNKSt3__210moneypunctIwLb0EE11frac_digitsEv
-------- W _ZNKSt3__210moneypunctIwLb0EE13decimal_pointEv
-------- W _ZNKSt3__210moneypunctIwLb0EE13do_neg_formatEv
-------- W _ZNKSt3__210moneypunctIwLb0EE13do_pos_formatEv
-------- W _ZNKSt3__210moneypunctIwLb0EE13negative_signEv
-------- W _ZNKSt3__210moneypunctIwLb0EE13positive_signEv
-------- W _ZNKSt3__210moneypunctIwLb0EE13thousands_sepEv
-------- W _ZNKSt3__210moneypunctIwLb0EE14do_curr_symbolEv
-------- W _ZNKSt3__210moneypunctIwLb0EE14do_frac_digitsEv
-------- W _ZNKSt3__210moneypunctIwLb0EE16do_decimal_pointEv
-------- W _ZNKSt3__210moneypunctIwLb0EE16do_negative_signEv
-------- W _ZNKSt3__210moneypunctIwLb0EE16do_positive_signEv
-------- W _ZNKSt3__210moneypunctIwLb0EE16do_thousands_sepEv
-------- W _ZNKSt3__210moneypunctIwLb0EE8groupingEv
-------- W _ZNKSt3__210moneypunctIwLb1EE10neg_formatEv
-------- W _ZNKSt3__210moneypunctIwLb1EE10pos_formatEv
-------- W _ZNKSt3__210moneypunctIwLb1EE11curr_symbolEv
-------- W _ZNKSt3__210moneypunctIwLb1EE11do_groupingEv
-------- W _ZNKSt3__210moneypunctIwLb1EE11frac_digitsEv
-------- W _ZNKSt3__210moneypunctIwLb1EE13decimal_pointEv
-------- W _ZNKSt3__210moneypunctIwLb1EE13do_neg_formatEv
-------- W _ZNKSt3__210moneypunctIwLb1EE13do_pos_formatEv
-------- W _ZNKSt3__210moneypunctIwLb1EE13negative_signEv
-------- W _ZNKSt3__210moneypunctIwLb1EE13positive_signEv
-------- W _ZNKSt3__210moneypunctIwLb1EE13thousands_sepEv
-------- W _ZNKSt3__210moneypunctIwLb1EE14do_curr_symbolEv
-------- W _ZNKSt3__210moneypunctIwLb1EE14do_frac_digitsEv
-------- W _ZNKSt3__210moneypunctIwLb1EE16do_decimal_pointEv
-------- W _ZNKSt3__210moneypunctIwLb1EE16do_negative_signEv
-------- W _ZNKSt3__210moneypunctIwLb1EE16do_positive_signEv
-------- W _ZNKSt3__210moneypunctIwLb1EE16do_thousands_sepEv
-------- W _ZNKSt3__210moneypunctIwLb1EE8groupingEv
-------- W _ZNKSt3__210shared_ptrINS_4__fs10filesystem12__dir_streamEE3getEv
-------- W _ZNKSt3__210shared_ptrINS_4__fs10filesystem12__dir_streamEEptEv
-------- W _ZNKSt3__210shared_ptrINS_4__fs10filesystem16filesystem_error8_StorageEEptEv
-------- W _ZNKSt3__210shared_ptrINS_4__fs10filesystem28recursive_directory_iterator12__shared_impEEptEv
-------- W _ZNKSt3__210unique_ptrIA_cNS_14default_deleteIS1_EEE3getEv
-------- W _ZNKSt3__210unique_ptrINS_20__shared_ptr_emplaceINS_4__fs10filesystem12__dir_streamENS_9allocatorIS4_EEEENS_22__allocator_destructorINS5_IS7_EEEEE3getEv
-------- W _ZNKSt3__210unique_ptrINS_20__shared_ptr_emplaceINS_4__fs10filesystem28recursive_directory_iterator12__shared_impENS_9allocatorIS5_EEEENS_22__allocator_destructorINS6_IS8_EEEEE3getEv
-------- W _ZNKSt3__210unique_ptrIPNS_4__fs10filesystem12__dir_streamENS_22__allocator_destructorINS_9allocatorIS3_EEEEE3getEv
-------- W _ZNKSt3__210unique_ptrIcPFvPvEE3getEv
-------- W _ZNKSt3__210unique_ptrIcPFvPvEEcvbEv
-------- W _ZNKSt3__210unique_ptrIjPFvPvEE3getEv
-------- W _ZNKSt3__210unique_ptrIwPFvPvEE3getEv
-------- W _ZNKSt3__210unique_ptrIwPFvPvEEcvbEv
-------- T _ZNKSt3__211__libcpp_db15__decrementableEPKv
-------- T _ZNKSt3__211__libcpp_db15__find_c_from_iEPv
-------- T _ZNKSt3__211__libcpp_db15__find_iteratorEPKv
-------- T _ZNKSt3__211__libcpp_db15__subscriptableEPKvl
-------- T _ZNKSt3__211__libcpp_db17__dereferenceableEPKv
-------- T _ZNKSt3__211__libcpp_db17__find_c_and_lockEPv
-------- T _ZNKSt3__211__libcpp_db22__less_than_comparableEPKvS2_
-------- T _ZNKSt3__211__libcpp_db6unlockEv
-------- T _ZNKSt3__211__libcpp_db8__find_cEPv
-------- T _ZNKSt3__211__libcpp_db9__addableEPKvl
-------- W _ZNKSt3__211__wrap_iterIPKcE4baseEv
-------- W _ZNKSt3__211__wrap_iterIPKcEdeEv
-------- W _ZNKSt3__211__wrap_iterIPKcEplEl
-------- W _ZNKSt3__211__wrap_iterIPKwE4baseEv
-------- W _ZNKSt3__211__wrap_iterIPKwEdeEv
-------- W _ZNKSt3__211__wrap_iterIPKwEplEl
-------- W _ZNKSt3__211__wrap_iterIPNS_17basic_string_viewIcNS_11char_traitsIcEEEEE4baseEv
-------- W _ZNKSt3__211__wrap_iterIPNS_17basic_string_viewIcNS_11char_traitsIcEEEEEdeEv
-------- W _ZNKSt3__211__wrap_iterIPNS_4pairINS_17basic_string_viewIcNS_11char_traitsIcEEEENS_4__fs10filesystem12PathPartKindEEEE4baseEv
-------- W _ZNKSt3__211__wrap_iterIPNS_4pairINS_17basic_string_viewIcNS_11char_traitsIcEEEENS_4__fs10filesystem12PathPartKindEEEEdeEv
-------- W _ZNKSt3__211__wrap_iterIPNS_4pairIPNS_18condition_variableEPNS_5mutexEEEE4baseEv
-------- W _ZNKSt3__211__wrap_iterIPNS_4pairIPNS_18condition_variableEPNS_5mutexEEEEptEv
-------- W _ZNKSt3__211__wrap_iterIPPNS_17__assoc_sub_stateEE4baseEv
-------- W _ZNKSt3__211__wrap_iterIPPNS_17__assoc_sub_stateEEdeEv
-------- W _ZNKSt3__211__wrap_iterIPcE4baseEv
-------- W _ZNKSt3__211__wrap_iterIPcEdeEv
-------- W _ZNKSt3__211__wrap_iterIPcEmiEl
-------- W _ZNKSt3__211__wrap_iterIPcEplEl
-------- W _ZNKSt3__211__wrap_iterIPwE4baseEv
-------- W _ZNKSt3__211__wrap_iterIPwEdeEv
-------- W _ZNKSt3__211__wrap_iterIPwEmiEl
-------- W _ZNKSt3__211__wrap_iterIPwEplEl
-------- W _ZNKSt3__211unique_lockINS_5mutexEE5mutexEv
-------- W _ZNKSt3__211unique_lockINS_5mutexEE9owns_lockEv
-------- W _ZNKSt3__212__deque_baseINS_4__fs10filesystem12__dir_streamENS_9allocatorIS3_EEE4sizeEv
-------- T _ZNKSt3__212__do_message7messageEi
-------- T _ZNKSt3__212bad_weak_ptr4whatEv
-------- W _ZNKSt3__212basic_stringIcNS_11char_traitsIcEENS_9allocatorIcEEE12find_last_ofEPKcmm
-------- W _ZNKSt3__212basic_stringIcNS_11char_traitsIcEENS_9allocatorIcEEE13__get_pointerEv
-------- W _ZNKSt3__212basic_stringIcNS_11char_traitsIcEENS_9allocatorIcEEE13find_first_ofEPKcmm
-------- W _ZNKSt3__212basic_stringIcNS_11char_traitsIcEENS_9allocatorIcEEE13get_allocatorEv
-------- W _ZNKSt3__212basic_stringIcNS_11char_traitsIcEENS_9allocatorIcEEE14__get_long_capEv
-------- W _ZNKSt3__212basic_stringIcNS_11char_traitsIcEENS_9allocatorIcEEE15__get_long_sizeEv
-------- W _ZNKSt3__212basic_stringIcNS_11char_traitsIcEENS_9allocatorIcEEE16__get_short_sizeEv
-------- W _ZNKSt3__212basic_stringIcNS_11char_traitsIcEENS_9allocatorIcEEE16find_last_not_ofEPKcmm
-------- W _ZNKSt3__212basic_stringIcNS_11char_traitsIcEENS_9allocatorIcEEE17find_first_not_ofEPKcmm
-------- W _ZNKSt3__212basic_stringIcNS_11char_traitsIcEENS_9allocatorIcEEE18__get_long_pointerEv
-------- W _ZNKSt3__212basic_stringIcNS_11char_traitsIcEENS_9allocatorIcEEE19__get_short_pointerEv
-------- W _ZNKSt3__212basic_stringIcNS_11char_traitsIcEENS_9allocatorIcEEE2atEm
-------- W _ZNKSt3__212basic_stringIcNS_11char_traitsIcEENS_9allocatorIcEEE3endEv
-------- W _ZNKSt3__212basic_stringIcNS_11char_traitsIcEENS_9allocatorIcEEE4backEv
-------- W _ZNKSt3__212basic_stringIcNS_11char_traitsIcEENS_9allocatorIcEEE4copyEPcmm
-------- W _ZNKSt3__212basic_stringIcNS_11char_traitsIcEENS_9allocatorIcEEE4dataEv
-------- W _ZNKSt3__212basic_stringIcNS_11char_traitsIcEENS_9allocatorIcEEE4findEPKcmm
-------- W _ZNKSt3__212basic_stringIcNS_11char_traitsIcEENS_9allocatorIcEEE4findEcm
-------- W _ZNKSt3__212basic_stringIcNS_11char_traitsIcEENS_9allocatorIcEEE4sizeEv
-------- W _ZNKSt3__212basic_stringIcNS_11char_traitsIcEENS_9allocatorIcEEE5beginEv
-------- W _ZNKSt3__212basic_stringIcNS_11char_traitsIcEENS_9allocatorIcEEE5c_strEv
-------- W _ZNKSt3__212basic_stringIcNS_11char_traitsIcEENS_9allocatorIcEEE5emptyEv
-------- W _ZNKSt3__212basic_stringIcNS_11char_traitsIcEENS_9allocatorIcEEE5rfindEPKcmm
-------- W _ZNKSt3__212basic_stringIcNS_11char_traitsIcEENS_9allocatorIcEEE5rfindEcm
-------- W _ZNKSt3__212basic_stringIcNS_11char_traitsIcEENS_9allocatorIcEEE6lengthEv
-------- W _ZNKSt3__212basic_stringIcNS_11char_traitsIcEENS_9allocatorIcEEE7__allocEv
-------- W _ZNKSt3__212basic_stringIcNS_11char_traitsIcEENS_9allocatorIcEEE7compareEPKc
-------- W _ZNKSt3__212basic_stringIcNS_11char_traitsIcEENS_9allocatorIcEEE7compareEmmPKc
-------- W _ZNKSt3__212basic_stringIcNS_11char_traitsIcEENS_9allocatorIcEEE7compareEmmPKcm
-------- W _ZNKSt3__212basic_stringIcNS_11char_traitsIcEENS_9allocatorIcEEE7compareEmmRKS5_mm
-------- W _ZNKSt3__212basic_stringIcNS_11char_traitsIcEENS_9allocatorIcEEE7compareINS_17basic_string_viewIcS2_EEEENS_9enable_ifIXsr33__can_be_converted_to_string_viewIcS2_T_EE5valueEiE4typeEmmRKSA_mm
-------- W _ZNKSt3__212basic_stringIcNS_11char_traitsIcEENS_9allocatorIcEEE8capacityEv
-------- W _ZNKSt3__212basic_stringIcNS_11char_traitsIcEENS_9allocatorIcEEE8max_sizeEv
-------- W _ZNKSt3__212basic_stringIcNS_11char_traitsIcEENS_9allocatorIcEEE9__is_longEv
-------- W _ZNKSt3__212basic_stringIcNS_11char_traitsIcEENS_9allocatorIcEEEcvNS_17basic_string_viewIcS2_EEEv
-------- W _ZNKSt3__212basic_stringIcNS_11char_traitsIcEENS_9allocatorIcEEEixEm
-------- W _ZNKSt3__212basic_stringIwNS_11char_traitsIwEENS_9allocatorIwEEE12find_last_ofEPKwmm
-------- W _ZNKSt3__212basic_stringIwNS_11char_traitsIwEENS_9allocatorIwEEE13__get_pointerEv
-------- W _ZNKSt3__212basic_stringIwNS_11char_traitsIwEENS_9allocatorIwEEE13find_first_ofEPKwmm
-------- W _ZNKSt3__212basic_stringIwNS_11char_traitsIwEENS_9allocatorIwEEE14__get_long_capEv
-------- W _ZNKSt3__212basic_stringIwNS_11char_traitsIwEENS_9allocatorIwEEE15__get_long_sizeEv
-------- W _ZNKSt3__212basic_stringIwNS_11char_traitsIwEENS_9allocatorIwEEE16__get_short_sizeEv
-------- W _ZNKSt3__212basic_stringIwNS_11char_traitsIwEENS_9allocatorIwEEE16find_last_not_ofEPKwmm
-------- W _ZNKSt3__212basic_stringIwNS_11char_traitsIwEENS_9allocatorIwEEE17find_first_not_ofEPKwmm
-------- W _ZNKSt3__212basic_stringIwNS_11char_traitsIwEENS_9allocatorIwEEE18__get_long_pointerEv
-------- W _ZNKSt3__212basic_stringIwNS_11char_traitsIwEENS_9allocatorIwEEE19__get_short_pointerEv
-------- W _ZNKSt3__212basic_stringIwNS_11char_traitsIwEENS_9allocatorIwEEE2atEm
-------- W _ZNKSt3__212basic_stringIwNS_11char_traitsIwEENS_9allocatorIwEEE3endEv
-------- W _ZNKSt3__212basic_stringIwNS_11char_traitsIwEENS_9allocatorIwEEE4copyEPwmm
-------- W _ZNKSt3__212basic_stringIwNS_11char_traitsIwEENS_9allocatorIwEEE4dataEv
-------- W _ZNKSt3__212basic_stringIwNS_11char_traitsIwEENS_9allocatorIwEEE4findEPKwmm
-------- W _ZNKSt3__212basic_stringIwNS_11char_traitsIwEENS_9allocatorIwEEE4findEwm
-------- W _ZNKSt3__212basic_stringIwNS_11char_traitsIwEENS_9allocatorIwEEE4sizeEv
-------- W _ZNKSt3__212basic_stringIwNS_11char_traitsIwEENS_9allocatorIwEEE5beginEv
-------- W _ZNKSt3__212basic_stringIwNS_11char_traitsIwEENS_9allocatorIwEEE5c_strEv
-------- W _ZNKSt3__212basic_stringIwNS_11char_traitsIwEENS_9allocatorIwEEE5emptyEv
-------- W _ZNKSt3__212basic_stringIwNS_11char_traitsIwEENS_9allocatorIwEEE5rfindEPKwmm
-------- W _ZNKSt3__212basic_stringIwNS_11char_traitsIwEENS_9allocatorIwEEE5rfindEwm
-------- W _ZNKSt3__212basic_stringIwNS_11char_traitsIwEENS_9allocatorIwEEE7__allocEv
-------- W _ZNKSt3__212basic_stringIwNS_11char_traitsIwEENS_9allocatorIwEEE7compareEPKw
-------- W _ZNKSt3__212basic_stringIwNS_11char_traitsIwEENS_9allocatorIwEEE7compareEmmPKw
-------- W _ZNKSt3__212basic_stringIwNS_11char_traitsIwEENS_9allocatorIwEEE7compareEmmPKwm
-------- W _ZNKSt3__212basic_stringIwNS_11char_traitsIwEENS_9allocatorIwEEE7compareEmmRKS5_mm
-------- W _ZNKSt3__212basic_stringIwNS_11char_traitsIwEENS_9allocatorIwEEE7compareINS_17basic_string_viewIwS2_EEEENS_9enable_ifIXsr33__can_be_converted_to_string_viewIwS2_T_EE5valueEiE4typeEmmRKSA_mm
-------- W _ZNKSt3__212basic_stringIwNS_11char_traitsIwEENS_9allocatorIwEEE8capacityEv
-------- W _ZNKSt3__212basic_stringIwNS_11char_traitsIwEENS_9allocatorIwEEE8max_sizeEv
-------- W _ZNKSt3__212basic_stringIwNS_11char_traitsIwEENS_9allocatorIwEEE9__is_longEv
-------- W _ZNKSt3__212basic_stringIwNS_11char_traitsIwEENS_9allocatorIwEEEcvNS_17basic_string_viewIwS2_EEEv
-------- W _ZNKSt3__212basic_stringIwNS_11char_traitsIwEENS_9allocatorIwEEEixEm
-------- T _ZNKSt3__212ctype_bynameIcE10do_tolowerEPcPKc
-------- T _ZNKSt3__212ctype_bynameIcE10do_tolowerEc
-------- T _ZNKSt3__212ctype_bynameIcE10do_toupperEPcPKc
-------- T _ZNKSt3__212ctype_bynameIcE10do_toupperEc
-------- T _ZNKSt3__212ctype_bynameIwE10do_scan_isEtPKwS3_
-------- T _ZNKSt3__212ctype_bynameIwE10do_tolowerEPwPKw
-------- T _ZNKSt3__212ctype_bynameIwE10do_tolowerEw
-------- T _ZNKSt3__212ctype_bynameIwE10do_toupperEPwPKw
-------- T _ZNKSt3__212ctype_bynameIwE10do_toupperEw
-------- T _ZNKSt3__212ctype_bynameIwE11do_scan_notEtPKwS3_
-------- T _ZNKSt3__212ctype_bynameIwE5do_isEPKwS3_Pt
-------- T _ZNKSt3__212ctype_bynameIwE5do_isEtw
-------- T _ZNKSt3__212ctype_bynameIwE8do_widenEPKcS3_Pw
-------- T _ZNKSt3__212ctype_bynameIwE8do_widenEc
-------- T _ZNKSt3__212ctype_bynameIwE9do_narrowEPKwS3_cPc
-------- T _ZNKSt3__212ctype_bynameIwE9do_narrowEwc
-------- T _ZNKSt3__212strstreambuf6pcountEv
-------- W _ZNKSt3__213__atomic_baseIPNSt12experimental15fundamentals_v13pmr15memory_resourceELb0EE4loadENS_12memory_orderE
-------- W _ZNKSt3__213__scalar_hashINS_6_PairTELm2EEclES1_
-------- W _ZNKSt3__213__vector_baseINS_17basic_string_viewIcNS_11char_traitsIcEEEENS_9allocatorIS4_EEE7__allocEv
-------- W _ZNKSt3__213__vector_baseINS_17basic_string_viewIcNS_11char_traitsIcEEEENS_9allocatorIS4_EEE8capacityEv
-------- W _ZNKSt3__213__vector_baseINS_17basic_string_viewIcNS_11char_traitsIcEEEENS_9allocatorIS4_EEE9__end_capEv
-------- W _ZNKSt3__213__vector_baseINS_4pairINS_17basic_string_viewIcNS_11char_traitsIcEEEENS_4__fs10filesystem12PathPartKindEEENS_9allocatorIS9_EEE7__allocEv
-------- W _ZNKSt3__213__vector_baseINS_4pairINS_17basic_string_viewIcNS_11char_traitsIcEEEENS_4__fs10filesystem12PathPartKindEEENS_9allocatorIS9_EEE8capacityEv
-------- W _ZNKSt3__213__vector_baseINS_4pairINS_17basic_string_viewIcNS_11char_traitsIcEEEENS_4__fs10filesystem12PathPartKindEEENS_9allocatorIS9_EEE9__end_capEv
-------- W _ZNKSt3__213__vector_baseINS_4pairIPNS_18condition_variableEPNS_5mutexEEENS_18__hidden_allocatorIS6_EEE7__allocEv
-------- W _ZNKSt3__213__vector_baseINS_4pairIPNS_18condition_variableEPNS_5mutexEEENS_18__hidden_allocatorIS6_EEE8capacityEv
-------- W _ZNKSt3__213__vector_baseINS_4pairIPNS_18condition_variableEPNS_5mutexEEENS_18__hidden_allocatorIS6_EEE9__end_capEv
-------- W _ZNKSt3__213__vector_baseIPNS_17__assoc_sub_stateENS_18__hidden_allocatorIS2_EEE7__allocEv
-------- W _ZNKSt3__213__vector_baseIPNS_17__assoc_sub_stateENS_18__hidden_allocatorIS2_EEE8capacityEv
-------- W _ZNKSt3__213__vector_baseIPNS_17__assoc_sub_stateENS_18__hidden_allocatorIS2_EEE9__end_capEv
-------- W _ZNKSt3__213__vector_baseIPNS_6locale5facetENS_15__sso_allocatorIS3_Lm28EEEE7__allocEv
-------- W _ZNKSt3__213__vector_baseIPNS_6locale5facetENS_15__sso_allocatorIS3_Lm28EEEE8capacityEv
-------- W _ZNKSt3__213__vector_baseIPNS_6locale5facetENS_15__sso_allocatorIS3_Lm28EEEE9__end_capEv
-------- W _ZNKSt3__213basic_filebufIcNS_11char_traitsIcEEE7is_openEv
-------- W _ZNKSt3__213basic_istreamIcNS_11char_traitsIcEEE6sentrycvbEv
-------- W _ZNKSt3__213basic_istreamIwNS_11char_traitsIwEEE6sentrycvbEv
-------- W _ZNKSt3__213basic_ostreamIcNS_11char_traitsIcEEE6sentrycvbEv
-------- W _ZNKSt3__213basic_ostreamIwNS_11char_traitsIwEEE6sentrycvbEv
-------- W _ZNKSt3__213move_iteratorIPPNS_4__fs10filesystem12__dir_streamEE4baseEv
-------- W _ZNKSt3__213move_iteratorIPPNS_4__fs10filesystem12__dir_streamEEdeEv
-------- T _ZNKSt3__213random_device7entropyEv
-------- T _ZNKSt3__214__codecvt_utf8IDiE10do_unshiftER11__mbstate_tPcS4_RS4_
-------- T _ZNKSt3__214__codecvt_utf8IDiE11do_encodingEv
-------- T _ZNKSt3__214__codecvt_utf8IDiE13do_max_lengthEv
-------- T _ZNKSt3__214__codecvt_utf8IDiE16do_always_noconvEv
-------- T _ZNKSt3__214__codecvt_utf8IDiE5do_inER11__mbstate_tPKcS5_RS5_PDiS7_RS7_
-------- T _ZNKSt3__214__codecvt_utf8IDiE6do_outER11__mbstate_tPKDiS5_RS5_PcS7_RS7_
-------- T _ZNKSt3__214__codecvt_utf8IDiE9do_lengthER11__mbstate_tPKcS5_m
-------- T _ZNKSt3__214__codecvt_utf8IDsE10do_unshiftER11__mbstate_tPcS4_RS4_
-------- T _ZNKSt3__214__codecvt_utf8IDsE11do_encodingEv
-------- T _ZNKSt3__214__codecvt_utf8IDsE13do_max_lengthEv
-------- T _ZNKSt3__214__codecvt_utf8IDsE16do_always_noconvEv
-------- T _ZNKSt3__214__codecvt_utf8IDsE5do_inER11__mbstate_tPKcS5_RS5_PDsS7_RS7_
-------- T _ZNKSt3__214__codecvt_utf8IDsE6do_outER11__mbstate_tPKDsS5_RS5_PcS7_RS7_
-------- T _ZNKSt3__214__codecvt_utf8IDsE9do_lengthER11__mbstate_tPKcS5_m
-------- T _ZNKSt3__214__codecvt_utf8IwE10do_unshiftER11__mbstate_tPcS4_RS4_
-------- T _ZNKSt3__214__codecvt_utf8IwE11do_encodingEv
-------- T _ZNKSt3__214__codecvt_utf8IwE13do_max_lengthEv
-------- T _ZNKSt3__214__codecvt_utf8IwE16do_always_noconvEv
-------- T _ZNKSt3__214__codecvt_utf8IwE5do_inER11__mbstate_tPKcS5_RS5_PwS7_RS7_
-------- T _ZNKSt3__214__codecvt_utf8IwE6do_outER11__mbstate_tPKwS5_RS5_PcS7_RS7_
-------- T _ZNKSt3__214__codecvt_utf8IwE9do_lengthER11__mbstate_tPKcS5_m
-------- W _ZNKSt3__214__split_bufferINS_17basic_string_viewIcNS_11char_traitsIcEEEERNS_9allocatorIS4_EEE8capacityEv
-------- W _ZNKSt3__214__split_bufferINS_17basic_string_viewIcNS_11char_traitsIcEEEERNS_9allocatorIS4_EEE9__end_capEv
-------- W _ZNKSt3__214__split_bufferINS_4pairINS_17basic_string_viewIcNS_11char_traitsIcEEEENS_4__fs10filesystem12PathPartKindEEERNS_9allocatorIS9_EEE8capacityEv
-------- W _ZNKSt3__214__split_bufferINS_4pairINS_17basic_string_viewIcNS_11char_traitsIcEEEENS_4__fs10filesystem12PathPartKindEEERNS_9allocatorIS9_EEE9__end_capEv
-------- W _ZNKSt3__214__split_bufferINS_4pairIPNS_18condition_variableEPNS_5mutexEEERNS_18__hidden_allocatorIS6_EEE8capacityEv
-------- W _ZNKSt3__214__split_bufferINS_4pairIPNS_18condition_variableEPNS_5mutexEEERNS_18__hidden_allocatorIS6_EEE9__end_capEv
-------- W _ZNKSt3__214__split_bufferIPNS_17__assoc_sub_stateERNS_18__hidden_allocatorIS2_EEE8capacityEv
-------- W _ZNKSt3__214__split_bufferIPNS_17__assoc_sub_stateERNS_18__hidden_allocatorIS2_EEE9__end_capEv
-------- W _ZNKSt3__214__split_bufferIPNS_4__fs10filesystem12__dir_streamENS_9allocatorIS4_EEE12__back_spareEv
-------- W _ZNKSt3__214__split_bufferIPNS_4__fs10filesystem12__dir_streamENS_9allocatorIS4_EEE4sizeEv
-------- W _ZNKSt3__214__split_bufferIPNS_4__fs10filesystem12__dir_streamENS_9allocatorIS4_EEE5emptyEv
-------- W _ZNKSt3__214__split_bufferIPNS_4__fs10filesystem12__dir_streamENS_9allocatorIS4_EEE8capacityEv
-------- W _ZNKSt3__214__split_bufferIPNS_4__fs10filesystem12__dir_streamENS_9allocatorIS4_EEE9__end_capEv
-------- W _ZNKSt3__214__split_bufferIPNS_4__fs10filesystem12__dir_streamERNS_9allocatorIS4_EEE8capacityEv
-------- W _ZNKSt3__214__split_bufferIPNS_4__fs10filesystem12__dir_streamERNS_9allocatorIS4_EEE9__end_capEv
-------- W _ZNKSt3__214__split_bufferIPNS_6locale5facetERNS_15__sso_allocatorIS3_Lm28EEEE8capacityEv
-------- W _ZNKSt3__214__split_bufferIPNS_6locale5facetERNS_15__sso_allocatorIS3_Lm28EEEE9__end_capEv
-------- W _ZNKSt3__214basic_ifstreamIcNS_11char_traitsIcEEE7is_openEv
-------- W _ZNKSt3__214basic_ofstreamIcNS_11char_traitsIcEEE7is_openEv
-------- T _ZNKSt3__214collate_bynameIcE10do_compareEPKcS3_S3_S3_
-------- T _ZNKSt3__214collate_bynameIcE12do_transformEPKcS3_
-------- T _ZNKSt3__214collate_bynameIwE10do_compareEPKwS3_S3_S3_
-------- T _ZNKSt3__214collate_bynameIwE12do_transformEPKwS3_
-------- W _ZNKSt3__214default_deleteIA_cEclIcEENS2_20_EnableIfConvertibleIT_E4typeEPS5_
-------- T _ZNKSt3__214error_category10equivalentERKNS_10error_codeEi
-------- T _ZNKSt3__214error_category10equivalentEiRKNS_15error_conditionE
-------- T _ZNKSt3__214error_category23default_error_conditionEi
-------- W _ZNKSt3__214error_categoryeqERKS0_
-------- T _ZNKSt3__215__codecvt_utf16IDiLb0EE10do_unshiftER11__mbstate_tPcS4_RS4_
-------- T _ZNKSt3__215__codecvt_utf16IDiLb0EE11do_encodingEv
-------- T _ZNKSt3__215__codecvt_utf16IDiLb0EE13do_max_lengthEv
-------- T _ZNKSt3__215__codecvt_utf16IDiLb0EE16do_always_noconvEv
-------- T _ZNKSt3__215__codecvt_utf16IDiLb0EE5do_inER11__mbstate_tPKcS5_RS5_PDiS7_RS7_
-------- T _ZNKSt3__215__codecvt_utf16IDiLb0EE6do_outER11__mbstate_tPKDiS5_RS5_PcS7_RS7_
-------- T _ZNKSt3__215__codecvt_utf16IDiLb0EE9do_lengthER11__mbstate_tPKcS5_m
-------- T _ZNKSt3__215__codecvt_utf16IDiLb1EE10do_unshiftER11__mbstate_tPcS4_RS4_
-------- T _ZNKSt3__215__codecvt_utf16IDiLb1EE11do_encodingEv
-------- T _ZNKSt3__215__codecvt_utf16IDiLb1EE13do_max_lengthEv
-------- T _ZNKSt3__215__codecvt_utf16IDiLb1EE16do_always_noconvEv
-------- T _ZNKSt3__215__codecvt_utf16IDiLb1EE5do_inER11__mbstate_tPKcS5_RS5_PDiS7_RS7_
-------- T _ZNKSt3__215__codecvt_utf16IDiLb1EE6do_outER11__mbstate_tPKDiS5_RS5_PcS7_RS7_
-------- T _ZNKSt3__215__codecvt_utf16IDiLb1EE9do_lengthER11__mbstate_tPKcS5_m
-------- T _ZNKSt3__215__codecvt_utf16IDsLb0EE10do_unshiftER11__mbstate_tPcS4_RS4_
-------- T _ZNKSt3__215__codecvt_utf16IDsLb0EE11do_encodingEv
-------- T _ZNKSt3__215__codecvt_utf16IDsLb0EE13do_max_lengthEv
-------- T _ZNKSt3__215__codecvt_utf16IDsLb0EE16do_always_noconvEv
-------- T _ZNKSt3__215__codecvt_utf16IDsLb0EE5do_inER11__mbstate_tPKcS5_RS5_PDsS7_RS7_
-------- T _ZNKSt3__215__codecvt_utf16IDsLb0EE6do_outER11__mbstate_tPKDsS5_RS5_PcS7_RS7_
-------- T _ZNKSt3__215__codecvt_utf16IDsLb0EE9do_lengthER11__mbstate_tPKcS5_m
-------- T _ZNKSt3__215__codecvt_utf16IDsLb1EE10do_unshiftER11__mbstate_tPcS4_RS4_
-------- T _ZNKSt3__215__codecvt_utf16IDsLb1EE11do_encodingEv
-------- T _ZNKSt3__215__codecvt_utf16IDsLb1EE13do_max_lengthEv
-------- T _ZNKSt3__215__codecvt_utf16IDsLb1EE16do_always_noconvEv
-------- T _ZNKSt3__215__codecvt_utf16IDsLb1EE5do_inER11__mbstate_tPKcS5_RS5_PDsS7_RS7_
-------- T _ZNKSt3__215__codecvt_utf16IDsLb1EE6do_outER11__mbstate_tPKDsS5_RS5_PcS7_RS7_
-------- T _ZNKSt3__215__codecvt_utf16IDsLb1EE9do_lengthER11__mbstate_tPKcS5_m
-------- T _ZNKSt3__215__codecvt_utf16IwLb0EE10do_unshiftER11__mbstate_tPcS4_RS4_
-------- T _ZNKSt3__215__codecvt_utf16IwLb0EE11do_encodingEv
-------- T _ZNKSt3__215__codecvt_utf16IwLb0EE13do_max_lengthEv
-------- T _ZNKSt3__215__codecvt_utf16IwLb0EE16do_always_noconvEv
-------- T _ZNKSt3__215__codecvt_utf16IwLb0EE5do_inER11__mbstate_tPKcS5_RS5_PwS7_RS7_
-------- T _ZNKSt3__215__codecvt_utf16IwLb0EE6do_outER11__mbstate_tPKwS5_RS5_PcS7_RS7_
-------- T _ZNKSt3__215__codecvt_utf16IwLb0EE9do_lengthER11__mbstate_tPKcS5_m
-------- T _ZNKSt3__215__codecvt_utf16IwLb1EE10do_unshiftER11__mbstate_tPcS4_RS4_
-------- T _ZNKSt3__215__codecvt_utf16IwLb1EE11do_encodingEv
-------- T _ZNKSt3__215__codecvt_utf16IwLb1EE13do_max_lengthEv
-------- T _ZNKSt3__215__codecvt_utf16IwLb1EE16do_always_noconvEv
-------- T _ZNKSt3__215__codecvt_utf16IwLb1EE5do_inER11__mbstate_tPKcS5_RS5_PwS7_RS7_
-------- T _ZNKSt3__215__codecvt_utf16IwLb1EE6do_outER11__mbstate_tPKwS5_RS5_PcS7_RS7_
-------- T _ZNKSt3__215__codecvt_utf16IwLb1EE9do_lengthER11__mbstate_tPKcS5_m
-------- W _ZNKSt3__215__has_one_stateIcE5firstEv
-------- W _ZNKSt3__215__has_one_stateIwE5firstEv
-------- W _ZNKSt3__215__sso_allocatorIPNS_6locale5facetELm28EE8max_sizeEv
-------- W _ZNKSt3__215basic_streambufIcNS_11char_traitsIcEEE4gptrEv
-------- W _ZNKSt3__215basic_streambufIcNS_11char_traitsIcEEE4pptrEv
-------- W _ZNKSt3__215basic_streambufIcNS_11char_traitsIcEEE5ebackEv
-------- W _ZNKSt3__215basic_streambufIcNS_11char_traitsIcEEE5egptrEv
-------- W _ZNKSt3__215basic_streambufIcNS_11char_traitsIcEEE5epptrEv
-------- W _ZNKSt3__215basic_streambufIcNS_11char_traitsIcEEE5pbaseEv
-------- W _ZNKSt3__215basic_streambufIcNS_11char_traitsIcEEE6getlocEv
-------- W _ZNKSt3__215basic_streambufIwNS_11char_traitsIwEEE6getlocEv
-------- W _ZNKSt3__215error_condition5valueEv
-------- T _ZNKSt3__215error_condition7messageEv
-------- W _ZNKSt3__215error_condition8categoryEv
-------- W _ZNKSt3__215time_get_bynameIcNS_19istreambuf_iteratorIcNS_11char_traitsIcEEEEE13do_date_orderEv
-------- W _ZNKSt3__215time_get_bynameIcNS_19istreambuf_iteratorIcNS_11char_traitsIcEEEEE3__XEv
-------- W _ZNKSt3__215time_get_bynameIcNS_19istreambuf_iteratorIcNS_11char_traitsIcEEEEE3__cEv
-------- W _ZNKSt3__215time_get_bynameIcNS_19istreambuf_iteratorIcNS_11char_traitsIcEEEEE3__rEv
-------- W _ZNKSt3__215time_get_bynameIcNS_19istreambuf_iteratorIcNS_11char_traitsIcEEEEE3__xEv
-------- W _ZNKSt3__215time_get_bynameIcNS_19istreambuf_iteratorIcNS_11char_traitsIcEEEEE7__am_pmEv
-------- W _ZNKSt3__215time_get_bynameIcNS_19istreambuf_iteratorIcNS_11char_traitsIcEEEEE7__weeksEv
-------- W _ZNKSt3__215time_get_bynameIcNS_19istreambuf_iteratorIcNS_11char_traitsIcEEEEE8__monthsEv
-------- W _ZNKSt3__215time_get_bynameIwNS_19istreambuf_iteratorIwNS_11char_traitsIwEEEEE13do_date_orderEv
-------- W _ZNKSt3__215time_get_bynameIwNS_19istreambuf_iteratorIwNS_11char_traitsIwEEEEE3__XEv
-------- W _ZNKSt3__215time_get_bynameIwNS_19istreambuf_iteratorIwNS_11char_traitsIwEEEEE3__cEv
-------- W _ZNKSt3__215time_get_bynameIwNS_19istreambuf_iteratorIwNS_11char_traitsIwEEEEE3__rEv
-------- W _ZNKSt3__215time_get_bynameIwNS_19istreambuf_iteratorIwNS_11char_traitsIwEEEEE3__xEv
-------- W _ZNKSt3__215time_get_bynameIwNS_19istreambuf_iteratorIwNS_11char_traitsIwEEEEE7__am_pmEv
-------- W _ZNKSt3__215time_get_bynameIwNS_19istreambuf_iteratorIwNS_11char_traitsIwEEEEE7__weeksEv
-------- W _ZNKSt3__215time_get_bynameIwNS_19istreambuf_iteratorIwNS_11char_traitsIwEEEEE8__monthsEv
-------- W _ZNKSt3__216__deque_iteratorINS_4__fs10filesystem12__dir_streamEPS3_RS3_PS4_lLl0EEdeEv
-------- W _ZNKSt3__216__narrow_to_utf8ILm32EEclINS_20back_insert_iteratorINS_12basic_stringIcNS_11char_traitsIcEENS_9allocatorIcEEEEEEwEET_SB_PKT0_SE_
-------- W _ZNKSt3__216__narrow_to_utf8ILm8EEclINS_20back_insert_iteratorINS_12basic_stringIcNS_11char_traitsIcEENS_9allocatorIcEEEEEEcEET_SB_PKT0_SE_
-------- W _ZNKSt3__216reverse_iteratorINS_11__wrap_iterIPNS_17basic_string_viewIcNS_11char_traitsIcEEEEEEE4baseEv
-------- W _ZNKSt3__216reverse_iteratorINS_11__wrap_iterIPNS_17basic_string_viewIcNS_11char_traitsIcEEEEEEEdeEv
-------- W _ZNKSt3__217__assoc_sub_state10__is_readyEv
-------- W _ZNKSt3__217__assoc_sub_state11__has_valueEv
-------- W _ZNKSt3__217__compressed_pairINS_12basic_stringIcNS_11char_traitsIcEENS_9allocatorIcEEE5__repES5_E5firstEv
-------- W _ZNKSt3__217__compressed_pairINS_12basic_stringIcNS_11char_traitsIcEENS_9allocatorIcEEE5__repES5_E6secondEv
-------- W _ZNKSt3__217__compressed_pairINS_12basic_stringIwNS_11char_traitsIwEENS_9allocatorIwEEE5__repES5_E5firstEv
-------- W _ZNKSt3__217__compressed_pairINS_12basic_stringIwNS_11char_traitsIwEENS_9allocatorIwEEE5__repES5_E6secondEv
-------- W _ZNKSt3__217__compressed_pairIPNS_17basic_string_viewIcNS_11char_traitsIcEEEENS_9allocatorIS4_EEE5firstEv
-------- W _ZNKSt3__217__compressed_pairIPNS_17basic_string_viewIcNS_11char_traitsIcEEEENS_9allocatorIS4_EEE6secondEv
-------- W _ZNKSt3__217__compressed_pairIPNS_17basic_string_viewIcNS_11char_traitsIcEEEERNS_9allocatorIS4_EEE5firstEv
-------- W _ZNKSt3__217__compressed_pairIPNS_20__shared_ptr_emplaceINS_4__fs10filesystem12__dir_streamENS_9allocatorIS4_EEEENS_22__allocator_destructorINS5_IS7_EEEEE5firstEv
-------- W _ZNKSt3__217__compressed_pairIPNS_20__shared_ptr_emplaceINS_4__fs10filesystem28recursive_directory_iterator12__shared_impENS_9allocatorIS5_EEEENS_22__allocator_destructorINS6_IS8_EEEEE5firstEv
-------- W _ZNKSt3__217__compressed_pairIPNS_4__fs10filesystem12__dir_streamENS_22__allocator_destructorINS_9allocatorIS3_EEEEE5firstEv
-------- W _ZNKSt3__217__compressed_pairIPNS_4pairINS_17basic_string_viewIcNS_11char_traitsIcEEEENS_4__fs10filesystem12PathPartKindEEENS_9allocatorIS9_EEE5firstEv
-------- W _ZNKSt3__217__compressed_pairIPNS_4pairINS_17basic_string_viewIcNS_11char_traitsIcEEEENS_4__fs10filesystem12PathPartKindEEENS_9allocatorIS9_EEE6secondEv
-------- W _ZNKSt3__217__compressed_pairIPNS_4pairINS_17basic_string_viewIcNS_11char_traitsIcEEEENS_4__fs10filesystem12PathPartKindEEERNS_9allocatorIS9_EEE5firstEv
-------- W _ZNKSt3__217__compressed_pairIPNS_4pairIPNS_18condition_variableEPNS_5mutexEEENS_18__hidden_allocatorIS6_EEE5firstEv
-------- W _ZNKSt3__217__compressed_pairIPNS_4pairIPNS_18condition_variableEPNS_5mutexEEENS_18__hidden_allocatorIS6_EEE6secondEv
-------- W _ZNKSt3__217__compressed_pairIPNS_4pairIPNS_18condition_variableEPNS_5mutexEEERNS_18__hidden_allocatorIS6_EEE5firstEv
-------- W _ZNKSt3__217__compressed_pairIPPNS_17__assoc_sub_stateENS_18__hidden_allocatorIS2_EEE5firstEv
-------- W _ZNKSt3__217__compressed_pairIPPNS_17__assoc_sub_stateENS_18__hidden_allocatorIS2_EEE6secondEv
-------- W _ZNKSt3__217__compressed_pairIPPNS_17__assoc_sub_stateERNS_18__hidden_allocatorIS2_EEE5firstEv
-------- W _ZNKSt3__217__compressed_pairIPPNS_4__fs10filesystem12__dir_streamENS_9allocatorIS4_EEE5firstEv
-------- W _ZNKSt3__217__compressed_pairIPPNS_4__fs10filesystem12__dir_streamERNS_9allocatorIS4_EEE5firstEv
-------- W _ZNKSt3__217__compressed_pairIPPNS_6locale5facetENS_15__sso_allocatorIS3_Lm28EEEE5firstEv
-------- W _ZNKSt3__217__compressed_pairIPPNS_6locale5facetENS_15__sso_allocatorIS3_Lm28EEEE6secondEv
-------- W _ZNKSt3__217__compressed_pairIPPNS_6locale5facetERNS_15__sso_allocatorIS3_Lm28EEEE5firstEv
-------- W _ZNKSt3__217__compressed_pairIPcNS_14default_deleteIA_cEEE5firstEv
-------- W _ZNKSt3__217__compressed_pairIPcPFvPvEE5firstEv
-------- W _ZNKSt3__217__compressed_pairIPjPFvPvEE5firstEv
-------- W _ZNKSt3__217__compressed_pairIPwPFvPvEE5firstEv
-------- W _ZNKSt3__217__compressed_pairImNS_9allocatorINS_4__fs10filesystem12__dir_streamEEEE5firstEv
-------- W _ZNKSt3__217__widen_from_utf8ILm32EEclINS_20back_insert_iteratorINS_12basic_stringIwNS_11char_traitsIwEENS_9allocatorIwEEEEEEEET_SB_PKcSD_
-------- W _ZNKSt3__217__widen_from_utf8ILm8EEclINS_20back_insert_iteratorINS_12basic_stringIcNS_11char_traitsIcEENS_9allocatorIcEEEEEEEET_SB_PKcSD_
-------- T _ZNKSt3__217bad_function_call4whatEv
-------- W _ZNKSt3__217basic_string_viewIcNS_11char_traitsIcEEE12find_last_ofEcm
-------- W _ZNKSt3__217basic_string_viewIcNS_11char_traitsIcEEE4backEv
-------- W _ZNKSt3__217basic_string_viewIcNS_11char_traitsIcEEE4dataEv
-------- W _ZNKSt3__217basic_string_viewIcNS_11char_traitsIcEEE4sizeEv
-------- W _ZNKSt3__217basic_string_viewIcNS_11char_traitsIcEEE5emptyEv
-------- W _ZNKSt3__217basic_string_viewIcNS_11char_traitsIcEEE5frontEv
-------- W _ZNKSt3__217basic_string_viewIcNS_11char_traitsIcEEE5rfindEcm
-------- W _ZNKSt3__217basic_string_viewIcNS_11char_traitsIcEEE6lengthEv
-------- W _ZNKSt3__217basic_string_viewIcNS_11char_traitsIcEEE6substrEmm
-------- W _ZNKSt3__217basic_string_viewIcNS_11char_traitsIcEEE7compareES3_
-------- W _ZNKSt3__217basic_string_viewIcNS_11char_traitsIcEEEixEm
-------- W _ZNKSt3__217basic_string_viewIwNS_11char_traitsIwEEE4dataEv
-------- W _ZNKSt3__217basic_string_viewIwNS_11char_traitsIwEEE4sizeEv
-------- W _ZNKSt3__217basic_string_viewIwNS_11char_traitsIwEEE6substrEmm
-------- W _ZNKSt3__217basic_string_viewIwNS_11char_traitsIwEEE7compareES3_
-------- W _ZNKSt3__217moneypunct_bynameIcLb0EE11do_groupingEv
-------- W _ZNKSt3__217moneypunct_bynameIcLb0EE13do_neg_formatEv
-------- W _ZNKSt3__217moneypunct_bynameIcLb0EE13do_pos_formatEv
-------- W _ZNKSt3__217moneypunct_bynameIcLb0EE14do_curr_symbolEv
-------- W _ZNKSt3__217moneypunct_bynameIcLb0EE14do_frac_digitsEv
-------- W _ZNKSt3__217moneypunct_bynameIcLb0EE16do_decimal_pointEv
-------- W _ZNKSt3__217moneypunct_bynameIcLb0EE16do_negative_signEv
-------- W _ZNKSt3__217moneypunct_bynameIcLb0EE16do_positive_signEv
-------- W _ZNKSt3__217moneypunct_bynameIcLb0EE16do_thousands_sepEv
-------- W _ZNKSt3__217moneypunct_bynameIcLb1EE11do_groupingEv
-------- W _ZNKSt3__217moneypunct_bynameIcLb1EE13do_neg_formatEv
-------- W _ZNKSt3__217moneypunct_bynameIcLb1EE13do_pos_formatEv
-------- W _ZNKSt3__217moneypunct_bynameIcLb1EE14do_curr_symbolEv
-------- W _ZNKSt3__217moneypunct_bynameIcLb1EE14do_frac_digitsEv
-------- W _ZNKSt3__217moneypunct_bynameIcLb1EE16do_decimal_pointEv
-------- W _ZNKSt3__217moneypunct_bynameIcLb1EE16do_negative_signEv
-------- W _ZNKSt3__217moneypunct_bynameIcLb1EE16do_positive_signEv
-------- W _ZNKSt3__217moneypunct_bynameIcLb1EE16do_thousands_sepEv
-------- W _ZNKSt3__217moneypunct_bynameIwLb0EE11do_groupingEv
-------- W _ZNKSt3__217moneypunct_bynameIwLb0EE13do_neg_formatEv
-------- W _ZNKSt3__217moneypunct_bynameIwLb0EE13do_pos_formatEv
-------- W _ZNKSt3__217moneypunct_bynameIwLb0EE14do_curr_symbolEv
-------- W _ZNKSt3__217moneypunct_bynameIwLb0EE14do_frac_digitsEv
-------- W _ZNKSt3__217moneypunct_bynameIwLb0EE16do_decimal_pointEv
-------- W _ZNKSt3__217moneypunct_bynameIwLb0EE16do_negative_signEv
-------- W _ZNKSt3__217moneypunct_bynameIwLb0EE16do_positive_signEv
-------- W _ZNKSt3__217moneypunct_bynameIwLb0EE16do_thousands_sepEv
-------- W _ZNKSt3__217moneypunct_bynameIwLb1EE11do_groupingEv
-------- W _ZNKSt3__217moneypunct_bynameIwLb1EE13do_neg_formatEv
-------- W _ZNKSt3__217moneypunct_bynameIwLb1EE13do_pos_formatEv
-------- W _ZNKSt3__217moneypunct_bynameIwLb1EE14do_curr_symbolEv
-------- W _ZNKSt3__217moneypunct_bynameIwLb1EE14do_frac_digitsEv
-------- W _ZNKSt3__217moneypunct_bynameIwLb1EE16do_decimal_pointEv
-------- W _ZNKSt3__217moneypunct_bynameIwLb1EE16do_negative_signEv
-------- W _ZNKSt3__217moneypunct_bynameIwLb1EE16do_positive_signEv
-------- W _ZNKSt3__217moneypunct_bynameIwLb1EE16do_thousands_sepEv
-------- W _ZNKSt3__218__hidden_allocatorINS_4pairIPNS_18condition_variableEPNS_5mutexEEEE8max_sizeEv
-------- W _ZNKSt3__218__hidden_allocatorIPNS_17__assoc_sub_stateEE8max_sizeEv
-------- W _ZNKSt3__218__libcpp_refstring15__uses_refcountEv
-------- T _ZNKSt3__218__time_get_storageIcE15__do_date_orderEv
-------- T _ZNKSt3__218__time_get_storageIwE15__do_date_orderEv
-------- T _ZNKSt3__219__iostream_category4nameEv
-------- T _ZNKSt3__219__iostream_category7messageEi
-------- T _ZNKSt3__219__shared_weak_count13__get_deleterERKSt9type_info
-------- W _ZNKSt3__219istreambuf_iteratorIcNS_11char_traitsIcEEE14__test_for_eofEv
-------- W _ZNKSt3__219istreambuf_iteratorIcNS_11char_traitsIcEEE5equalERKS3_
-------- W _ZNKSt3__219istreambuf_iteratorIcNS_11char_traitsIcEEE7__proxydeEv
-------- W _ZNKSt3__219istreambuf_iteratorIcNS_11char_traitsIcEEEdeEv
-------- W _ZNKSt3__219istreambuf_iteratorIwNS_11char_traitsIwEEE14__test_for_eofEv
-------- W _ZNKSt3__219istreambuf_iteratorIwNS_11char_traitsIwEEE5equalERKS3_
-------- W _ZNKSt3__219istreambuf_iteratorIwNS_11char_traitsIwEEE7__proxydeEv
-------- W _ZNKSt3__219istreambuf_iteratorIwNS_11char_traitsIwEEEdeEv
-------- W _ZNKSt3__219ostreambuf_iteratorIcNS_11char_traitsIcEEE6failedEv
-------- W _ZNKSt3__219ostreambuf_iteratorIwNS_11char_traitsIwEEE6failedEv
-------- T _ZNKSt3__220__codecvt_utf8_utf16IDiE10do_unshiftER11__mbstate_tPcS4_RS4_
-------- T _ZNKSt3__220__codecvt_utf8_utf16IDiE11do_encodingEv
-------- T _ZNKSt3__220__codecvt_utf8_utf16IDiE13do_max_lengthEv
-------- T _ZNKSt3__220__codecvt_utf8_utf16IDiE16do_always_noconvEv
-------- T _ZNKSt3__220__codecvt_utf8_utf16IDiE5do_inER11__mbstate_tPKcS5_RS5_PDiS7_RS7_
-------- T _ZNKSt3__220__codecvt_utf8_utf16IDiE6do_outER11__mbstate_tPKDiS5_RS5_PcS7_RS7_
-------- T _ZNKSt3__220__codecvt_utf8_utf16IDiE9do_lengthER11__mbstate_tPKcS5_m
-------- T _ZNKSt3__220__codecvt_utf8_utf16IDsE10do_unshiftER11__mbstate_tPcS4_RS4_
-------- T _ZNKSt3__220__codecvt_utf8_utf16IDsE11do_encodingEv
-------- T _ZNKSt3__220__codecvt_utf8_utf16IDsE13do_max_lengthEv
-------- T _ZNKSt3__220__codecvt_utf8_utf16IDsE16do_always_noconvEv
-------- T _ZNKSt3__220__codecvt_utf8_utf16IDsE5do_inER11__mbstate_tPKcS5_RS5_PDsS7_RS7_
-------- T _ZNKSt3__220__codecvt_utf8_utf16IDsE6do_outER11__mbstate_tPKDsS5_RS5_PcS7_RS7_
-------- T _ZNKSt3__220__codecvt_utf8_utf16IDsE9do_lengthER11__mbstate_tPKcS5_m
-------- T _ZNKSt3__220__codecvt_utf8_utf16IwE10do_unshiftER11__mbstate_tPcS4_RS4_
-------- T _ZNKSt3__220__codecvt_utf8_utf16IwE11do_encodingEv
-------- T _ZNKSt3__220__codecvt_utf8_utf16IwE13do_max_lengthEv
-------- T _ZNKSt3__220__codecvt_utf8_utf16IwE16do_always_noconvEv
-------- T _ZNKSt3__220__codecvt_utf8_utf16IwE5do_inER11__mbstate_tPKcS5_RS5_PwS7_RS7_
-------- T _ZNKSt3__220__codecvt_utf8_utf16IwE6do_outER11__mbstate_tPKwS5_RS5_PcS7_RS7_
-------- T _ZNKSt3__220__codecvt_utf8_utf16IwE9do_lengthER11__mbstate_tPKcS5_m
-------- T _ZNKSt3__220__time_get_c_storageIcE3__XEv
-------- T _ZNKSt3__220__time_get_c_storageIcE3__cEv
-------- T _ZNKSt3__220__time_get_c_storageIcE3__rEv
-------- T _ZNKSt3__220__time_get_c_storageIcE3__xEv
-------- T _ZNKSt3__220__time_get_c_storageIcE7__am_pmEv
-------- T _ZNKSt3__220__time_get_c_storageIcE7__weeksEv
-------- T _ZNKSt3__220__time_get_c_storageIcE8__monthsEv
-------- T _ZNKSt3__220__time_get_c_storageIwE3__XEv
-------- T _ZNKSt3__220__time_get_c_storageIwE3__cEv
-------- T _ZNKSt3__220__time_get_c_storageIwE3__rEv
-------- T _ZNKSt3__220__time_get_c_storageIwE3__xEv
-------- T _ZNKSt3__220__time_get_c_storageIwE7__am_pmEv
-------- T _ZNKSt3__220__time_get_c_storageIwE7__weeksEv
-------- T _ZNKSt3__220__time_get_c_storageIwE8__monthsEv
-------- W _ZNKSt3__220__vector_base_commonILb1EE20__throw_length_errorEv
-------- W _ZNKSt3__220__vector_base_commonILb1EE20__throw_out_of_rangeEv
-------- W _ZNKSt3__221__basic_string_commonILb1EE20__throw_length_errorEv
-------- W _ZNKSt3__221__basic_string_commonILb1EE20__throw_out_of_rangeEv
-------- W _ZNKSt3__221__thread_specific_ptrINS_15__thread_structEE3getEv
-------- W _ZNKSt3__221__thread_specific_ptrINS_15__thread_structEEptEv
-------- W _ZNKSt3__222__compressed_pair_elemINS_12basic_stringIcNS_11char_traitsIcEENS_9allocatorIcEEE5__repELi0ELb0EE5__getEv
-------- W _ZNKSt3__222__compressed_pair_elemINS_12basic_stringIwNS_11char_traitsIwEENS_9allocatorIwEEE5__repELi0ELb0EE5__getEv
-------- W _ZNKSt3__222__compressed_pair_elemINS_15__sso_allocatorIPNS_6locale5facetELm28EEELi1ELb0EE5__getEv
-------- W _ZNKSt3__222__compressed_pair_elemINS_18__hidden_allocatorINS_4pairIPNS_18condition_variableEPNS_5mutexEEEEELi1ELb1EE5__getEv
-------- W _ZNKSt3__222__compressed_pair_elemINS_18__hidden_allocatorIPNS_17__assoc_sub_stateEEELi1ELb1EE5__getEv
-------- W _ZNKSt3__222__compressed_pair_elemINS_9allocatorINS_17basic_string_viewIcNS_11char_traitsIcEEEEEELi1ELb1EE5__getEv
-------- W _ZNKSt3__222__compressed_pair_elemINS_9allocatorINS_4pairINS_17basic_string_viewIcNS_11char_traitsIcEEEENS_4__fs10filesystem12PathPartKindEEEEELi1ELb1EE5__getEv
-------- W _ZNKSt3__222__compressed_pair_elemINS_9allocatorIcEELi1ELb1EE5__getEv
-------- W _ZNKSt3__222__compressed_pair_elemINS_9allocatorIwEELi1ELb1EE5__getEv
-------- W _ZNKSt3__222__compressed_pair_elemIPNS_17basic_string_viewIcNS_11char_traitsIcEEEELi0ELb0EE5__getEv
-------- W _ZNKSt3__222__compressed_pair_elemIPNS_20__shared_ptr_emplaceINS_4__fs10filesystem12__dir_streamENS_9allocatorIS4_EEEELi0ELb0EE5__getEv
-------- W _ZNKSt3__222__compressed_pair_elemIPNS_20__shared_ptr_emplaceINS_4__fs10filesystem28recursive_directory_iterator12__shared_impENS_9allocatorIS5_EEEELi0ELb0EE5__getEv
-------- W _ZNKSt3__222__compressed_pair_elemIPNS_4__fs10filesystem12__dir_streamELi0ELb0EE5__getEv
-------- W _ZNKSt3__222__compressed_pair_elemIPNS_4pairINS_17basic_string_viewIcNS_11char_traitsIcEEEENS_4__fs10filesystem12PathPartKindEEELi0ELb0EE5__getEv
-------- W _ZNKSt3__222__compressed_pair_elemIPNS_4pairIPNS_18condition_variableEPNS_5mutexEEELi0ELb0EE5__getEv
-------- W _ZNKSt3__222__compressed_pair_elemIPNS_6locale5facetELi0ELb0EE5__getEv
-------- W _ZNKSt3__222__compressed_pair_elemIPPNS_17__assoc_sub_stateELi0ELb0EE5__getEv
-------- W _ZNKSt3__222__compressed_pair_elemIPPNS_4__fs10filesystem12__dir_streamELi0ELb0EE5__getEv
-------- W _ZNKSt3__222__compressed_pair_elemIPPNS_6locale5facetELi0ELb0EE5__getEv
-------- W _ZNKSt3__222__compressed_pair_elemIPcLi0ELb0EE5__getEv
-------- W _ZNKSt3__222__compressed_pair_elemIPjLi0ELb0EE5__getEv
-------- W _ZNKSt3__222__compressed_pair_elemIPwLi0ELb0EE5__getEv
-------- W _ZNKSt3__222__compressed_pair_elemImLi0ELb0EE5__getEv
-------- W _ZNKSt3__222__libcpp_unique_localecvbEv
-------- T _ZNKSt3__223__future_error_category4nameEv
-------- T _ZNKSt3__223__future_error_category7messageEi
-------- T _ZNKSt3__223__match_any_but_newlineIcE6__execERNS_7__stateIcEE
-------- T _ZNKSt3__223__match_any_but_newlineIwE6__execERNS_7__stateIwEE
-------- T _ZNKSt3__223__system_error_category23default_error_conditionEi
-------- T _ZNKSt3__223__system_error_category4nameEv
-------- T _ZNKSt3__223__system_error_category7messageEi
-------- T _ZNKSt3__224__generic_error_category4nameEv
-------- T _ZNKSt3__224__generic_error_category7messageEi
-------- T _ZNKSt3__224__libcpp_debug_exception4whatEv
-------- W _ZNKSt3__24__fs10filesystem11file_status11permissionsEv
-------- W _ZNKSt3__24__fs10filesystem11file_status4typeEv
-------- W _ZNKSt3__24__fs10filesystem12__dir_stream4goodEv
-------- W _ZNKSt3__24__fs10filesystem15directory_entry12__get_sym_ftEPNS_10error_codeE
-------- W _ZNKSt3__24__fs10filesystem15directory_entry4pathEv
-------- W _ZNKSt3__24__fs10filesystem15directory_entry8__get_ftEPNS_10error_codeE
-------- W _ZNKSt3__24__fs10filesystem16filesystem_error4whatEv
-------- W _ZNKSt3__24__fs10filesystem16filesystem_error5path1Ev
-------- W _ZNKSt3__24__fs10filesystem16filesystem_error5path2Ev
-------- T _ZNKSt3__24__fs10filesystem18directory_iterator13__dereferenceEv
-------- W _ZNKSt3__24__fs10filesystem18directory_iteratordeEv
-------- W _ZNKSt3__24__fs10filesystem18directory_iteratorptEv
-------- T _ZNKSt3__24__fs10filesystem28recursive_directory_iterator13__dereferenceEv
-------- W _ZNKSt3__24__fs10filesystem28recursive_directory_iterator17recursion_pendingEv
-------- T _ZNKSt3__24__fs10filesystem28recursive_directory_iterator5depthEv
-------- T _ZNKSt3__24__fs10filesystem28recursive_directory_iterator7optionsEv
-------- T _ZNKSt3__24__fs10filesystem4path10__filenameEv
-------- T _ZNKSt3__24__fs10filesystem4path11__extensionEv
-------- T _ZNKSt3__24__fs10filesystem4path11__root_nameEv
-------- W _ZNKSt3__24__fs10filesystem4path11is_absoluteEv
-------- W _ZNKSt3__24__fs10filesystem4path11parent_pathEv
-------- W _ZNKSt3__24__fs10filesystem4path12has_filenameEv
-------- T _ZNKSt3__24__fs10filesystem4path13__parent_pathEv
-------- T _ZNKSt3__24__fs10filesystem4path15__relative_pathEv
-------- T _ZNKSt3__24__fs10filesystem4path15__root_path_rawEv
-------- T _ZNKSt3__24__fs10filesystem4path16__root_directoryEv
-------- T _ZNKSt3__24__fs10filesystem4path16lexically_normalEv
-------- W _ZNKSt3__24__fs10filesystem4path18has_root_directoryEv
-------- T _ZNKSt3__24__fs10filesystem4path18lexically_relativeERKS2_
-------- T _ZNKSt3__24__fs10filesystem4path3endEv
-------- T _ZNKSt3__24__fs10filesystem4path5beginEv
-------- W _ZNKSt3__24__fs10filesystem4path5c_strEv
-------- W _ZNKSt3__24__fs10filesystem4path5emptyEv
-------- T _ZNKSt3__24__fs10filesystem4path6__stemEv
-------- W _ZNKSt3__24__fs10filesystem4path6nativeEv
-------- W _ZNKSt3__24__fs10filesystem4path8filenameEv
-------- T _ZNKSt3__24__fs10filesystem4path9__compareENS_17basic_string_viewIcNS_11char_traitsIcEEEE
-------- W _ZNKSt3__24__fs10filesystem4path9extensionEv
-------- W _ZNKSt3__24fposI11__mbstate_tE5stateEv
-------- W _ZNKSt3__24fposI11__mbstate_tEcvxEv
-------- W _ZNKSt3__24hashINS_17basic_string_viewIcNS_11char_traitsIcEEEEEclES4_
-------- W _ZNKSt3__24hashIPKvEclES2_
-------- W _ZNKSt3__24hashIPvEclES1_
-------- W _ZNKSt3__25arrayI8timespecLm2EE4dataEv
-------- W _ZNKSt3__25arrayIcLm256EE4sizeEv
-------- T _ZNKSt3__25ctypeIcE10do_tolowerEPcPKc
-------- T _ZNKSt3__25ctypeIcE10do_tolowerEc
-------- T _ZNKSt3__25ctypeIcE10do_toupperEPcPKc
-------- T _ZNKSt3__25ctypeIcE10do_toupperEc
-------- W _ZNKSt3__25ctypeIcE2isEtc
-------- W _ZNKSt3__25ctypeIcE5widenEPKcS3_Pc
-------- W _ZNKSt3__25ctypeIcE5widenEc
-------- W _ZNKSt3__25ctypeIcE6narrowEcc
-------- W _ZNKSt3__25ctypeIcE7toupperEc
-------- T _ZNKSt3__25ctypeIcE8do_widenEPKcS3_Pc
-------- T _ZNKSt3__25ctypeIcE8do_widenEc
-------- T _ZNKSt3__25ctypeIcE9do_narrowEPKcS3_cPc
-------- T _ZNKSt3__25ctypeIcE9do_narrowEcc
-------- T _ZNKSt3__25ctypeIwE10do_scan_isEtPKwS3_
-------- T _ZNKSt3__25ctypeIwE10do_tolowerEPwPKw
-------- T _ZNKSt3__25ctypeIwE10do_tolowerEw
-------- T _ZNKSt3__25ctypeIwE10do_toupperEPwPKw
-------- T _ZNKSt3__25ctypeIwE10do_toupperEw
-------- T _ZNKSt3__25ctypeIwE11do_scan_notEtPKwS3_
-------- W _ZNKSt3__25ctypeIwE2isEtw
-------- T _ZNKSt3__25ctypeIwE5do_isEPKwS3_Pt
-------- T _ZNKSt3__25ctypeIwE5do_isEtw
-------- W _ZNKSt3__25ctypeIwE5widenEPKcS3_Pw
-------- W _ZNKSt3__25ctypeIwE5widenEc
-------- W _ZNKSt3__25ctypeIwE6narrowEwc
-------- W _ZNKSt3__25ctypeIwE7toupperEw
-------- T _ZNKSt3__25ctypeIwE8do_widenEPKcS3_Pw
-------- T _ZNKSt3__25ctypeIwE8do_widenEc
-------- T _ZNKSt3__25ctypeIwE9do_narrowEPKwS3_cPc
-------- T _ZNKSt3__25ctypeIwE9do_narrowEwc
-------- W _ZNKSt3__25dequeINS_4__fs10filesystem12__dir_streamENS_9allocatorIS3_EEE10__capacityEv
-------- W _ZNKSt3__25dequeINS_4__fs10filesystem12__dir_streamENS_9allocatorIS3_EEE12__back_spareEv
-------- W _ZNKSt3__25dequeINS_4__fs10filesystem12__dir_streamENS_9allocatorIS3_EEE13__front_spareEv
-------- W _ZNKSt3__25dequeINS_4__fs10filesystem12__dir_streamENS_9allocatorIS3_EEE4sizeEv
-------- W _ZNKSt3__25stackINS_4__fs10filesystem12__dir_streamENS_5dequeIS3_NS_9allocatorIS3_EEEEE4sizeEv
-------- W _ZNKSt3__26__lessIPcS1_EclERKS1_S4_
-------- W _ZNKSt3__26__lessIaaEclERKaS3_
-------- W _ZNKSt3__26__lessIccEclERKcS3_
-------- W _ZNKSt3__26__lessIddEclERKdS3_
-------- W _ZNKSt3__26__lessIeeEclERKeS3_
-------- W _ZNKSt3__26__lessIffEclERKfS3_
-------- W _ZNKSt3__26__lessIhhEclERKhS3_
-------- W _ZNKSt3__26__lessIiiEclERKiS3_
-------- W _ZNKSt3__26__lessIjjEclERKjS3_
-------- W _ZNKSt3__26__lessIjmEclERKjRKm
-------- W _ZNKSt3__26__lessIllEclERKlS3_
-------- W _ZNKSt3__26__lessImmEclERKmS3_
-------- W _ZNKSt3__26__lessIssEclERKsS3_
-------- W _ZNKSt3__26__lessIttEclERKtS3_
-------- W _ZNKSt3__26__lessIwwEclERKwS3_
-------- W _ZNKSt3__26__lessIxxEclERKxS3_
-------- W _ZNKSt3__26__lessIyyEclERKyS3_
-------- W _ZNKSt3__26chrono10time_pointINS0_12system_clockENS0_8durationIxNS_5ratioILx1ELx1000000000EEEEEE16time_since_epochEv
-------- W _ZNKSt3__26chrono10time_pointINS0_12system_clockENS0_8durationIxNS_5ratioILx1ELx1000000EEEEEE16time_since_epochEv
-------- W _ZNKSt3__26chrono10time_pointINS_4__fs10filesystem16_FilesystemClockENS0_8durationInNS_5ratioILx1ELx1000000000EEEEEE16time_since_epochEv
-------- W _ZNKSt3__26chrono13__duration_ltINS0_8durationIxNS_5ratioILx1ELx1000000000EEEEES5_EclERKS5_S8_
-------- W _ZNKSt3__26chrono15__duration_castINS0_8durationInNS_5ratioILx1ELx1000000000EEEEENS2_InNS3_ILx1ELx1EEEEES4_Lb1ELb0EEclERKS5_
-------- W _ZNKSt3__26chrono15__duration_castINS0_8durationInNS_5ratioILx1ELx1000000000EEEEES5_NS3_ILx1ELx1EEELb1ELb1EEclERKS5_
-------- W _ZNKSt3__26chrono15__duration_castINS0_8durationInNS_5ratioILx1ELx1EEEEENS2_InNS3_ILx1ELx1000000000EEEEENS3_ILx1000000000ELx1EEELb0ELb1EEclERKS5_
-------- W _ZNKSt3__26chrono15__duration_castINS0_8durationIxNS_5ratioILx1ELx1000000000EEEEENS2_IxNS3_ILx1ELx1EEEEES4_Lb1ELb0EEclERKS5_
-------- W _ZNKSt3__26chrono15__duration_castINS0_8durationIxNS_5ratioILx1ELx1000000EEEEENS2_IxNS3_ILx1ELx1EEEEES4_Lb1ELb0EEclERKS5_
-------- W _ZNKSt3__26chrono15__duration_castINS0_8durationIxNS_5ratioILx1ELx1EEEEENS2_IxNS3_ILx1ELx1000000000EEEEENS3_ILx1000000000ELx1EEELb0ELb1EEclERKS5_
-------- W _ZNKSt3__26chrono15__duration_castINS0_8durationIxNS_5ratioILx1ELx1EEEEENS2_IxNS3_ILx1ELx1000000EEEEENS3_ILx1000000ELx1EEELb0ELb1EEclERKS5_
-------- W _ZNKSt3__26chrono8durationInNS_5ratioILx1ELx1000000000EEEE5countEv
-------- W _ZNKSt3__26chrono8durationInNS_5ratioILx1ELx1EEEE5countEv
-------- W _ZNKSt3__26chrono8durationIxNS_5ratioILx1ELx1000000000EEEE5countEv
-------- W _ZNKSt3__26chrono8durationIxNS_5ratioILx1ELx1000000EEEE5countEv
-------- W _ZNKSt3__26chrono8durationIxNS_5ratioILx1ELx1EEEE5countEv
-------- T _ZNKSt3__26locale4nameEv
-------- W _ZNKSt3__26locale5__imp4nameEv
-------- W _ZNKSt3__26locale5__imp9has_facetEl
-------- T _ZNKSt3__26locale5__imp9use_facetEl
-------- T _ZNKSt3__26locale9has_facetERNS0_2idE
-------- T _ZNKSt3__26locale9use_facetERNS0_2idE
-------- T _ZNKSt3__26localeeqERKS0_
-------- W _ZNKSt3__26vectorINS_17basic_string_viewIcNS_11char_traitsIcEEEENS_9allocatorIS4_EEE11__recommendEm
-------- W _ZNKSt3__26vectorINS_17basic_string_viewIcNS_11char_traitsIcEEEENS_9allocatorIS4_EEE14__annotate_newEm
-------- W _ZNKSt3__26vectorINS_17basic_string_viewIcNS_11char_traitsIcEEEENS_9allocatorIS4_EEE17__annotate_deleteEv
-------- W _ZNKSt3__26vectorINS_17basic_string_viewIcNS_11char_traitsIcEEEENS_9allocatorIS4_EEE31__annotate_contiguous_containerEPKvS9_S9_S9_
-------- W _ZNKSt3__26vectorINS_17basic_string_viewIcNS_11char_traitsIcEEEENS_9allocatorIS4_EEE4dataEv
-------- W _ZNKSt3__26vectorINS_17basic_string_viewIcNS_11char_traitsIcEEEENS_9allocatorIS4_EEE4sizeEv
-------- W _ZNKSt3__26vectorINS_17basic_string_viewIcNS_11char_traitsIcEEEENS_9allocatorIS4_EEE5emptyEv
-------- W _ZNKSt3__26vectorINS_17basic_string_viewIcNS_11char_traitsIcEEEENS_9allocatorIS4_EEE8capacityEv
-------- W _ZNKSt3__26vectorINS_17basic_string_viewIcNS_11char_traitsIcEEEENS_9allocatorIS4_EEE8max_sizeEv
-------- W _ZNKSt3__26vectorINS_4pairINS_17basic_string_viewIcNS_11char_traitsIcEEEENS_4__fs10filesystem12PathPartKindEEENS_9allocatorIS9_EEE11__recommendEm
-------- W _ZNKSt3__26vectorINS_4pairINS_17basic_string_viewIcNS_11char_traitsIcEEEENS_4__fs10filesystem12PathPartKindEEENS_9allocatorIS9_EEE14__annotate_newEm
-------- W _ZNKSt3__26vectorINS_4pairINS_17basic_string_viewIcNS_11char_traitsIcEEEENS_4__fs10filesystem12PathPartKindEEENS_9allocatorIS9_EEE17__annotate_deleteEv
-------- W _ZNKSt3__26vectorINS_4pairINS_17basic_string_viewIcNS_11char_traitsIcEEEENS_4__fs10filesystem12PathPartKindEEENS_9allocatorIS9_EEE17__annotate_shrinkEm
-------- W _ZNKSt3__26vectorINS_4pairINS_17basic_string_viewIcNS_11char_traitsIcEEEENS_4__fs10filesystem12PathPartKindEEENS_9allocatorIS9_EEE31__annotate_contiguous_containerEPKvSE_SE_SE_
-------- W _ZNKSt3__26vectorINS_4pairINS_17basic_string_viewIcNS_11char_traitsIcEEEENS_4__fs10filesystem12PathPartKindEEENS_9allocatorIS9_EEE4dataEv
-------- W _ZNKSt3__26vectorINS_4pairINS_17basic_string_viewIcNS_11char_traitsIcEEEENS_4__fs10filesystem12PathPartKindEEENS_9allocatorIS9_EEE4sizeEv
-------- W _ZNKSt3__26vectorINS_4pairINS_17basic_string_viewIcNS_11char_traitsIcEEEENS_4__fs10filesystem12PathPartKindEEENS_9allocatorIS9_EEE5emptyEv
-------- W _ZNKSt3__26vectorINS_4pairINS_17basic_string_viewIcNS_11char_traitsIcEEEENS_4__fs10filesystem12PathPartKindEEENS_9allocatorIS9_EEE8capacityEv
-------- W _ZNKSt3__26vectorINS_4pairINS_17basic_string_viewIcNS_11char_traitsIcEEEENS_4__fs10filesystem12PathPartKindEEENS_9allocatorIS9_EEE8max_sizeEv
-------- W _ZNKSt3__26vectorINS_4pairIPNS_18condition_variableEPNS_5mutexEEENS_18__hidden_allocatorIS6_EEE11__recommendEm
-------- W _ZNKSt3__26vectorINS_4pairIPNS_18condition_variableEPNS_5mutexEEENS_18__hidden_allocatorIS6_EEE14__annotate_newEm
-------- W _ZNKSt3__26vectorINS_4pairIPNS_18condition_variableEPNS_5mutexEEENS_18__hidden_allocatorIS6_EEE17__annotate_deleteEv
-------- W _ZNKSt3__26vectorINS_4pairIPNS_18condition_variableEPNS_5mutexEEENS_18__hidden_allocatorIS6_EEE31__annotate_contiguous_containerEPKvSB_SB_SB_
-------- W _ZNKSt3__26vectorINS_4pairIPNS_18condition_variableEPNS_5mutexEEENS_18__hidden_allocatorIS6_EEE4dataEv
-------- W _ZNKSt3__26vectorINS_4pairIPNS_18condition_variableEPNS_5mutexEEENS_18__hidden_allocatorIS6_EEE4sizeEv
-------- W _ZNKSt3__26vectorINS_4pairIPNS_18condition_variableEPNS_5mutexEEENS_18__hidden_allocatorIS6_EEE8capacityEv
-------- W _ZNKSt3__26vectorINS_4pairIPNS_18condition_variableEPNS_5mutexEEENS_18__hidden_allocatorIS6_EEE8max_sizeEv
-------- W _ZNKSt3__26vectorIPNS_17__assoc_sub_stateENS_18__hidden_allocatorIS2_EEE11__recommendEm
-------- W _ZNKSt3__26vectorIPNS_17__assoc_sub_stateENS_18__hidden_allocatorIS2_EEE14__annotate_newEm
-------- W _ZNKSt3__26vectorIPNS_17__assoc_sub_stateENS_18__hidden_allocatorIS2_EEE17__annotate_deleteEv
-------- W _ZNKSt3__26vectorIPNS_17__assoc_sub_stateENS_18__hidden_allocatorIS2_EEE31__annotate_contiguous_containerEPKvS7_S7_S7_
-------- W _ZNKSt3__26vectorIPNS_17__assoc_sub_stateENS_18__hidden_allocatorIS2_EEE4dataEv
-------- W _ZNKSt3__26vectorIPNS_17__assoc_sub_stateENS_18__hidden_allocatorIS2_EEE4sizeEv
-------- W _ZNKSt3__26vectorIPNS_17__assoc_sub_stateENS_18__hidden_allocatorIS2_EEE8capacityEv
-------- W _ZNKSt3__26vectorIPNS_17__assoc_sub_stateENS_18__hidden_allocatorIS2_EEE8max_sizeEv
-------- W _ZNKSt3__26vectorIPNS_6locale5facetENS_15__sso_allocatorIS3_Lm28EEEE11__recommendEm
-------- W _ZNKSt3__26vectorIPNS_6locale5facetENS_15__sso_allocatorIS3_Lm28EEEE14__annotate_newEm
-------- W _ZNKSt3__26vectorIPNS_6locale5facetENS_15__sso_allocatorIS3_Lm28EEEE17__annotate_deleteEv
-------- W _ZNKSt3__26vectorIPNS_6locale5facetENS_15__sso_allocatorIS3_Lm28EEEE17__annotate_shrinkEm
-------- W _ZNKSt3__26vectorIPNS_6locale5facetENS_15__sso_allocatorIS3_Lm28EEEE31__annotate_contiguous_containerEPKvS8_S8_S8_
-------- W _ZNKSt3__26vectorIPNS_6locale5facetENS_15__sso_allocatorIS3_Lm28EEEE4dataEv
-------- W _ZNKSt3__26vectorIPNS_6locale5facetENS_15__sso_allocatorIS3_Lm28EEEE4sizeEv
-------- W _ZNKSt3__26vectorIPNS_6locale5facetENS_15__sso_allocatorIS3_Lm28EEEE8capacityEv
-------- W _ZNKSt3__26vectorIPNS_6locale5facetENS_15__sso_allocatorIS3_Lm28EEEE8max_sizeEv
-------- W _ZNKSt3__26vectorIPNS_6locale5facetENS_15__sso_allocatorIS3_Lm28EEEEixEm
-------- T _ZNKSt3__27codecvtIDic11__mbstate_tE10do_unshiftERS1_PcS4_RS4_
-------- T _ZNKSt3__27codecvtIDic11__mbstate_tE11do_encodingEv
-------- T _ZNKSt3__27codecvtIDic11__mbstate_tE13do_max_lengthEv
-------- T _ZNKSt3__27codecvtIDic11__mbstate_tE16do_always_noconvEv
-------- T _ZNKSt3__27codecvtIDic11__mbstate_tE5do_inERS1_PKcS5_RS5_PDiS7_RS7_
-------- T _ZNKSt3__27codecvtIDic11__mbstate_tE6do_outERS1_PKDiS5_RS5_PcS7_RS7_
-------- T _ZNKSt3__27codecvtIDic11__mbstate_tE9do_lengthERS1_PKcS5_m
-------- T _ZNKSt3__27codecvtIDsc11__mbstate_tE10do_unshiftERS1_PcS4_RS4_
-------- T _ZNKSt3__27codecvtIDsc11__mbstate_tE11do_encodingEv
-------- T _ZNKSt3__27codecvtIDsc11__mbstate_tE13do_max_lengthEv
-------- T _ZNKSt3__27codecvtIDsc11__mbstate_tE16do_always_noconvEv
-------- T _ZNKSt3__27codecvtIDsc11__mbstate_tE5do_inERS1_PKcS5_RS5_PDsS7_RS7_
-------- T _ZNKSt3__27codecvtIDsc11__mbstate_tE6do_outERS1_PKDsS5_RS5_PcS7_RS7_
-------- T _ZNKSt3__27codecvtIDsc11__mbstate_tE9do_lengthERS1_PKcS5_m
-------- T _ZNKSt3__27codecvtIcc11__mbstate_tE10do_unshiftERS1_PcS4_RS4_
-------- T _ZNKSt3__27codecvtIcc11__mbstate_tE11do_encodingEv
-------- W _ZNKSt3__27codecvtIcc11__mbstate_tE13always_noconvEv
-------- T _ZNKSt3__27codecvtIcc11__mbstate_tE13do_max_lengthEv
-------- T _ZNKSt3__27codecvtIcc11__mbstate_tE16do_always_noconvEv
-------- W _ZNKSt3__27codecvtIcc11__mbstate_tE2inERS1_PKcS5_RS5_PcS7_RS7_
-------- W _ZNKSt3__27codecvtIcc11__mbstate_tE3outERS1_PKcS5_RS5_PcS7_RS7_
-------- T _ZNKSt3__27codecvtIcc11__mbstate_tE5do_inERS1_PKcS5_RS5_PcS7_RS7_
-------- T _ZNKSt3__27codecvtIcc11__mbstate_tE6do_outERS1_PKcS5_RS5_PcS7_RS7_
-------- W _ZNKSt3__27codecvtIcc11__mbstate_tE6lengthERS1_PKcS5_m
-------- W _ZNKSt3__27codecvtIcc11__mbstate_tE7unshiftERS1_PcS4_RS4_
-------- W _ZNKSt3__27codecvtIcc11__mbstate_tE8encodingEv
-------- T _ZNKSt3__27codecvtIcc11__mbstate_tE9do_lengthERS1_PKcS5_m
-------- T _ZNKSt3__27codecvtIwc11__mbstate_tE10do_unshiftERS1_PcS4_RS4_
-------- T _ZNKSt3__27codecvtIwc11__mbstate_tE11do_encodingEv
-------- W _ZNKSt3__27codecvtIwc11__mbstate_tE13always_noconvEv
-------- T _ZNKSt3__27codecvtIwc11__mbstate_tE13do_max_lengthEv
-------- T _ZNKSt3__27codecvtIwc11__mbstate_tE16do_always_noconvEv
-------- W _ZNKSt3__27codecvtIwc11__mbstate_tE2inERS1_PKcS5_RS5_PwS7_RS7_
-------- W _ZNKSt3__27codecvtIwc11__mbstate_tE3outERS1_PKwS5_RS5_PcS7_RS7_
-------- T _ZNKSt3__27codecvtIwc11__mbstate_tE5do_inERS1_PKcS5_RS5_PwS7_RS7_
-------- T _ZNKSt3__27codecvtIwc11__mbstate_tE6do_outERS1_PKwS5_RS5_PcS7_RS7_
-------- W _ZNKSt3__27codecvtIwc11__mbstate_tE7unshiftERS1_PcS4_RS4_
-------- W _ZNKSt3__27codecvtIwc11__mbstate_tE8encodingEv
-------- T _ZNKSt3__27codecvtIwc11__mbstate_tE9do_lengthERS1_PKcS5_m
-------- W _ZNKSt3__27collateIcE10do_compareEPKcS3_S3_S3_
-------- W _ZNKSt3__27collateIcE12do_transformEPKcS3_
-------- W _ZNKSt3__27collateIcE7do_hashEPKcS3_
-------- W _ZNKSt3__27collateIwE10do_compareEPKwS3_S3_S3_
-------- W _ZNKSt3__27collateIwE12do_transformEPKwS3_
-------- W _ZNKSt3__27collateIwE7do_hashEPKwS3_
-------- W _ZNKSt3__27num_getIcNS_19istreambuf_iteratorIcNS_11char_traitsIcEEEEE15__do_get_signedIlEES4_S4_S4_RNS_8ios_baseERjRT_
-------- W _ZNKSt3__27num_getIcNS_19istreambuf_iteratorIcNS_11char_traitsIcEEEEE15__do_get_signedIxEES4_S4_S4_RNS_8ios_baseERjRT_
-------- W _ZNKSt3__27num_getIcNS_19istreambuf_iteratorIcNS_11char_traitsIcEEEEE17__do_get_unsignedIjEES4_S4_S4_RNS_8ios_baseERjRT_
-------- W _ZNKSt3__27num_getIcNS_19istreambuf_iteratorIcNS_11char_traitsIcEEEEE17__do_get_unsignedImEES4_S4_S4_RNS_8ios_baseERjRT_
-------- W _ZNKSt3__27num_getIcNS_19istreambuf_iteratorIcNS_11char_traitsIcEEEEE17__do_get_unsignedItEES4_S4_S4_RNS_8ios_baseERjRT_
-------- W _ZNKSt3__27num_getIcNS_19istreambuf_iteratorIcNS_11char_traitsIcEEEEE17__do_get_unsignedIyEES4_S4_S4_RNS_8ios_baseERjRT_
-------- W _ZNKSt3__27num_getIcNS_19istreambuf_iteratorIcNS_11char_traitsIcEEEEE23__do_get_floating_pointIdEES4_S4_S4_RNS_8ios_baseERjRT_
-------- W _ZNKSt3__27num_getIcNS_19istreambuf_iteratorIcNS_11char_traitsIcEEEEE23__do_get_floating_pointIeEES4_S4_S4_RNS_8ios_baseERjRT_
-------- W _ZNKSt3__27num_getIcNS_19istreambuf_iteratorIcNS_11char_traitsIcEEEEE23__do_get_floating_pointIfEES4_S4_S4_RNS_8ios_baseERjRT_
-------- W _ZNKSt3__27num_getIcNS_19istreambuf_iteratorIcNS_11char_traitsIcEEEEE3getES4_S4_RNS_8ios_baseERjRPv
-------- W _ZNKSt3__27num_getIcNS_19istreambuf_iteratorIcNS_11char_traitsIcEEEEE3getES4_S4_RNS_8ios_baseERjRb
-------- W _ZNKSt3__27num_getIcNS_19istreambuf_iteratorIcNS_11char_traitsIcEEEEE3getES4_S4_RNS_8ios_baseERjRd
-------- W _ZNKSt3__27num_getIcNS_19istreambuf_iteratorIcNS_11char_traitsIcEEEEE3getES4_S4_RNS_8ios_baseERjRe
-------- W _ZNKSt3__27num_getIcNS_19istreambuf_iteratorIcNS_11char_traitsIcEEEEE3getES4_S4_RNS_8ios_baseERjRf
-------- W _ZNKSt3__27num_getIcNS_19istreambuf_iteratorIcNS_11char_traitsIcEEEEE3getES4_S4_RNS_8ios_baseERjRl
-------- W _ZNKSt3__27num_getIcNS_19istreambuf_iteratorIcNS_11char_traitsIcEEEEE3getES4_S4_RNS_8ios_baseERjRm
-------- W _ZNKSt3__27num_getIcNS_19istreambuf_iteratorIcNS_11char_traitsIcEEEEE3getES4_S4_RNS_8ios_baseERjRt
-------- W _ZNKSt3__27num_getIcNS_19istreambuf_iteratorIcNS_11char_traitsIcEEEEE3getES4_S4_RNS_8ios_baseERjRx
-------- W _ZNKSt3__27num_getIcNS_19istreambuf_iteratorIcNS_11char_traitsIcEEEEE3getES4_S4_RNS_8ios_baseERjRy
-------- W _ZNKSt3__27num_getIcNS_19istreambuf_iteratorIcNS_11char_traitsIcEEEEE3getES4_S4_RNS_8ios_baseERjS8_
-------- W _ZNKSt3__27num_getIcNS_19istreambuf_iteratorIcNS_11char_traitsIcEEEEE6do_getES4_S4_RNS_8ios_baseERjRPv
-------- W _ZNKSt3__27num_getIcNS_19istreambuf_iteratorIcNS_11char_traitsIcEEEEE6do_getES4_S4_RNS_8ios_baseERjRb
-------- W _ZNKSt3__27num_getIcNS_19istreambuf_iteratorIcNS_11char_traitsIcEEEEE6do_getES4_S4_RNS_8ios_baseERjRd
-------- W _ZNKSt3__27num_getIcNS_19istreambuf_iteratorIcNS_11char_traitsIcEEEEE6do_getES4_S4_RNS_8ios_baseERjRe
-------- W _ZNKSt3__27num_getIcNS_19istreambuf_iteratorIcNS_11char_traitsIcEEEEE6do_getES4_S4_RNS_8ios_baseERjRf
-------- W _ZNKSt3__27num_getIcNS_19istreambuf_iteratorIcNS_11char_traitsIcEEEEE6do_getES4_S4_RNS_8ios_baseERjRl
-------- W _ZNKSt3__27num_getIcNS_19istreambuf_iteratorIcNS_11char_traitsIcEEEEE6do_getES4_S4_RNS_8ios_baseERjRm
-------- W _ZNKSt3__27num_getIcNS_19istreambuf_iteratorIcNS_11char_traitsIcEEEEE6do_getES4_S4_RNS_8ios_baseERjRt
-------- W _ZNKSt3__27num_getIcNS_19istreambuf_iteratorIcNS_11char_traitsIcEEEEE6do_getES4_S4_RNS_8ios_baseERjRx
-------- W _ZNKSt3__27num_getIcNS_19istreambuf_iteratorIcNS_11char_traitsIcEEEEE6do_getES4_S4_RNS_8ios_baseERjRy
-------- W _ZNKSt3__27num_getIcNS_19istreambuf_iteratorIcNS_11char_traitsIcEEEEE6do_getES4_S4_RNS_8ios_baseERjS8_
-------- W _ZNKSt3__27num_getIwNS_19istreambuf_iteratorIwNS_11char_traitsIwEEEEE15__do_get_signedIlEES4_S4_S4_RNS_8ios_baseERjRT_
-------- W _ZNKSt3__27num_getIwNS_19istreambuf_iteratorIwNS_11char_traitsIwEEEEE15__do_get_signedIxEES4_S4_S4_RNS_8ios_baseERjRT_
-------- W _ZNKSt3__27num_getIwNS_19istreambuf_iteratorIwNS_11char_traitsIwEEEEE17__do_get_unsignedIjEES4_S4_S4_RNS_8ios_baseERjRT_
-------- W _ZNKSt3__27num_getIwNS_19istreambuf_iteratorIwNS_11char_traitsIwEEEEE17__do_get_unsignedImEES4_S4_S4_RNS_8ios_baseERjRT_
-------- W _ZNKSt3__27num_getIwNS_19istreambuf_iteratorIwNS_11char_traitsIwEEEEE17__do_get_unsignedItEES4_S4_S4_RNS_8ios_baseERjRT_
-------- W _ZNKSt3__27num_getIwNS_19istreambuf_iteratorIwNS_11char_traitsIwEEEEE17__do_get_unsignedIyEES4_S4_S4_RNS_8ios_baseERjRT_
-------- W _ZNKSt3__27num_getIwNS_19istreambuf_iteratorIwNS_11char_traitsIwEEEEE23__do_get_floating_pointIdEES4_S4_S4_RNS_8ios_baseERjRT_
-------- W _ZNKSt3__27num_getIwNS_19istreambuf_iteratorIwNS_11char_traitsIwEEEEE23__do_get_floating_pointIeEES4_S4_S4_RNS_8ios_baseERjRT_
-------- W _ZNKSt3__27num_getIwNS_19istreambuf_iteratorIwNS_11char_traitsIwEEEEE23__do_get_floating_pointIfEES4_S4_S4_RNS_8ios_baseERjRT_
-------- W _ZNKSt3__27num_getIwNS_19istreambuf_iteratorIwNS_11char_traitsIwEEEEE3getES4_S4_RNS_8ios_baseERjRPv
-------- W _ZNKSt3__27num_getIwNS_19istreambuf_iteratorIwNS_11char_traitsIwEEEEE3getES4_S4_RNS_8ios_baseERjRb
-------- W _ZNKSt3__27num_getIwNS_19istreambuf_iteratorIwNS_11char_traitsIwEEEEE3getES4_S4_RNS_8ios_baseERjRd
-------- W _ZNKSt3__27num_getIwNS_19istreambuf_iteratorIwNS_11char_traitsIwEEEEE3getES4_S4_RNS_8ios_baseERjRe
-------- W _ZNKSt3__27num_getIwNS_19istreambuf_iteratorIwNS_11char_traitsIwEEEEE3getES4_S4_RNS_8ios_baseERjRf
-------- W _ZNKSt3__27num_getIwNS_19istreambuf_iteratorIwNS_11char_traitsIwEEEEE3getES4_S4_RNS_8ios_baseERjRl
-------- W _ZNKSt3__27num_getIwNS_19istreambuf_iteratorIwNS_11char_traitsIwEEEEE3getES4_S4_RNS_8ios_baseERjRm
-------- W _ZNKSt3__27num_getIwNS_19istreambuf_iteratorIwNS_11char_traitsIwEEEEE3getES4_S4_RNS_8ios_baseERjRt
-------- W _ZNKSt3__27num_getIwNS_19istreambuf_iteratorIwNS_11char_traitsIwEEEEE3getES4_S4_RNS_8ios_baseERjRx
-------- W _ZNKSt3__27num_getIwNS_19istreambuf_iteratorIwNS_11char_traitsIwEEEEE3getES4_S4_RNS_8ios_baseERjRy
-------- W _ZNKSt3__27num_getIwNS_19istreambuf_iteratorIwNS_11char_traitsIwEEEEE3getES4_S4_RNS_8ios_baseERjS8_
-------- W _ZNKSt3__27num_getIwNS_19istreambuf_iteratorIwNS_11char_traitsIwEEEEE6do_getES4_S4_RNS_8ios_baseERjRPv
-------- W _ZNKSt3__27num_getIwNS_19istreambuf_iteratorIwNS_11char_traitsIwEEEEE6do_getES4_S4_RNS_8ios_baseERjRb
-------- W _ZNKSt3__27num_getIwNS_19istreambuf_iteratorIwNS_11char_traitsIwEEEEE6do_getES4_S4_RNS_8ios_baseERjRd
-------- W _ZNKSt3__27num_getIwNS_19istreambuf_iteratorIwNS_11char_traitsIwEEEEE6do_getES4_S4_RNS_8ios_baseERjRe
-------- W _ZNKSt3__27num_getIwNS_19istreambuf_iteratorIwNS_11char_traitsIwEEEEE6do_getES4_S4_RNS_8ios_baseERjRf
-------- W _ZNKSt3__27num_getIwNS_19istreambuf_iteratorIwNS_11char_traitsIwEEEEE6do_getES4_S4_RNS_8ios_baseERjRl
-------- W _ZNKSt3__27num_getIwNS_19istreambuf_iteratorIwNS_11char_traitsIwEEEEE6do_getES4_S4_RNS_8ios_baseERjRm
-------- W _ZNKSt3__27num_getIwNS_19istreambuf_iteratorIwNS_11char_traitsIwEEEEE6do_getES4_S4_RNS_8ios_baseERjRt
-------- W _ZNKSt3__27num_getIwNS_19istreambuf_iteratorIwNS_11char_traitsIwEEEEE6do_getES4_S4_RNS_8ios_baseERjRx
-------- W _ZNKSt3__27num_getIwNS_19istreambuf_iteratorIwNS_11char_traitsIwEEEEE6do_getES4_S4_RNS_8ios_baseERjRy
-------- W _ZNKSt3__27num_getIwNS_19istreambuf_iteratorIwNS_11char_traitsIwEEEEE6do_getES4_S4_RNS_8ios_baseERjS8_
-------- W _ZNKSt3__27num_putIcNS_19ostreambuf_iteratorIcNS_11char_traitsIcEEEEE3putES4_RNS_8ios_baseEcPKv
-------- W _ZNKSt3__27num_putIcNS_19ostreambuf_iteratorIcNS_11char_traitsIcEEEEE3putES4_RNS_8ios_baseEcb
-------- W _ZNKSt3__27num_putIcNS_19ostreambuf_iteratorIcNS_11char_traitsIcEEEEE3putES4_RNS_8ios_baseEcd
-------- W _ZNKSt3__27num_putIcNS_19ostreambuf_iteratorIcNS_11char_traitsIcEEEEE3putES4_RNS_8ios_baseEce
-------- W _ZNKSt3__27num_putIcNS_19ostreambuf_iteratorIcNS_11char_traitsIcEEEEE3putES4_RNS_8ios_baseEcl
-------- W _ZNKSt3__27num_putIcNS_19ostreambuf_iteratorIcNS_11char_traitsIcEEEEE3putES4_RNS_8ios_baseEcm
-------- W _ZNKSt3__27num_putIcNS_19ostreambuf_iteratorIcNS_11char_traitsIcEEEEE3putES4_RNS_8ios_baseEcx
-------- W _ZNKSt3__27num_putIcNS_19ostreambuf_iteratorIcNS_11char_traitsIcEEEEE3putES4_RNS_8ios_baseEcy
-------- W _ZNKSt3__27num_putIcNS_19ostreambuf_iteratorIcNS_11char_traitsIcEEEEE6do_putES4_RNS_8ios_baseEcPKv
-------- W _ZNKSt3__27num_putIcNS_19ostreambuf_iteratorIcNS_11char_traitsIcEEEEE6do_putES4_RNS_8ios_baseEcb
-------- W _ZNKSt3__27num_putIcNS_19ostreambuf_iteratorIcNS_11char_traitsIcEEEEE6do_putES4_RNS_8ios_baseEcd
-------- W _ZNKSt3__27num_putIcNS_19ostreambuf_iteratorIcNS_11char_traitsIcEEEEE6do_putES4_RNS_8ios_baseEce
-------- W _ZNKSt3__27num_putIcNS_19ostreambuf_iteratorIcNS_11char_traitsIcEEEEE6do_putES4_RNS_8ios_baseEcl
-------- W _ZNKSt3__27num_putIcNS_19ostreambuf_iteratorIcNS_11char_traitsIcEEEEE6do_putES4_RNS_8ios_baseEcm
-------- W _ZNKSt3__27num_putIcNS_19ostreambuf_iteratorIcNS_11char_traitsIcEEEEE6do_putES4_RNS_8ios_baseEcx
-------- W _ZNKSt3__27num_putIcNS_19ostreambuf_iteratorIcNS_11char_traitsIcEEEEE6do_putES4_RNS_8ios_baseEcy
-------- W _ZNKSt3__27num_putIwNS_19ostreambuf_iteratorIwNS_11char_traitsIwEEEEE3putES4_RNS_8ios_baseEwPKv
-------- W _ZNKSt3__27num_putIwNS_19ostreambuf_iteratorIwNS_11char_traitsIwEEEEE3putES4_RNS_8ios_baseEwb
-------- W _ZNKSt3__27num_putIwNS_19ostreambuf_iteratorIwNS_11char_traitsIwEEEEE3putES4_RNS_8ios_baseEwd
-------- W _ZNKSt3__27num_putIwNS_19ostreambuf_iteratorIwNS_11char_traitsIwEEEEE3putES4_RNS_8ios_baseEwe
-------- W _ZNKSt3__27num_putIwNS_19ostreambuf_iteratorIwNS_11char_traitsIwEEEEE3putES4_RNS_8ios_baseEwl
-------- W _ZNKSt3__27num_putIwNS_19ostreambuf_iteratorIwNS_11char_traitsIwEEEEE3putES4_RNS_8ios_baseEwm
-------- W _ZNKSt3__27num_putIwNS_19ostreambuf_iteratorIwNS_11char_traitsIwEEEEE3putES4_RNS_8ios_baseEwx
-------- W _ZNKSt3__27num_putIwNS_19ostreambuf_iteratorIwNS_11char_traitsIwEEEEE3putES4_RNS_8ios_baseEwy
-------- W _ZNKSt3__27num_putIwNS_19ostreambuf_iteratorIwNS_11char_traitsIwEEEEE6do_putES4_RNS_8ios_baseEwPKv
-------- W _ZNKSt3__27num_putIwNS_19ostreambuf_iteratorIwNS_11char_traitsIwEEEEE6do_putES4_RNS_8ios_baseEwb
-------- W _ZNKSt3__27num_putIwNS_19ostreambuf_iteratorIwNS_11char_traitsIwEEEEE6do_putES4_RNS_8ios_baseEwd
-------- W _ZNKSt3__27num_putIwNS_19ostreambuf_iteratorIwNS_11char_traitsIwEEEEE6do_putES4_RNS_8ios_baseEwe
-------- W _ZNKSt3__27num_putIwNS_19ostreambuf_iteratorIwNS_11char_traitsIwEEEEE6do_putES4_RNS_8ios_baseEwl
-------- W _ZNKSt3__27num_putIwNS_19ostreambuf_iteratorIwNS_11char_traitsIwEEEEE6do_putES4_RNS_8ios_baseEwm
-------- W _ZNKSt3__27num_putIwNS_19ostreambuf_iteratorIwNS_11char_traitsIwEEEEE6do_putES4_RNS_8ios_baseEwx
-------- W _ZNKSt3__27num_putIwNS_19ostreambuf_iteratorIwNS_11char_traitsIwEEEEE6do_putES4_RNS_8ios_baseEwy
-------- W _ZNKSt3__28ios_base10exceptionsEv
-------- W _ZNKSt3__28ios_base4failEv
-------- W _ZNKSt3__28ios_base4goodEv
-------- W _ZNKSt3__28ios_base5flagsEv
-------- W _ZNKSt3__28ios_base5rdbufEv
-------- W _ZNKSt3__28ios_base5widthEv
-------- T _ZNKSt3__28ios_base6getlocEv
-------- W _ZNKSt3__28ios_base7rdstateEv
-------- W _ZNKSt3__28ios_base9precisionEv
-------- W _ZNKSt3__28messagesIcE6do_getEliiRKNS_12basic_stringIcNS_11char_traitsIcEENS_9allocatorIcEEEE
-------- W _ZNKSt3__28messagesIcE7do_openERKNS_12basic_stringIcNS_11char_traitsIcEENS_9allocatorIcEEEERKNS_6localeE
-------- W _ZNKSt3__28messagesIcE8do_closeEl
-------- W _ZNKSt3__28messagesIwE6do_getEliiRKNS_12basic_stringIwNS_11char_traitsIwEENS_9allocatorIwEEEE
-------- W _ZNKSt3__28messagesIwE7do_openERKNS_12basic_stringIcNS_11char_traitsIcEENS_9allocatorIcEEEERKNS_6localeE
-------- W _ZNKSt3__28messagesIwE8do_closeEl
-------- T _ZNKSt3__28numpunctIcE11do_groupingEv
-------- T _ZNKSt3__28numpunctIcE11do_truenameEv
-------- T _ZNKSt3__28numpunctIcE12do_falsenameEv
-------- W _ZNKSt3__28numpunctIcE13decimal_pointEv
-------- W _ZNKSt3__28numpunctIcE13thousands_sepEv
-------- T _ZNKSt3__28numpunctIcE16do_decimal_pointEv
-------- T _ZNKSt3__28numpunctIcE16do_thousands_sepEv
-------- W _ZNKSt3__28numpunctIcE8groupingEv
-------- W _ZNKSt3__28numpunctIcE8truenameEv
-------- W _ZNKSt3__28numpunctIcE9falsenameEv
-------- T _ZNKSt3__28numpunctIwE11do_groupingEv
-------- T _ZNKSt3__28numpunctIwE11do_truenameEv
-------- T _ZNKSt3__28numpunctIwE12do_falsenameEv
-------- W _ZNKSt3__28numpunctIwE13decimal_pointEv
-------- W _ZNKSt3__28numpunctIwE13thousands_sepEv
-------- T _ZNKSt3__28numpunctIwE16do_decimal_pointEv
-------- T _ZNKSt3__28numpunctIwE16do_thousands_sepEv
-------- W _ZNKSt3__28numpunctIwE8groupingEv
-------- W _ZNKSt3__28numpunctIwE8truenameEv
-------- W _ZNKSt3__28numpunctIwE9falsenameEv
-------- W _ZNKSt3__28time_getIcNS_19istreambuf_iteratorIcNS_11char_traitsIcEEEEE10__get_hourERiRS4_S4_RjRKNS_5ctypeIcEE
-------- W _ZNKSt3__28time_getIcNS_19istreambuf_iteratorIcNS_11char_traitsIcEEEEE10__get_yearERiRS4_S4_RjRKNS_5ctypeIcEE
-------- W _ZNKSt3__28time_getIcNS_19istreambuf_iteratorIcNS_11char_traitsIcEEEEE11__get_am_pmERiRS4_S4_RjRKNS_5ctypeIcEE
-------- W _ZNKSt3__28time_getIcNS_19istreambuf_iteratorIcNS_11char_traitsIcEEEEE11__get_monthERiRS4_S4_RjRKNS_5ctypeIcEE
-------- W _ZNKSt3__28time_getIcNS_19istreambuf_iteratorIcNS_11char_traitsIcEEEEE11__get_year4ERiRS4_S4_RjRKNS_5ctypeIcEE
-------- W _ZNKSt3__28time_getIcNS_19istreambuf_iteratorIcNS_11char_traitsIcEEEEE11do_get_dateES4_S4_RNS_8ios_baseERjP2tm
-------- W _ZNKSt3__28time_getIcNS_19istreambuf_iteratorIcNS_11char_traitsIcEEEEE11do_get_timeES4_S4_RNS_8ios_baseERjP2tm
-------- W _ZNKSt3__28time_getIcNS_19istreambuf_iteratorIcNS_11char_traitsIcEEEEE11do_get_yearES4_S4_RNS_8ios_baseERjP2tm
-------- W _ZNKSt3__28time_getIcNS_19istreambuf_iteratorIcNS_11char_traitsIcEEEEE12__get_minuteERiRS4_S4_RjRKNS_5ctypeIcEE
-------- W _ZNKSt3__28time_getIcNS_19istreambuf_iteratorIcNS_11char_traitsIcEEEEE12__get_secondERiRS4_S4_RjRKNS_5ctypeIcEE
-------- W _ZNKSt3__28time_getIcNS_19istreambuf_iteratorIcNS_11char_traitsIcEEEEE13__get_12_hourERiRS4_S4_RjRKNS_5ctypeIcEE
-------- W _ZNKSt3__28time_getIcNS_19istreambuf_iteratorIcNS_11char_traitsIcEEEEE13__get_percentERS4_S4_RjRKNS_5ctypeIcEE
-------- W _ZNKSt3__28time_getIcNS_19istreambuf_iteratorIcNS_11char_traitsIcEEEEE13__get_weekdayERiRS4_S4_RjRKNS_5ctypeIcEE
-------- W _ZNKSt3__28time_getIcNS_19istreambuf_iteratorIcNS_11char_traitsIcEEEEE13do_date_orderEv
-------- W _ZNKSt3__28time_getIcNS_19istreambuf_iteratorIcNS_11char_traitsIcEEEEE14do_get_weekdayES4_S4_RNS_8ios_baseERjP2tm
-------- W _ZNKSt3__28time_getIcNS_19istreambuf_iteratorIcNS_11char_traitsIcEEEEE15__get_monthnameERiRS4_S4_RjRKNS_5ctypeIcEE
-------- W _ZNKSt3__28time_getIcNS_19istreambuf_iteratorIcNS_11char_traitsIcEEEEE16do_get_monthnameES4_S4_RNS_8ios_baseERjP2tm
-------- W _ZNKSt3__28time_getIcNS_19istreambuf_iteratorIcNS_11char_traitsIcEEEEE17__get_weekdaynameERiRS4_S4_RjRKNS_5ctypeIcEE
-------- W _ZNKSt3__28time_getIcNS_19istreambuf_iteratorIcNS_11char_traitsIcEEEEE17__get_white_spaceERS4_S4_RjRKNS_5ctypeIcEE
-------- W _ZNKSt3__28time_getIcNS_19istreambuf_iteratorIcNS_11char_traitsIcEEEEE18__get_day_year_numERiRS4_S4_RjRKNS_5ctypeIcEE
-------- W _ZNKSt3__28time_getIcNS_19istreambuf_iteratorIcNS_11char_traitsIcEEEEE3getES4_S4_RNS_8ios_baseERjP2tmPKcSC_
-------- W _ZNKSt3__28time_getIcNS_19istreambuf_iteratorIcNS_11char_traitsIcEEEEE6do_getES4_S4_RNS_8ios_baseERjP2tmcc
-------- W _ZNKSt3__28time_getIcNS_19istreambuf_iteratorIcNS_11char_traitsIcEEEEE9__get_dayERiRS4_S4_RjRKNS_5ctypeIcEE
-------- W _ZNKSt3__28time_getIwNS_19istreambuf_iteratorIwNS_11char_traitsIwEEEEE10__get_hourERiRS4_S4_RjRKNS_5ctypeIwEE
-------- W _ZNKSt3__28time_getIwNS_19istreambuf_iteratorIwNS_11char_traitsIwEEEEE10__get_yearERiRS4_S4_RjRKNS_5ctypeIwEE
-------- W _ZNKSt3__28time_getIwNS_19istreambuf_iteratorIwNS_11char_traitsIwEEEEE11__get_am_pmERiRS4_S4_RjRKNS_5ctypeIwEE
-------- W _ZNKSt3__28time_getIwNS_19istreambuf_iteratorIwNS_11char_traitsIwEEEEE11__get_monthERiRS4_S4_RjRKNS_5ctypeIwEE
-------- W _ZNKSt3__28time_getIwNS_19istreambuf_iteratorIwNS_11char_traitsIwEEEEE11__get_year4ERiRS4_S4_RjRKNS_5ctypeIwEE
-------- W _ZNKSt3__28time_getIwNS_19istreambuf_iteratorIwNS_11char_traitsIwEEEEE11do_get_dateES4_S4_RNS_8ios_baseERjP2tm
-------- W _ZNKSt3__28time_getIwNS_19istreambuf_iteratorIwNS_11char_traitsIwEEEEE11do_get_timeES4_S4_RNS_8ios_baseERjP2tm
-------- W _ZNKSt3__28time_getIwNS_19istreambuf_iteratorIwNS_11char_traitsIwEEEEE11do_get_yearES4_S4_RNS_8ios_baseERjP2tm
-------- W _ZNKSt3__28time_getIwNS_19istreambuf_iteratorIwNS_11char_traitsIwEEEEE12__get_minuteERiRS4_S4_RjRKNS_5ctypeIwEE
-------- W _ZNKSt3__28time_getIwNS_19istreambuf_iteratorIwNS_11char_traitsIwEEEEE12__get_secondERiRS4_S4_RjRKNS_5ctypeIwEE
-------- W _ZNKSt3__28time_getIwNS_19istreambuf_iteratorIwNS_11char_traitsIwEEEEE13__get_12_hourERiRS4_S4_RjRKNS_5ctypeIwEE
-------- W _ZNKSt3__28time_getIwNS_19istreambuf_iteratorIwNS_11char_traitsIwEEEEE13__get_percentERS4_S4_RjRKNS_5ctypeIwEE
-------- W _ZNKSt3__28time_getIwNS_19istreambuf_iteratorIwNS_11char_traitsIwEEEEE13__get_weekdayERiRS4_S4_RjRKNS_5ctypeIwEE
-------- W _ZNKSt3__28time_getIwNS_19istreambuf_iteratorIwNS_11char_traitsIwEEEEE13do_date_orderEv
-------- W _ZNKSt3__28time_getIwNS_19istreambuf_iteratorIwNS_11char_traitsIwEEEEE14do_get_weekdayES4_S4_RNS_8ios_baseERjP2tm
-------- W _ZNKSt3__28time_getIwNS_19istreambuf_iteratorIwNS_11char_traitsIwEEEEE15__get_monthnameERiRS4_S4_RjRKNS_5ctypeIwEE
-------- W _ZNKSt3__28time_getIwNS_19istreambuf_iteratorIwNS_11char_traitsIwEEEEE16do_get_monthnameES4_S4_RNS_8ios_baseERjP2tm
-------- W _ZNKSt3__28time_getIwNS_19istreambuf_iteratorIwNS_11char_traitsIwEEEEE17__get_weekdaynameERiRS4_S4_RjRKNS_5ctypeIwEE
-------- W _ZNKSt3__28time_getIwNS_19istreambuf_iteratorIwNS_11char_traitsIwEEEEE17__get_white_spaceERS4_S4_RjRKNS_5ctypeIwEE
-------- W _ZNKSt3__28time_getIwNS_19istreambuf_iteratorIwNS_11char_traitsIwEEEEE18__get_day_year_numERiRS4_S4_RjRKNS_5ctypeIwEE
-------- W _ZNKSt3__28time_getIwNS_19istreambuf_iteratorIwNS_11char_traitsIwEEEEE3getES4_S4_RNS_8ios_baseERjP2tmPKwSC_
-------- W _ZNKSt3__28time_getIwNS_19istreambuf_iteratorIwNS_11char_traitsIwEEEEE6do_getES4_S4_RNS_8ios_baseERjP2tmcc
-------- W _ZNKSt3__28time_getIwNS_19istreambuf_iteratorIwNS_11char_traitsIwEEEEE9__get_dayERiRS4_S4_RjRKNS_5ctypeIwEE
-------- W _ZNKSt3__28time_putIcNS_19ostreambuf_iteratorIcNS_11char_traitsIcEEEEE3putES4_RNS_8ios_baseEcPK2tmPKcSC_
-------- W _ZNKSt3__28time_putIcNS_19ostreambuf_iteratorIcNS_11char_traitsIcEEEEE6do_putES4_RNS_8ios_baseEcPK2tmcc
-------- W _ZNKSt3__28time_putIwNS_19ostreambuf_iteratorIwNS_11char_traitsIwEEEEE3putES4_RNS_8ios_baseEwPK2tmPKwSC_
-------- W _ZNKSt3__28time_putIwNS_19ostreambuf_iteratorIwNS_11char_traitsIwEEEEE6do_putES4_RNS_8ios_baseEwPK2tmcc
-------- W _ZNKSt3__28valarrayImE4sizeEv
-------- W _ZNKSt3__29__num_getIcE10__do_widenERNS_8ios_baseEPc
-------- W _ZNKSt3__29__num_getIcE12__do_widen_pERNS_8ios_baseEPc
-------- W _ZNKSt3__29__num_getIwE10__do_widenERNS_8ios_baseEPw
-------- W _ZNKSt3__29__num_getIwE12__do_widen_pERNS_8ios_baseEPc
-------- W _ZNKSt3__29__num_getIwE12__do_widen_pIwEEPKT_RNS_8ios_baseEPS3_
-------- W _ZNKSt3__29allocatorINS_17basic_string_viewIcNS_11char_traitsIcEEEEE8max_sizeEv
-------- W _ZNKSt3__29allocatorINS_20__shared_ptr_emplaceINS_4__fs10filesystem12__dir_streamENS0_IS4_EEEEE8max_sizeEv
-------- W _ZNKSt3__29allocatorINS_20__shared_ptr_emplaceINS_4__fs10filesystem28recursive_directory_iterator12__shared_impENS0_IS5_EEEEE8max_sizeEv
-------- W _ZNKSt3__29allocatorINS_4__fs10filesystem12__dir_streamEE8max_sizeEv
-------- W _ZNKSt3__29allocatorINS_4pairINS_17basic_string_viewIcNS_11char_traitsIcEEEENS_4__fs10filesystem12PathPartKindEEEE8max_sizeEv
-------- W _ZNKSt3__29allocatorIPNS_4__fs10filesystem12__dir_streamEE8max_sizeEv
-------- W _ZNKSt3__29allocatorIcE8max_sizeEv
-------- W _ZNKSt3__29allocatorIwE8max_sizeEv
-------- W _ZNKSt3__29basic_iosIcNS_11char_traitsIcEEE10exceptionsEv
-------- W _ZNKSt3__29basic_iosIcNS_11char_traitsIcEEE3tieEv
-------- W _ZNKSt3__29basic_iosIcNS_11char_traitsIcEEE4failEv
-------- W _ZNKSt3__29basic_iosIcNS_11char_traitsIcEEE4fillEv
-------- W _ZNKSt3__29basic_iosIcNS_11char_traitsIcEEE4goodEv
-------- W _ZNKSt3__29basic_iosIcNS_11char_traitsIcEEE5rdbufEv
-------- W _ZNKSt3__29basic_iosIcNS_11char_traitsIcEEE5widenEc
-------- W _ZNKSt3__29basic_iosIcNS_11char_traitsIcEEE7rdstateEv
-------- W _ZNKSt3__29basic_iosIwNS_11char_traitsIwEEE10exceptionsEv
-------- W _ZNKSt3__29basic_iosIwNS_11char_traitsIwEEE3tieEv
-------- W _ZNKSt3__29basic_iosIwNS_11char_traitsIwEEE4fillEv
-------- W _ZNKSt3__29basic_iosIwNS_11char_traitsIwEEE4goodEv
-------- W _ZNKSt3__29basic_iosIwNS_11char_traitsIwEEE5rdbufEv
-------- W _ZNKSt3__29basic_iosIwNS_11char_traitsIwEEE5widenEc
-------- W _ZNKSt3__29basic_iosIwNS_11char_traitsIwEEE7rdstateEv
-------- W _ZNKSt3__29money_getIcNS_19istreambuf_iteratorIcNS_11char_traitsIcEEEEE6do_getES4_S4_bRNS_8ios_baseERjRNS_12basic_stringIcS3_NS_9allocatorIcEEEE
-------- W _ZNKSt3__29money_getIcNS_19istreambuf_iteratorIcNS_11char_traitsIcEEEEE6do_getES4_S4_bRNS_8ios_baseERjRe
-------- W _ZNKSt3__29money_getIwNS_19istreambuf_iteratorIwNS_11char_traitsIwEEEEE6do_getES4_S4_bRNS_8ios_baseERjRNS_12basic_stringIwS3_NS_9allocatorIwEEEE
-------- W _ZNKSt3__29money_getIwNS_19istreambuf_iteratorIwNS_11char_traitsIwEEEEE6do_getES4_S4_bRNS_8ios_baseERjRe
-------- W _ZNKSt3__29money_putIcNS_19ostreambuf_iteratorIcNS_11char_traitsIcEEEEE6do_putES4_bRNS_8ios_baseEcRKNS_12basic_stringIcS3_NS_9allocatorIcEEEE
-------- W _ZNKSt3__29money_putIcNS_19ostreambuf_iteratorIcNS_11char_traitsIcEEEEE6do_putES4_bRNS_8ios_baseEce
-------- W _ZNKSt3__29money_putIwNS_19ostreambuf_iteratorIwNS_11char_traitsIwEEEEE6do_putES4_bRNS_8ios_baseEwRKNS_12basic_stringIwS3_NS_9allocatorIwEEEE
-------- W _ZNKSt3__29money_putIwNS_19ostreambuf_iteratorIwNS_11char_traitsIwEEEEE6do_putES4_bRNS_8ios_baseEwe
-------- T _ZNSt11logic_errorC1EPKc
-------- T _ZNSt11logic_errorC1ERKNSt3__212basic_stringIcNS0_11char_traitsIcEENS0_9allocatorIcEEEE
-------- T _ZNSt11logic_errorC1ERKS_
-------- T _ZNSt11logic_errorC2EPKc
-------- T _ZNSt11logic_errorC2ERKNSt3__212basic_stringIcNS0_11char_traitsIcEENS0_9allocatorIcEEEE
-------- T _ZNSt11logic_errorC2ERKS_
-------- T _ZNSt11logic_erroraSERKS_
-------- W _ZNSt12bad_any_castD0Ev
-------- W _ZNSt12experimental15fundamentals_v112bad_any_castD0Ev
-------- W _ZNSt12experimental15fundamentals_v13pmr15memory_resourceC2Ev
-------- W _ZNSt12experimental15fundamentals_v13pmr15memory_resourceD0Ev
-------- W _ZNSt12experimental15fundamentals_v13pmr15memory_resourceD2Ev
-------- T _ZNSt12experimental15fundamentals_v13pmr19new_delete_resourceEv
-------- T _ZNSt12experimental15fundamentals_v13pmr20get_default_resourceEv
-------- T _ZNSt12experimental15fundamentals_v13pmr20null_memory_resourceEv
-------- T _ZNSt12experimental15fundamentals_v13pmr20set_default_resourceEPNS1_15memory_resourceE
-------- W _ZNSt12experimental15fundamentals_v13pmr26__null_memory_resource_imp11do_allocateEmm
-------- W _ZNSt12experimental15fundamentals_v13pmr26__null_memory_resource_imp13do_deallocateEPvmm
-------- W _ZNSt12experimental15fundamentals_v13pmr26__null_memory_resource_impC2Ev
-------- W _ZNSt12experimental15fundamentals_v13pmr26__null_memory_resource_impD0Ev
-------- W _ZNSt12experimental15fundamentals_v13pmr32__new_delete_memory_resource_imp11do_allocateEmm
-------- W _ZNSt12experimental15fundamentals_v13pmr32__new_delete_memory_resource_imp13do_deallocateEPvmm
-------- W _ZNSt12experimental15fundamentals_v13pmr32__new_delete_memory_resource_impC2Ev
-------- W _ZNSt12experimental15fundamentals_v13pmr32__new_delete_memory_resource_impD0Ev
-------- T _ZNSt12experimental19bad_optional_accessD0Ev
-------- T _ZNSt12experimental19bad_optional_accessD1Ev
-------- T _ZNSt12experimental19bad_optional_accessD2Ev
-------- T _ZNSt13exception_ptrC1ERKS_
-------- W _ZNSt13exception_ptrC2EDn
-------- T _ZNSt13exception_ptrC2ERKS_
-------- W _ZNSt13exception_ptrC2Ev
-------- T _ZNSt13exception_ptrD1Ev
-------- T _ZNSt13exception_ptrD2Ev
-------- T _ZNSt13exception_ptraSERKS_
-------- T _ZNSt13runtime_errorC1EPKc
-------- T _ZNSt13runtime_errorC1ERKNSt3__212basic_stringIcNS0_11char_traitsIcEENS0_9allocatorIcEEEE
-------- T _ZNSt13runtime_errorC1ERKS_
-------- T _ZNSt13runtime_errorC2EPKc
-------- T _ZNSt13runtime_errorC2ERKNSt3__212basic_stringIcNS0_11char_traitsIcEENS0_9allocatorIcEEEE
-------- T _ZNSt13runtime_errorC2ERKS_
-------- T _ZNSt13runtime_erroraSERKS_
-------- T _ZNSt16nested_exceptionC1Ev
-------- T _ZNSt16nested_exceptionC2Ev
-------- T _ZNSt16nested_exceptionD0Ev
-------- T _ZNSt16nested_exceptionD1Ev
-------- T _ZNSt16nested_exceptionD2Ev
-------- W _ZNSt18bad_variant_accessD0Ev
-------- T _ZNSt19bad_optional_accessD0Ev
-------- T _ZNSt19bad_optional_accessD1Ev
-------- T _ZNSt19bad_optional_accessD2Ev
-------- W _ZNSt3__210__algo_gcdIlEET_S1_S1_
-------- W _ZNSt3__210__distanceIPKNS_12basic_stringIcNS_11char_traitsIcEENS_9allocatorIcEEEEEENS_15iterator_traitsIT_E15difference_typeESA_SA_NS_26random_access_iterator_tagE
-------- W _ZNSt3__210__distanceIPKNS_12basic_stringIwNS_11char_traitsIwEENS_9allocatorIwEEEEEENS_15iterator_traitsIT_E15difference_typeESA_SA_NS_26random_access_iterator_tagE
-------- W _ZNSt3__210__distanceIPKcEENS_15iterator_traitsIT_E15difference_typeES4_S4_NS_26random_access_iterator_tagE
-------- W _ZNSt3__210__distanceIPKjEENS_15iterator_traitsIT_E15difference_typeES4_S4_NS_26random_access_iterator_tagE
-------- W _ZNSt3__210__distanceIPKwEENS_15iterator_traitsIT_E15difference_typeES4_S4_NS_26random_access_iterator_tagE
-------- W _ZNSt3__210__distanceIPNS_12basic_stringIcNS_11char_traitsIcEENS_9allocatorIcEEEEEENS_15iterator_traitsIT_E15difference_typeES9_S9_NS_26random_access_iterator_tagE
-------- W _ZNSt3__210__distanceIPNS_12basic_stringIwNS_11char_traitsIwEENS_9allocatorIwEEEEEENS_15iterator_traitsIT_E15difference_typeES9_S9_NS_26random_access_iterator_tagE
-------- W _ZNSt3__210__distanceIPPNS_6locale5facetEEENS_15iterator_traitsIT_E15difference_typeES6_S6_NS_26random_access_iterator_tagE
-------- W _ZNSt3__210__distanceIPcEENS_15iterator_traitsIT_E15difference_typeES3_S3_NS_26random_access_iterator_tagE
-------- W _ZNSt3__210__distanceIPwEENS_15iterator_traitsIT_E15difference_typeES3_S3_NS_26random_access_iterator_tagE
-------- W _ZNSt3__210__find_endIPFbccEPKcS4_EET0_S5_S5_T1_S6_T_NS_26random_access_iterator_tagES8_
-------- W _ZNSt3__210__find_endIPFbwwEPKwS4_EET0_S5_S5_T1_S6_T_NS_26random_access_iterator_tagES8_
-------- W _ZNSt3__210__loadwordImEET_PKv
-------- W _ZNSt3__210__stdinbufIcE5imbueERKNS_6localeE
-------- W _ZNSt3__210__stdinbufIcE5uflowEv
-------- W _ZNSt3__210__stdinbufIcE9__getcharEb
-------- W _ZNSt3__210__stdinbufIcE9pbackfailEi
-------- W _ZNSt3__210__stdinbufIcE9underflowEv
-------- W _ZNSt3__210__stdinbufIcEC2EP8_IO_FILEP11__mbstate_t
-------- W _ZNSt3__210__stdinbufIcED0Ev
-------- W _ZNSt3__210__stdinbufIwE5imbueERKNS_6localeE
-------- W _ZNSt3__210__stdinbufIwE5uflowEv
-------- W _ZNSt3__210__stdinbufIwE9__getcharEb
-------- W _ZNSt3__210__stdinbufIwE9pbackfailEj
-------- W _ZNSt3__210__stdinbufIwE9underflowEv
-------- W _ZNSt3__210__stdinbufIwEC2EP8_IO_FILEP11__mbstate_t
-------- W _ZNSt3__210__stdinbufIwED0Ev
-------- W _ZNSt3__210__str_findIcmNS_11char_traitsIcEELm4294967295EEET0_PKT_S3_S4_S3_
-------- W _ZNSt3__210__str_findIcmNS_11char_traitsIcEELm4294967295EEET0_PKT_S3_S6_S3_S3_
-------- W _ZNSt3__210__str_findIwmNS_11char_traitsIwEELm4294967295EEET0_PKT_S3_S4_S3_
-------- W _ZNSt3__210__str_findIwmNS_11char_traitsIwEELm4294967295EEET0_PKT_S3_S6_S3_S3_
-------- T _ZNSt3__210__time_getC1EPKc
-------- T _ZNSt3__210__time_getC1ERKNS_12basic_stringIcNS_11char_traitsIcEENS_9allocatorIcEEEE
-------- T _ZNSt3__210__time_getC2EPKc
-------- T _ZNSt3__210__time_getC2ERKNS_12basic_stringIcNS_11char_traitsIcEENS_9allocatorIcEEEE
-------- T _ZNSt3__210__time_getD1Ev
-------- T _ZNSt3__210__time_getD2Ev
-------- T _ZNSt3__210__time_putC1EPKc
-------- T _ZNSt3__210__time_putC1ERKNS_12basic_stringIcNS_11char_traitsIcEENS_9allocatorIcEEEE
-------- T _ZNSt3__210__time_putC2EPKc
-------- T _ZNSt3__210__time_putC2ERKNS_12basic_stringIcNS_11char_traitsIcEENS_9allocatorIcEEEE
-------- W _ZNSt3__210__time_putC2Ev
-------- T _ZNSt3__210__time_putD1Ev
-------- T _ZNSt3__210__time_putD2Ev
-------- D _ZNSt3__210adopt_lockE
-------- D _ZNSt3__210ctype_base5alnumE
-------- D _ZNSt3__210ctype_base5alphaE
-------- D _ZNSt3__210ctype_base5blankE
-------- D _ZNSt3__210ctype_base5cntrlE
-------- D _ZNSt3__210ctype_base5digitE
-------- D _ZNSt3__210ctype_base5graphE
-------- D _ZNSt3__210ctype_base5lowerE
-------- D _ZNSt3__210ctype_base5printE
-------- D _ZNSt3__210ctype_base5punctE
-------- D _ZNSt3__210ctype_base5spaceE
-------- D _ZNSt3__210ctype_base5upperE
-------- D _ZNSt3__210ctype_base6xdigitE
-------- W _ZNSt3__210ctype_baseC2Ev
-------- D _ZNSt3__210defer_lockE
-------- W _ZNSt3__210error_code5clearEv
-------- W _ZNSt3__210error_codeC2EiRKNS_14error_categoryE
-------- W _ZNSt3__210error_codeC2Ev
-------- T _ZNSt3__210istrstreamD0Ev
-------- T _ZNSt3__210istrstreamD1Ev
-------- T _ZNSt3__210istrstreamD2Ev
-------- W _ZNSt3__210lock_guardINS_5mutexEEC2ERS1_
-------- W _ZNSt3__210lock_guardINS_5mutexEED2Ev
-------- W _ZNSt3__210money_baseC2Ev
-------- W _ZNSt3__210moneypunctIcLb0EE2idE
-------- W _ZNSt3__210moneypunctIcLb0EE4intlE
-------- W _ZNSt3__210moneypunctIcLb0EEC2Em
-------- W _ZNSt3__210moneypunctIcLb0EED0Ev
-------- W _ZNSt3__210moneypunctIcLb1EE2idE
-------- W _ZNSt3__210moneypunctIcLb1EE4intlE
-------- W _ZNSt3__210moneypunctIcLb1EEC2Em
-------- W _ZNSt3__210moneypunctIcLb1EED0Ev
-------- W _ZNSt3__210moneypunctIwLb0EE2idE
-------- W _ZNSt3__210moneypunctIwLb0EE4intlE
-------- W _ZNSt3__210moneypunctIwLb0EEC2Em
-------- W _ZNSt3__210moneypunctIwLb0EED0Ev
-------- W _ZNSt3__210moneypunctIwLb1EE2idE
-------- W _ZNSt3__210moneypunctIwLb1EE4intlE
-------- W _ZNSt3__210moneypunctIwLb1EEC2Em
-------- W _ZNSt3__210moneypunctIwLb1EED0Ev
-------- T _ZNSt3__210ostrstreamD0Ev
-------- T _ZNSt3__210ostrstreamD1Ev
-------- T _ZNSt3__210ostrstreamD2Ev
-------- W _ZNSt3__210shared_ptrINS_4__fs10filesystem12__dir_streamEE11make_sharedIJRKNS2_4pathERNS2_17directory_optionsERNS_10error_codeEEEES4_DpOT_
-------- W _ZNSt3__210shared_ptrINS_4__fs10filesystem12__dir_streamEE18__enable_weak_thisEz
-------- W _ZNSt3__210shared_ptrINS_4__fs10filesystem12__dir_streamEE4swapERS4_
-------- W _ZNSt3__210shared_ptrINS_4__fs10filesystem12__dir_streamEE5resetEv
-------- W _ZNSt3__210shared_ptrINS_4__fs10filesystem12__dir_streamEEC2EOS4_
-------- W _ZNSt3__210shared_ptrINS_4__fs10filesystem12__dir_streamEEC2Ev
-------- W _ZNSt3__210shared_ptrINS_4__fs10filesystem12__dir_streamEED2Ev
-------- W _ZNSt3__210shared_ptrINS_4__fs10filesystem12__dir_streamEEaSEOS4_
-------- W _ZNSt3__210shared_ptrINS_4__fs10filesystem16filesystem_error8_StorageEED2Ev
-------- W _ZNSt3__210shared_ptrINS_4__fs10filesystem28recursive_directory_iterator12__shared_impEE11make_sharedIJEEES5_DpOT_
-------- W _ZNSt3__210shared_ptrINS_4__fs10filesystem28recursive_directory_iterator12__shared_impEE18__enable_weak_thisEz
-------- W _ZNSt3__210shared_ptrINS_4__fs10filesystem28recursive_directory_iterator12__shared_impEE4swapERS5_
-------- W _ZNSt3__210shared_ptrINS_4__fs10filesystem28recursive_directory_iterator12__shared_impEE5resetEv
-------- W _ZNSt3__210shared_ptrINS_4__fs10filesystem28recursive_directory_iterator12__shared_impEEC2EDn
-------- W _ZNSt3__210shared_ptrINS_4__fs10filesystem28recursive_directory_iterator12__shared_impEEC2EOS5_
-------- W _ZNSt3__210shared_ptrINS_4__fs10filesystem28recursive_directory_iterator12__shared_impEEC2Ev
-------- W _ZNSt3__210shared_ptrINS_4__fs10filesystem28recursive_directory_iterator12__shared_impEED2Ev
-------- W _ZNSt3__210shared_ptrINS_4__fs10filesystem28recursive_directory_iterator12__shared_impEEaSEOS5_
-------- T _ZNSt3__210to_wstringEd
-------- T _ZNSt3__210to_wstringEe
-------- T _ZNSt3__210to_wstringEf
-------- T _ZNSt3__210to_wstringEi
-------- T _ZNSt3__210to_wstringEj
-------- T _ZNSt3__210to_wstringEl
-------- T _ZNSt3__210to_wstringEm
-------- T _ZNSt3__210to_wstringEx
-------- T _ZNSt3__210to_wstringEy
-------- W _ZNSt3__210unique_ptrI8_IO_FILEPFiPS1_EE5resetES2_
-------- W _ZNSt3__210unique_ptrI8_IO_FILEPFiPS1_EE7releaseEv
-------- W _ZNSt3__210unique_ptrI8_IO_FILEPFiPS1_EEC2ILb1EvEES2_NS_16__dependent_typeINS_27__unique_ptr_deleter_sfinaeIS4_EEXT_EE20__good_rval_ref_typeE
-------- W _ZNSt3__210unique_ptrI8_IO_FILEPFiPS1_EED2Ev
-------- W _ZNSt3__210unique_ptrIA_cNS_14default_deleteIS1_EEE5resetEDn
-------- W _ZNSt3__210unique_ptrIA_cNS_14default_deleteIS1_EEEC2IPcLb1EvvEET_
-------- W _ZNSt3__210unique_ptrIA_cNS_14default_deleteIS1_EEED2Ev
-------- W _ZNSt3__210unique_ptrINS_14__shared_countENS_22__release_shared_countEE5resetEPS1_
-------- W _ZNSt3__210unique_ptrINS_14__shared_countENS_22__release_shared_countEEC2ILb1EvEEPS1_
-------- W _ZNSt3__210unique_ptrINS_14__shared_countENS_22__release_shared_countEED2Ev
-------- W _ZNSt3__210unique_ptrINS_20__shared_ptr_emplaceINS_4__fs10filesystem12__dir_streamENS_9allocatorIS4_EEEENS_22__allocator_destructorINS5_IS7_EEEEE5resetEPS7_
-------- W _ZNSt3__210unique_ptrINS_20__shared_ptr_emplaceINS_4__fs10filesystem12__dir_streamENS_9allocatorIS4_EEEENS_22__allocator_destructorINS5_IS7_EEEEE7releaseEv
-------- W _ZNSt3__210unique_ptrINS_20__shared_ptr_emplaceINS_4__fs10filesystem12__dir_streamENS_9allocatorIS4_EEEENS_22__allocator_destructorINS5_IS7_EEEEEC2ILb1EvEEPS7_NS_16__dependent_typeINS_27__unique_ptr_deleter_sfinaeISA_EEXT_EE20__good_rval_ref_typeE
-------- W _ZNSt3__210unique_ptrINS_20__shared_ptr_emplaceINS_4__fs10filesystem12__dir_streamENS_9allocatorIS4_EEEENS_22__allocator_destructorINS5_IS7_EEEEED2Ev
-------- W _ZNSt3__210unique_ptrINS_20__shared_ptr_emplaceINS_4__fs10filesystem28recursive_directory_iterator12__shared_impENS_9allocatorIS5_EEEENS_22__allocator_destructorINS6_IS8_EEEEE5resetEPS8_
-------- W _ZNSt3__210unique_ptrINS_20__shared_ptr_emplaceINS_4__fs10filesystem28recursive_directory_iterator12__shared_impENS_9allocatorIS5_EEEENS_22__allocator_destructorINS6_IS8_EEEEE7releaseEv
-------- W _ZNSt3__210unique_ptrINS_20__shared_ptr_emplaceINS_4__fs10filesystem28recursive_directory_iterator12__shared_impENS_9allocatorIS5_EEEENS_22__allocator_destructorINS6_IS8_EEEEEC2ILb1EvEEPS8_NS_16__dependent_typeINS_27__unique_ptr_deleter_sfinaeISB_EEXT_EE20__good_rval_ref_typeE
-------- W _ZNSt3__210unique_ptrINS_20__shared_ptr_emplaceINS_4__fs10filesystem28recursive_directory_iterator12__shared_impENS_9allocatorIS5_EEEENS_22__allocator_destructorINS6_IS8_EEEEED2Ev
-------- W _ZNSt3__210unique_ptrIPFvNS_8ios_base5eventERS1_iEPFvPvEE5resetEPS5_
-------- W _ZNSt3__210unique_ptrIPFvNS_8ios_base5eventERS1_iEPFvPvEE7releaseEv
-------- W _ZNSt3__210unique_ptrIPFvNS_8ios_base5eventERS1_iEPFvPvEEC2ILb1EvEEPS5_NS_16__dependent_typeINS_27__unique_ptr_deleter_sfinaeIS8_EEXT_EE20__good_rval_ref_typeE
-------- W _ZNSt3__210unique_ptrIPFvNS_8ios_base5eventERS1_iEPFvPvEED2Ev
-------- W _ZNSt3__210unique_ptrIPNS_4__fs10filesystem12__dir_streamENS_22__allocator_destructorINS_9allocatorIS3_EEEEE5resetES4_
-------- W _ZNSt3__210unique_ptrIPNS_4__fs10filesystem12__dir_streamENS_22__allocator_destructorINS_9allocatorIS3_EEEEE7releaseEv
-------- W _ZNSt3__210unique_ptrIPNS_4__fs10filesystem12__dir_streamENS_22__allocator_destructorINS_9allocatorIS3_EEEEEC2ILb1EvEES4_NS_16__dependent_typeINS_27__unique_ptr_deleter_sfinaeIS8_EEXT_EE20__good_rval_ref_typeE
-------- W _ZNSt3__210unique_ptrIPNS_4__fs10filesystem12__dir_streamENS_22__allocator_destructorINS_9allocatorIS3_EEEEED2Ev
-------- W _ZNSt3__210unique_ptrIPvPFvS1_EE5resetEPS1_
-------- W _ZNSt3__210unique_ptrIPvPFvS1_EE7releaseEv
-------- W _ZNSt3__210unique_ptrIPvPFvS1_EEC2ILb1EvEEPS1_NS_16__dependent_typeINS_27__unique_ptr_deleter_sfinaeIS3_EEXT_EE20__good_rval_ref_typeE
-------- W _ZNSt3__210unique_ptrIPvPFvS1_EED2Ev
-------- W _ZNSt3__210unique_ptrIcPFvPvEE11get_deleterEv
-------- W _ZNSt3__210unique_ptrIcPFvPvEE5resetEPc
-------- W _ZNSt3__210unique_ptrIcPFvPvEE7releaseEv
-------- W _ZNSt3__210unique_ptrIcPFvPvEEC2ILb1EvEEPcNS_16__dependent_typeINS_27__unique_ptr_deleter_sfinaeIS3_EEXT_EE20__good_rval_ref_typeE
-------- W _ZNSt3__210unique_ptrIcPFvPvEED2Ev
-------- W _ZNSt3__210unique_ptrIcPFvPvEEaSEOS4_
-------- W _ZNSt3__210unique_ptrIhPFvPvEE5resetEPh
-------- W _ZNSt3__210unique_ptrIhPFvPvEEC2ILb1EvEEPhNS_16__dependent_typeINS_27__unique_ptr_deleter_sfinaeIS3_EEXT_EE20__good_rval_ref_typeE
-------- W _ZNSt3__210unique_ptrIhPFvPvEED2Ev
-------- W _ZNSt3__210unique_ptrIiPFvPvEE5resetEPi
-------- W _ZNSt3__210unique_ptrIiPFvPvEE7releaseEv
-------- W _ZNSt3__210unique_ptrIiPFvPvEEC2ILb1EvEEPiNS_16__dependent_typeINS_27__unique_ptr_deleter_sfinaeIS3_EEXT_EE20__good_rval_ref_typeE
-------- W _ZNSt3__210unique_ptrIiPFvPvEED2Ev
-------- W _ZNSt3__210unique_ptrIjPFvPvEE11get_deleterEv
-------- W _ZNSt3__210unique_ptrIjPFvPvEE5resetEPj
-------- W _ZNSt3__210unique_ptrIjPFvPvEE7releaseEv
-------- W _ZNSt3__210unique_ptrIjPFvPvEEC2ILb1EvEEPjNS_16__dependent_typeINS_27__unique_ptr_deleter_sfinaeIS3_EEXT_EE20__good_rval_ref_typeE
-------- W _ZNSt3__210unique_ptrIjPFvPvEED2Ev
-------- W _ZNSt3__210unique_ptrIjPFvPvEEaSEOS4_
-------- W _ZNSt3__210unique_ptrIlPFvPvEE5resetEPl
-------- W _ZNSt3__210unique_ptrIlPFvPvEE7releaseEv
-------- W _ZNSt3__210unique_ptrIlPFvPvEEC2ILb1EvEEPlNS_16__dependent_typeINS_27__unique_ptr_deleter_sfinaeIS3_EEXT_EE20__good_rval_ref_typeE
-------- W _ZNSt3__210unique_ptrIlPFvPvEED2Ev
-------- W _ZNSt3__210unique_ptrIwPFvPvEE11get_deleterEv
-------- W _ZNSt3__210unique_ptrIwPFvPvEE5resetEPw
-------- W _ZNSt3__210unique_ptrIwPFvPvEE7releaseEv
-------- W _ZNSt3__210unique_ptrIwPFvPvEEC2ILb1EvEEPwNS_16__dependent_typeINS_27__unique_ptr_deleter_sfinaeIS3_EEXT_EE20__good_rval_ref_typeE
-------- W _ZNSt3__210unique_ptrIwPFvPvEED2Ev
-------- W _ZNSt3__210unique_ptrIwPFvPvEEaSEOS4_
-------- T _ZNSt3__211__call_onceERVmPvPFvS2_E
-------- W _ZNSt3__211__do_strtodIdEET_PKcPPc
-------- W _ZNSt3__211__do_strtodIeEET_PKcPPc
-------- W _ZNSt3__211__do_strtodIfEET_PKcPPc
-------- T _ZNSt3__211__libcpp_db10__insert_cEPv
-------- T _ZNSt3__211__libcpp_db10__insert_iEPv
-------- T _ZNSt3__211__libcpp_db11__insert_icEPvPKv
-------- T _ZNSt3__211__libcpp_db15__iterator_copyEPvPKv
-------- T _ZNSt3__211__libcpp_db16__invalidate_allEPv
-------- T _ZNSt3__211__libcpp_db17__insert_iteratorEPv
-------- T _ZNSt3__211__libcpp_db4swapEPvS1_
-------- T _ZNSt3__211__libcpp_db9__erase_cEPv
-------- T _ZNSt3__211__libcpp_db9__erase_iEPv
-------- T _ZNSt3__211__libcpp_dbC1Ev
-------- T _ZNSt3__211__libcpp_dbC2Ev
-------- T _ZNSt3__211__libcpp_dbD1Ev
-------- T _ZNSt3__211__libcpp_dbD2Ev
-------- W _ZNSt3__211__money_getIcE13__gather_infoEbRKNS_6localeERNS_10money_base7patternERcS8_RNS_12basic_stringIcNS_11char_traitsIcEENS_9allocatorIcEEEESF_SF_SF_Ri
-------- W _ZNSt3__211__money_getIcEC2Ev
-------- W _ZNSt3__211__money_getIwE13__gather_infoEbRKNS_6localeERNS_10money_base7patternERwS8_RNS_12basic_stringIcNS_11char_traitsIcEENS_9allocatorIcEEEERNS9_IwNSA_IwEENSC_IwEEEESJ_SJ_Ri
-------- W _ZNSt3__211__money_getIwEC2Ev
-------- W _ZNSt3__211__money_putIcE13__gather_infoEbbRKNS_6localeERNS_10money_base7patternERcS8_RNS_12basic_stringIcNS_11char_traitsIcEENS_9allocatorIcEEEESF_SF_Ri
-------- W _ZNSt3__211__money_putIcE8__formatEPcRS2_S3_jPKcS5_RKNS_5ctypeIcEEbRKNS_10money_base7patternEccRKNS_12basic_stringIcNS_11char_traitsIcEENS_9allocatorIcEEEESL_SL_i
-------- W _ZNSt3__211__money_putIcEC2Ev
-------- W _ZNSt3__211__money_putIwE13__gather_infoEbbRKNS_6localeERNS_10money_base7patternERwS8_RNS_12basic_stringIcNS_11char_traitsIcEENS_9allocatorIcEEEERNS9_IwNSA_IwEENSC_IwEEEESJ_Ri
-------- W _ZNSt3__211__money_putIwE8__formatEPwRS2_S3_jPKwS5_RKNS_5ctypeIwEEbRKNS_10money_base7patternEwwRKNS_12basic_stringIcNS_11char_traitsIcEENS_9allocatorIcEEEERKNSE_IwNSF_IwEENSH_IwEEEESQ_i
-------- W _ZNSt3__211__money_putIwEC2Ev
-------- W _ZNSt3__211__stdoutbufIcE4syncEv
-------- W _ZNSt3__211__stdoutbufIcE5imbueERKNS_6localeE
-------- W _ZNSt3__211__stdoutbufIcE6xsputnEPKcl
-------- W _ZNSt3__211__stdoutbufIcE8overflowEi
-------- W _ZNSt3__211__stdoutbufIcEC2EP8_IO_FILEP11__mbstate_t
-------- W _ZNSt3__211__stdoutbufIcED0Ev
-------- W _ZNSt3__211__stdoutbufIwE4syncEv
-------- W _ZNSt3__211__stdoutbufIwE5imbueERKNS_6localeE
-------- W _ZNSt3__211__stdoutbufIwE6xsputnEPKwl
-------- W _ZNSt3__211__stdoutbufIwE8overflowEj
-------- W _ZNSt3__211__stdoutbufIwEC2EP8_IO_FILEP11__mbstate_t
-------- W _ZNSt3__211__stdoutbufIwED0Ev
-------- W _ZNSt3__211__str_rfindIcmNS_11char_traitsIcEELm4294967295EEET0_PKT_S3_S4_S3_
-------- W _ZNSt3__211__str_rfindIcmNS_11char_traitsIcEELm4294967295EEET0_PKT_S3_S6_S3_S3_
-------- W _ZNSt3__211__str_rfindIwmNS_11char_traitsIwEELm4294967295EEET0_PKT_S3_S4_S3_
-------- W _ZNSt3__211__str_rfindIwmNS_11char_traitsIwEELm4294967295EEET0_PKT_S3_S6_S3_S3_
-------- W _ZNSt3__211__wrap_iterIPKcEC2ES2_
-------- W _ZNSt3__211__wrap_iterIPKcEC2IPcEERKNS0_IT_EEPNS_9enable_ifIXsr14is_convertibleIS6_S2_EE5valueEvE4typeE
-------- W _ZNSt3__211__wrap_iterIPKcEpLEl
-------- W _ZNSt3__211__wrap_iterIPKcEppEv
-------- W _ZNSt3__211__wrap_iterIPKwEC2ES2_
-------- W _ZNSt3__211__wrap_iterIPKwEC2IPwEERKNS0_IT_EEPNS_9enable_ifIXsr14is_convertibleIS6_S2_EE5valueEvE4typeE
-------- W _ZNSt3__211__wrap_iterIPKwEpLEl
-------- W _ZNSt3__211__wrap_iterIPKwEppEv
-------- W _ZNSt3__211__wrap_iterIPNS_17basic_string_viewIcNS_11char_traitsIcEEEEEC2ES5_
-------- W _ZNSt3__211__wrap_iterIPNS_17basic_string_viewIcNS_11char_traitsIcEEEEEmmEv
-------- W _ZNSt3__211__wrap_iterIPNS_4pairINS_17basic_string_viewIcNS_11char_traitsIcEEEENS_4__fs10filesystem12PathPartKindEEEEC2ESA_
-------- W _ZNSt3__211__wrap_iterIPNS_4pairINS_17basic_string_viewIcNS_11char_traitsIcEEEENS_4__fs10filesystem12PathPartKindEEEEppEv
-------- W _ZNSt3__211__wrap_iterIPNS_4pairIPNS_18condition_variableEPNS_5mutexEEEEC2ES7_
-------- W _ZNSt3__211__wrap_iterIPNS_4pairIPNS_18condition_variableEPNS_5mutexEEEEppEv
-------- W _ZNSt3__211__wrap_iterIPPNS_17__assoc_sub_stateEEC2ES3_
-------- W _ZNSt3__211__wrap_iterIPPNS_17__assoc_sub_stateEEppEv
-------- W _ZNSt3__211__wrap_iterIPcEC2ES1_
-------- W _ZNSt3__211__wrap_iterIPcEmmEv
-------- W _ZNSt3__211__wrap_iterIPcEpLEl
-------- W _ZNSt3__211__wrap_iterIPcEppEv
-------- W _ZNSt3__211__wrap_iterIPwEC2ES1_
-------- W _ZNSt3__211__wrap_iterIPwEmmEv
-------- W _ZNSt3__211__wrap_iterIPwEpLEl
-------- W _ZNSt3__211__wrap_iterIPwEppEv
-------- W _ZNSt3__211char_traitsIcE11eq_int_typeEii
-------- W _ZNSt3__211char_traitsIcE11to_int_typeEc
-------- W _ZNSt3__211char_traitsIcE12to_char_typeEi
-------- W _ZNSt3__211char_traitsIcE2eqEcc
-------- W _ZNSt3__211char_traitsIcE3eofEv
-------- W _ZNSt3__211char_traitsIcE4copyEPcPKcm
-------- W _ZNSt3__211char_traitsIcE4findEPKcmRS2_
-------- W _ZNSt3__211char_traitsIcE4moveEPcPKcm
-------- W _ZNSt3__211char_traitsIcE6assignEPcmc
-------- W _ZNSt3__211char_traitsIcE6assignERcRKc
-------- W _ZNSt3__211char_traitsIcE6lengthEPKc
-------- W _ZNSt3__211char_traitsIcE7compareEPKcS3_m
-------- W _ZNSt3__211char_traitsIcE7not_eofEi
-------- W _ZNSt3__211char_traitsIwE11eq_int_typeEjj
-------- W _ZNSt3__211char_traitsIwE11to_int_typeEw
-------- W _ZNSt3__211char_traitsIwE12to_char_typeEj
-------- W _ZNSt3__211char_traitsIwE2eqEww
-------- W _ZNSt3__211char_traitsIwE3eofEv
-------- W _ZNSt3__211char_traitsIwE4copyEPwPKwm
-------- W _ZNSt3__211char_traitsIwE4findEPKwmRS2_
-------- W _ZNSt3__211char_traitsIwE4moveEPwPKwm
-------- W _ZNSt3__211char_traitsIwE6assignEPwmw
-------- W _ZNSt3__211char_traitsIwE6assignERwRKw
-------- W _ZNSt3__211char_traitsIwE6lengthEPKw
-------- W _ZNSt3__211char_traitsIwE7compareEPKwS3_m
-------- W _ZNSt3__211char_traitsIwE7not_eofEj
-------- W _ZNSt3__211lower_boundIPKjmEET_S3_S3_RKT0_
-------- W _ZNSt3__211lower_boundIPKjmNS_6__lessIjmEEEET_S5_S5_RKT0_T1_
-------- W _ZNSt3__211make_sharedINS_4__fs10filesystem12__dir_streamEJRKNS2_4pathERNS2_17directory_optionsERNS_10error_codeEEEENS_9enable_ifIXntsr8is_arrayIT_EE5valueENS_10shared_ptrISC_EEE4typeEDpOT0_
-------- W _ZNSt3__211make_sharedINS_4__fs10filesystem28recursive_directory_iterator12__shared_impEJEEENS_9enable_ifIXntsr8is_arrayIT_EE5valueENS_10shared_ptrIS6_EEE4typeEDpOT0_
-------- T _ZNSt3__211regex_errorC1ENS_15regex_constants10error_typeE
-------- T _ZNSt3__211regex_errorC2ENS_15regex_constants10error_typeE
-------- T _ZNSt3__211regex_errorD0Ev
-------- T _ZNSt3__211regex_errorD1Ev
-------- T _ZNSt3__211regex_errorD2Ev
-------- W _ZNSt3__211swap_rangesINS_11__wrap_iterIPcEES3_EET0_T_S5_S4_
-------- W _ZNSt3__211swap_rangesINS_11__wrap_iterIPwEES3_EET0_T_S5_S4_
-------- W _ZNSt3__211this_thread5yieldEv
-------- T _ZNSt3__211this_thread9sleep_forERKNS_6chrono8durationIxNS_5ratioILx1ELx1000000000EEEEE
-------- T _ZNSt3__211timed_mutex4lockEv
-------- T _ZNSt3__211timed_mutex6unlockEv
-------- T _ZNSt3__211timed_mutex8try_lockEv
-------- T _ZNSt3__211timed_mutexC1Ev
-------- T _ZNSt3__211timed_mutexC2Ev
-------- T _ZNSt3__211timed_mutexD1Ev
-------- T _ZNSt3__211timed_mutexD2Ev
-------- D _ZNSt3__211try_to_lockE
-------- W _ZNSt3__211unique_lockINS_5mutexEE6unlockEv
-------- W _ZNSt3__211unique_lockINS_5mutexEE7releaseEv
-------- W _ZNSt3__211unique_lockINS_5mutexEEC2ERS1_
-------- W _ZNSt3__211unique_lockINS_5mutexEEC2ERS1_NS_13try_to_lock_tE
-------- W _ZNSt3__211unique_lockINS_5mutexEED2Ev
-------- W _ZNSt3__212__deque_baseINS_4__fs10filesystem12__dir_streamENS_9allocatorIS3_EEE3endEv
-------- W _ZNSt3__212__deque_baseINS_4__fs10filesystem12__dir_streamENS_9allocatorIS3_EEE4sizeEv
-------- W _ZNSt3__212__deque_baseINS_4__fs10filesystem12__dir_streamENS_9allocatorIS3_EEE5beginEv
-------- W _ZNSt3__212__deque_baseINS_4__fs10filesystem12__dir_streamENS_9allocatorIS3_EEE5clearEv
-------- W _ZNSt3__212__deque_baseINS_4__fs10filesystem12__dir_streamENS_9allocatorIS3_EEE7__allocEv
-------- W _ZNSt3__212__deque_baseINS_4__fs10filesystem12__dir_streamENS_9allocatorIS3_EEEC2Ev
-------- W _ZNSt3__212__deque_baseINS_4__fs10filesystem12__dir_streamENS_9allocatorIS3_EEED2Ev
-------- W _ZNSt3__212__do_messageD0Ev
-------- T _ZNSt3__212__do_nothingEPv
-------- T _ZNSt3__212__get_sp_mutEPKv
-------- T _ZNSt3__212__next_primeEm
-------- W _ZNSt3__212__rotate_gcdINS_11__wrap_iterIPcEEEET_S4_S4_S4_
-------- W _ZNSt3__212__rotate_gcdINS_11__wrap_iterIPwEEEET_S4_S4_S4_
-------- D _ZNSt3__212__rs_default4__c_E
-------- T _ZNSt3__212__rs_defaultC1ERKS0_
-------- T _ZNSt3__212__rs_defaultC1Ev
-------- T _ZNSt3__212__rs_defaultC2ERKS0_
-------- T _ZNSt3__212__rs_defaultC2Ev
-------- T _ZNSt3__212__rs_defaultD1Ev
-------- T _ZNSt3__212__rs_defaultD2Ev
-------- T _ZNSt3__212__rs_defaultclEv
-------- W _ZNSt3__212__tuple_implINS_15__tuple_indicesIJLm0EEEEJRNS_9allocatorINS_4__fs10filesystem12__dir_streamEEEEEC2IJLm0EEJS8_EJEJEJS8_EEENS1_IJXspT_EEEENS_13__tuple_typesIJDpT0_EEENS1_IJXspT1_EEEENSC_IJDpT2_EEEDpOT3_
-------- W _ZNSt3__212__tuple_implINS_15__tuple_indicesIJLm0ELm1ELm2EEEEJRKNS_4__fs10filesystem4pathERNS4_17directory_optionsERNS_10error_codeEEEC2IJLm0ELm1ELm2EEJS7_S9_SB_EJEJEJS7_S9_SB_EEENS1_IJXspT_EEEENS_13__tuple_typesIJDpT0_EEENS1_IJXspT1_EEEENSF_IJDpT2_EEEDpOT3_
-------- W _ZNSt3__212__tuple_leafILm0ERKNS_4__fs10filesystem4pathELb0EE3getEv
-------- W _ZNSt3__212__tuple_leafILm0ERKNS_4__fs10filesystem4pathELb0EEC2IS5_vEEOT_
-------- W _ZNSt3__212__tuple_leafILm0ERNS_9allocatorINS_4__fs10filesystem12__dir_streamEEELb0EE3getEv
-------- W _ZNSt3__212__tuple_leafILm0ERNS_9allocatorINS_4__fs10filesystem12__dir_streamEEELb0EEC2IS6_vEEOT_
-------- W _ZNSt3__212__tuple_leafILm1ERNS_4__fs10filesystem17directory_optionsELb0EE3getEv
-------- W _ZNSt3__212__tuple_leafILm1ERNS_4__fs10filesystem17directory_optionsELb0EEC2IS4_vEEOT_
-------- W _ZNSt3__212__tuple_leafILm2ERNS_10error_codeELb0EE3getEv
-------- W _ZNSt3__212__tuple_leafILm2ERNS_10error_codeELb0EEC2IS2_vEEOT_
-------- T _ZNSt3__212bad_weak_ptrD0Ev
-------- T _ZNSt3__212bad_weak_ptrD1Ev
-------- T _ZNSt3__212bad_weak_ptrD2Ev
-------- W _ZNSt3__212basic_stringIcNS_11char_traitsIcEENS_9allocatorIcEEE10__align_itILm16EEEmm
-------- W _ZNSt3__212basic_stringIcNS_11char_traitsIcEENS_9allocatorIcEEE10__set_sizeEm
-------- W _ZNSt3__212basic_stringIcNS_11char_traitsIcEENS_9allocatorIcEEE11__recommendEm
-------- W _ZNSt3__212basic_stringIcNS_11char_traitsIcEENS_9allocatorIcEEE13__get_pointerEv
-------- W _ZNSt3__212basic_stringIcNS_11char_traitsIcEENS_9allocatorIcEEE13__move_assignERS5_NS_17integral_constantIbLb1EEE
-------- W _ZNSt3__212basic_stringIcNS_11char_traitsIcEENS_9allocatorIcEEE14__erase_to_endEm
-------- W _ZNSt3__212basic_stringIcNS_11char_traitsIcEENS_9allocatorIcEEE14__set_long_capEm
-------- W _ZNSt3__212basic_stringIcNS_11char_traitsIcEENS_9allocatorIcEEE15__set_long_sizeEm
-------- W _ZNSt3__212basic_stringIcNS_11char_traitsIcEENS_9allocatorIcEEE16__set_short_sizeEm
-------- W _ZNSt3__212basic_stringIcNS_11char_traitsIcEENS_9allocatorIcEEE18__clear_and_shrinkEv
-------- W _ZNSt3__212basic_stringIcNS_11char_traitsIcEENS_9allocatorIcEEE18__get_long_pointerEv
-------- W _ZNSt3__212basic_stringIcNS_11char_traitsIcEENS_9allocatorIcEEE18__set_long_pointerEPc
-------- W _ZNSt3__212basic_stringIcNS_11char_traitsIcEENS_9allocatorIcEEE19__copy_assign_allocERKS5_
-------- W _ZNSt3__212basic_stringIcNS_11char_traitsIcEENS_9allocatorIcEEE19__copy_assign_allocERKS5_NS_17integral_constantIbLb0EEE
-------- W _ZNSt3__212basic_stringIcNS_11char_traitsIcEENS_9allocatorIcEEE19__get_short_pointerEv
-------- W _ZNSt3__212basic_stringIcNS_11char_traitsIcEENS_9allocatorIcEEE19__move_assign_allocERS5_
-------- W _ZNSt3__212basic_stringIcNS_11char_traitsIcEENS_9allocatorIcEEE19__move_assign_allocERS5_NS_17integral_constantIbLb1EEE
-------- W _ZNSt3__212basic_stringIcNS_11char_traitsIcEENS_9allocatorIcEEE21__append_default_initEm
-------- W _ZNSt3__212basic_stringIcNS_11char_traitsIcEENS_9allocatorIcEEE21__grow_by_and_replaceEmmmmmmPKc
-------- W _ZNSt3__212basic_stringIcNS_11char_traitsIcEENS_9allocatorIcEEE21__resize_default_initEm
-------- W _ZNSt3__212basic_stringIcNS_11char_traitsIcEENS_9allocatorIcEEE23__append_forward_unsafeIPKcEERS5_T_SA_
-------- W _ZNSt3__212basic_stringIcNS_11char_traitsIcEENS_9allocatorIcEEE23__append_forward_unsafeIPcEERS5_T_S9_
-------- W _ZNSt3__212basic_stringIcNS_11char_traitsIcEENS_9allocatorIcEEE26__invalidate_all_iteratorsEv
-------- W _ZNSt3__212basic_stringIcNS_11char_traitsIcEENS_9allocatorIcEEE27__invalidate_iterators_pastEm
-------- W _ZNSt3__212basic_stringIcNS_11char_traitsIcEENS_9allocatorIcEEE2atEm
-------- W _ZNSt3__212basic_stringIcNS_11char_traitsIcEENS_9allocatorIcEEE3endEv
-------- W _ZNSt3__212basic_stringIcNS_11char_traitsIcEENS_9allocatorIcEEE4backEv
-------- W _ZNSt3__212basic_stringIcNS_11char_traitsIcEENS_9allocatorIcEEE4dataEv
-------- W _ZNSt3__212basic_stringIcNS_11char_traitsIcEENS_9allocatorIcEEE4nposE
-------- W _ZNSt3__212basic_stringIcNS_11char_traitsIcEENS_9allocatorIcEEE5beginEv
-------- W _ZNSt3__212basic_stringIcNS_11char_traitsIcEENS_9allocatorIcEEE5clearEv
-------- W _ZNSt3__212basic_stringIcNS_11char_traitsIcEENS_9allocatorIcEEE5eraseENS_11__wrap_iterIPKcEE
-------- W _ZNSt3__212basic_stringIcNS_11char_traitsIcEENS_9allocatorIcEEE5eraseEmm
-------- W _ZNSt3__212basic_stringIcNS_11char_traitsIcEENS_9allocatorIcEEE6__initEPKcm
-------- W _ZNSt3__212basic_stringIcNS_11char_traitsIcEENS_9allocatorIcEEE6__initEPKcmm
-------- W _ZNSt3__212basic_stringIcNS_11char_traitsIcEENS_9allocatorIcEEE6__initEmc
-------- W _ZNSt3__212basic_stringIcNS_11char_traitsIcEENS_9allocatorIcEEE6__initIPKcEENS_9enable_ifIXsr21__is_forward_iteratorIT_EE5valueEvE4typeESA_SA_
-------- W _ZNSt3__212basic_stringIcNS_11char_traitsIcEENS_9allocatorIcEEE6__initIPcEENS_9enable_ifIXsr21__is_forward_iteratorIT_EE5valueEvE4typeES9_S9_
-------- W _ZNSt3__212basic_stringIcNS_11char_traitsIcEENS_9allocatorIcEEE6__zeroEv
-------- W _ZNSt3__212basic_stringIcNS_11char_traitsIcEENS_9allocatorIcEEE6appendEPKc
-------- W _ZNSt3__212basic_stringIcNS_11char_traitsIcEENS_9allocatorIcEEE6appendEPKcm
-------- W _ZNSt3__212basic_stringIcNS_11char_traitsIcEENS_9allocatorIcEEE6appendERKS5_
-------- W _ZNSt3__212basic_stringIcNS_11char_traitsIcEENS_9allocatorIcEEE6appendERKS5_mm
-------- W _ZNSt3__212basic_stringIcNS_11char_traitsIcEENS_9allocatorIcEEE6appendEmc
-------- W _ZNSt3__212basic_stringIcNS_11char_traitsIcEENS_9allocatorIcEEE6appendIPcEENS_9enable_ifIXaasr21__is_forward_iteratorIT_EE5valuesr38__libcpp_string_gets_noexcept_iteratorIS9_EE5valueERS5_E4typeES9_S9_
-------- W _ZNSt3__212basic_stringIcNS_11char_traitsIcEENS_9allocatorIcEEE6assignEPKc
-------- W _ZNSt3__212basic_stringIcNS_11char_traitsIcEENS_9allocatorIcEEE6assignEPKcm
-------- W _ZNSt3__212basic_stringIcNS_11char_traitsIcEENS_9allocatorIcEEE6assignERKS5_mm
-------- W _ZNSt3__212basic_stringIcNS_11char_traitsIcEENS_9allocatorIcEEE6assignEmc
-------- W _ZNSt3__212basic_stringIcNS_11char_traitsIcEENS_9allocatorIcEEE6insertENS_11__wrap_iterIPKcEEc
-------- W _ZNSt3__212basic_stringIcNS_11char_traitsIcEENS_9allocatorIcEEE6insertEmPKc
-------- W _ZNSt3__212basic_stringIcNS_11char_traitsIcEENS_9allocatorIcEEE6insertEmPKcm
-------- W _ZNSt3__212basic_stringIcNS_11char_traitsIcEENS_9allocatorIcEEE6insertEmRKS5_mm
-------- W _ZNSt3__212basic_stringIcNS_11char_traitsIcEENS_9allocatorIcEEE6insertEmmc
-------- W _ZNSt3__212basic_stringIcNS_11char_traitsIcEENS_9allocatorIcEEE6resizeEm
-------- W _ZNSt3__212basic_stringIcNS_11char_traitsIcEENS_9allocatorIcEEE6resizeEmc
-------- W _ZNSt3__212basic_stringIcNS_11char_traitsIcEENS_9allocatorIcEEE7__allocEv
-------- W _ZNSt3__212basic_stringIcNS_11char_traitsIcEENS_9allocatorIcEEE7replaceEmmPKc
-------- W _ZNSt3__212basic_stringIcNS_11char_traitsIcEENS_9allocatorIcEEE7replaceEmmPKcm
-------- W _ZNSt3__212basic_stringIcNS_11char_traitsIcEENS_9allocatorIcEEE7replaceEmmRKS5_mm
-------- W _ZNSt3__212basic_stringIcNS_11char_traitsIcEENS_9allocatorIcEEE7replaceEmmmc
-------- W _ZNSt3__212basic_stringIcNS_11char_traitsIcEENS_9allocatorIcEEE7reserveEm
-------- W _ZNSt3__212basic_stringIcNS_11char_traitsIcEENS_9allocatorIcEEE8pop_backEv
-------- W _ZNSt3__212basic_stringIcNS_11char_traitsIcEENS_9allocatorIcEEE9__grow_byEmmmmmm
-------- W _ZNSt3__212basic_stringIcNS_11char_traitsIcEENS_9allocatorIcEEE9push_backEc
-------- W _ZNSt3__212basic_stringIcNS_11char_traitsIcEENS_9allocatorIcEEEC1ERKS5_
-------- W _ZNSt3__212basic_stringIcNS_11char_traitsIcEENS_9allocatorIcEEEC1ERKS5_RKS4_
-------- W _ZNSt3__212basic_stringIcNS_11char_traitsIcEENS_9allocatorIcEEEC1ERKS5_mmRKS4_
-------- W _ZNSt3__212basic_stringIcNS_11char_traitsIcEENS_9allocatorIcEEEC2EOS5_
-------- W _ZNSt3__212basic_stringIcNS_11char_traitsIcEENS_9allocatorIcEEEC2EPKc
-------- W _ZNSt3__212basic_stringIcNS_11char_traitsIcEENS_9allocatorIcEEEC2ERKS4_
-------- W _ZNSt3__212basic_stringIcNS_11char_traitsIcEENS_9allocatorIcEEEC2ERKS5_
-------- W _ZNSt3__212basic_stringIcNS_11char_traitsIcEENS_9allocatorIcEEEC2ERKS5_RKS4_
-------- W _ZNSt3__212basic_stringIcNS_11char_traitsIcEENS_9allocatorIcEEEC2ERKS5_mmRKS4_
-------- W _ZNSt3__212basic_stringIcNS_11char_traitsIcEENS_9allocatorIcEEEC2Emc
-------- W _ZNSt3__212basic_stringIcNS_11char_traitsIcEENS_9allocatorIcEEEC2Ev
-------- W _ZNSt3__212basic_stringIcNS_11char_traitsIcEENS_9allocatorIcEEEC2INS_17basic_string_viewIcS2_EEvEERKT_
-------- W _ZNSt3__212basic_stringIcNS_11char_traitsIcEENS_9allocatorIcEEEC2IPKcEET_S9_
-------- W _ZNSt3__212basic_stringIcNS_11char_traitsIcEENS_9allocatorIcEEEC2IPKcEET_S9_RKS4_
-------- W _ZNSt3__212basic_stringIcNS_11char_traitsIcEENS_9allocatorIcEEEC2IPcEET_S8_RKS4_
-------- W _ZNSt3__212basic_stringIcNS_11char_traitsIcEENS_9allocatorIcEEED1Ev
-------- W _ZNSt3__212basic_stringIcNS_11char_traitsIcEENS_9allocatorIcEEED2Ev
-------- W _ZNSt3__212basic_stringIcNS_11char_traitsIcEENS_9allocatorIcEEEaSEOS5_
-------- W _ZNSt3__212basic_stringIcNS_11char_traitsIcEENS_9allocatorIcEEEaSEPKc
-------- W _ZNSt3__212basic_stringIcNS_11char_traitsIcEENS_9allocatorIcEEEaSERKS5_
-------- W _ZNSt3__212basic_stringIcNS_11char_traitsIcEENS_9allocatorIcEEEaSEc
-------- W _ZNSt3__212basic_stringIcNS_11char_traitsIcEENS_9allocatorIcEEEixEm
-------- W _ZNSt3__212basic_stringIcNS_11char_traitsIcEENS_9allocatorIcEEEpLEPKc
-------- W _ZNSt3__212basic_stringIcNS_11char_traitsIcEENS_9allocatorIcEEEpLERKS5_
-------- W _ZNSt3__212basic_stringIcNS_11char_traitsIcEENS_9allocatorIcEEEpLEc
-------- W _ZNSt3__212basic_stringIwNS_11char_traitsIwEENS_9allocatorIwEEE10__align_itILm4EEEmm
-------- W _ZNSt3__212basic_stringIwNS_11char_traitsIwEENS_9allocatorIwEEE10__set_sizeEm
-------- W _ZNSt3__212basic_stringIwNS_11char_traitsIwEENS_9allocatorIwEEE11__recommendEm
-------- W _ZNSt3__212basic_stringIwNS_11char_traitsIwEENS_9allocatorIwEEE13__get_pointerEv
-------- W _ZNSt3__212basic_stringIwNS_11char_traitsIwEENS_9allocatorIwEEE13__move_assignERS5_NS_17integral_constantIbLb1EEE
-------- W _ZNSt3__212basic_stringIwNS_11char_traitsIwEENS_9allocatorIwEEE14__erase_to_endEm
-------- W _ZNSt3__212basic_stringIwNS_11char_traitsIwEENS_9allocatorIwEEE14__set_long_capEm
-------- W _ZNSt3__212basic_stringIwNS_11char_traitsIwEENS_9allocatorIwEEE15__set_long_sizeEm
-------- W _ZNSt3__212basic_stringIwNS_11char_traitsIwEENS_9allocatorIwEEE16__set_short_sizeEm
-------- W _ZNSt3__212basic_stringIwNS_11char_traitsIwEENS_9allocatorIwEEE18__clear_and_shrinkEv
-------- W _ZNSt3__212basic_stringIwNS_11char_traitsIwEENS_9allocatorIwEEE18__get_long_pointerEv
-------- W _ZNSt3__212basic_stringIwNS_11char_traitsIwEENS_9allocatorIwEEE18__set_long_pointerEPw
-------- W _ZNSt3__212basic_stringIwNS_11char_traitsIwEENS_9allocatorIwEEE19__copy_assign_allocERKS5_
-------- W _ZNSt3__212basic_stringIwNS_11char_traitsIwEENS_9allocatorIwEEE19__copy_assign_allocERKS5_NS_17integral_constantIbLb0EEE
-------- W _ZNSt3__212basic_stringIwNS_11char_traitsIwEENS_9allocatorIwEEE19__get_short_pointerEv
-------- W _ZNSt3__212basic_stringIwNS_11char_traitsIwEENS_9allocatorIwEEE19__move_assign_allocERS5_
-------- W _ZNSt3__212basic_stringIwNS_11char_traitsIwEENS_9allocatorIwEEE19__move_assign_allocERS5_NS_17integral_constantIbLb1EEE
-------- W _ZNSt3__212basic_stringIwNS_11char_traitsIwEENS_9allocatorIwEEE21__grow_by_and_replaceEmmmmmmPKw
-------- W _ZNSt3__212basic_stringIwNS_11char_traitsIwEENS_9allocatorIwEEE23__append_forward_unsafeIPwEERS5_T_S9_
-------- W _ZNSt3__212basic_stringIwNS_11char_traitsIwEENS_9allocatorIwEEE26__invalidate_all_iteratorsEv
-------- W _ZNSt3__212basic_stringIwNS_11char_traitsIwEENS_9allocatorIwEEE27__invalidate_iterators_pastEm
-------- W _ZNSt3__212basic_stringIwNS_11char_traitsIwEENS_9allocatorIwEEE2atEm
-------- W _ZNSt3__212basic_stringIwNS_11char_traitsIwEENS_9allocatorIwEEE3endEv
-------- W _ZNSt3__212basic_stringIwNS_11char_traitsIwEENS_9allocatorIwEEE4backEv
-------- W _ZNSt3__212basic_stringIwNS_11char_traitsIwEENS_9allocatorIwEEE4dataEv
-------- W _ZNSt3__212basic_stringIwNS_11char_traitsIwEENS_9allocatorIwEEE4nposE
-------- W _ZNSt3__212basic_stringIwNS_11char_traitsIwEENS_9allocatorIwEEE5beginEv
-------- W _ZNSt3__212basic_stringIwNS_11char_traitsIwEENS_9allocatorIwEEE5clearEv
-------- W _ZNSt3__212basic_stringIwNS_11char_traitsIwEENS_9allocatorIwEEE5eraseENS_11__wrap_iterIPKwEE
-------- W _ZNSt3__212basic_stringIwNS_11char_traitsIwEENS_9allocatorIwEEE5eraseEmm
-------- W _ZNSt3__212basic_stringIwNS_11char_traitsIwEENS_9allocatorIwEEE6__initEPKwm
-------- W _ZNSt3__212basic_stringIwNS_11char_traitsIwEENS_9allocatorIwEEE6__initEPKwmm
-------- W _ZNSt3__212basic_stringIwNS_11char_traitsIwEENS_9allocatorIwEEE6__initEmw
-------- W _ZNSt3__212basic_stringIwNS_11char_traitsIwEENS_9allocatorIwEEE6__initIPKwEENS_9enable_ifIXsr21__is_forward_iteratorIT_EE5valueEvE4typeESA_SA_
-------- W _ZNSt3__212basic_stringIwNS_11char_traitsIwEENS_9allocatorIwEEE6__initIPwEENS_9enable_ifIXsr21__is_forward_iteratorIT_EE5valueEvE4typeES9_S9_
-------- W _ZNSt3__212basic_stringIwNS_11char_traitsIwEENS_9allocatorIwEEE6__zeroEv
-------- W _ZNSt3__212basic_stringIwNS_11char_traitsIwEENS_9allocatorIwEEE6appendEPKw
-------- W _ZNSt3__212basic_stringIwNS_11char_traitsIwEENS_9allocatorIwEEE6appendEPKwm
-------- W _ZNSt3__212basic_stringIwNS_11char_traitsIwEENS_9allocatorIwEEE6appendERKS5_mm
-------- W _ZNSt3__212basic_stringIwNS_11char_traitsIwEENS_9allocatorIwEEE6appendEmw
-------- W _ZNSt3__212basic_stringIwNS_11char_traitsIwEENS_9allocatorIwEEE6appendIPwEENS_9enable_ifIXaasr21__is_forward_iteratorIT_EE5valuesr38__libcpp_string_gets_noexcept_iteratorIS9_EE5valueERS5_E4typeES9_S9_
-------- W _ZNSt3__212basic_stringIwNS_11char_traitsIwEENS_9allocatorIwEEE6assignEPKw
-------- W _ZNSt3__212basic_stringIwNS_11char_traitsIwEENS_9allocatorIwEEE6assignEPKwm
-------- W _ZNSt3__212basic_stringIwNS_11char_traitsIwEENS_9allocatorIwEEE6assignERKS5_mm
-------- W _ZNSt3__212basic_stringIwNS_11char_traitsIwEENS_9allocatorIwEEE6assignEmw
-------- W _ZNSt3__212basic_stringIwNS_11char_traitsIwEENS_9allocatorIwEEE6assignIPwEENS_9enable_ifIXaasr21__is_forward_iteratorIT_EE5valuesr38__libcpp_string_gets_noexcept_iteratorIS9_EE5valueERS5_E4typeES9_S9_
-------- W _ZNSt3__212basic_stringIwNS_11char_traitsIwEENS_9allocatorIwEEE6insertENS_11__wrap_iterIPKwEEw
-------- W _ZNSt3__212basic_stringIwNS_11char_traitsIwEENS_9allocatorIwEEE6insertEmPKw
-------- W _ZNSt3__212basic_stringIwNS_11char_traitsIwEENS_9allocatorIwEEE6insertEmPKwm
-------- W _ZNSt3__212basic_stringIwNS_11char_traitsIwEENS_9allocatorIwEEE6insertEmRKS5_mm
-------- W _ZNSt3__212basic_stringIwNS_11char_traitsIwEENS_9allocatorIwEEE6insertEmmw
-------- W _ZNSt3__212basic_stringIwNS_11char_traitsIwEENS_9allocatorIwEEE6resizeEm
-------- W _ZNSt3__212basic_stringIwNS_11char_traitsIwEENS_9allocatorIwEEE6resizeEmw
-------- W _ZNSt3__212basic_stringIwNS_11char_traitsIwEENS_9allocatorIwEEE7__allocEv
-------- W _ZNSt3__212basic_stringIwNS_11char_traitsIwEENS_9allocatorIwEEE7replaceEmmPKw
-------- W _ZNSt3__212basic_stringIwNS_11char_traitsIwEENS_9allocatorIwEEE7replaceEmmPKwm
-------- W _ZNSt3__212basic_stringIwNS_11char_traitsIwEENS_9allocatorIwEEE7replaceEmmRKS5_mm
-------- W _ZNSt3__212basic_stringIwNS_11char_traitsIwEENS_9allocatorIwEEE7replaceEmmmw
-------- W _ZNSt3__212basic_stringIwNS_11char_traitsIwEENS_9allocatorIwEEE7reserveEm
-------- W _ZNSt3__212basic_stringIwNS_11char_traitsIwEENS_9allocatorIwEEE8pop_backEv
-------- W _ZNSt3__212basic_stringIwNS_11char_traitsIwEENS_9allocatorIwEEE9__grow_byEmmmmmm
-------- W _ZNSt3__212basic_stringIwNS_11char_traitsIwEENS_9allocatorIwEEE9push_backEw
-------- W _ZNSt3__212basic_stringIwNS_11char_traitsIwEENS_9allocatorIwEEEC1ERKS5_
-------- W _ZNSt3__212basic_stringIwNS_11char_traitsIwEENS_9allocatorIwEEEC1ERKS5_RKS4_
-------- W _ZNSt3__212basic_stringIwNS_11char_traitsIwEENS_9allocatorIwEEEC1ERKS5_mmRKS4_
-------- W _ZNSt3__212basic_stringIwNS_11char_traitsIwEENS_9allocatorIwEEEC2EOS5_
-------- W _ZNSt3__212basic_stringIwNS_11char_traitsIwEENS_9allocatorIwEEEC2EPKw
-------- W _ZNSt3__212basic_stringIwNS_11char_traitsIwEENS_9allocatorIwEEEC2ERKS5_
-------- W _ZNSt3__212basic_stringIwNS_11char_traitsIwEENS_9allocatorIwEEEC2ERKS5_RKS4_
-------- W _ZNSt3__212basic_stringIwNS_11char_traitsIwEENS_9allocatorIwEEEC2ERKS5_mmRKS4_
-------- W _ZNSt3__212basic_stringIwNS_11char_traitsIwEENS_9allocatorIwEEEC2Emw
-------- W _ZNSt3__212basic_stringIwNS_11char_traitsIwEENS_9allocatorIwEEEC2Ev
-------- W _ZNSt3__212basic_stringIwNS_11char_traitsIwEENS_9allocatorIwEEEC2IPKwEET_S9_
-------- W _ZNSt3__212basic_stringIwNS_11char_traitsIwEENS_9allocatorIwEEEC2IPwEET_S8_RKS4_
-------- W _ZNSt3__212basic_stringIwNS_11char_traitsIwEENS_9allocatorIwEEED1Ev
-------- W _ZNSt3__212basic_stringIwNS_11char_traitsIwEENS_9allocatorIwEEED2Ev
-------- W _ZNSt3__212basic_stringIwNS_11char_traitsIwEENS_9allocatorIwEEEaSEOS5_
-------- W _ZNSt3__212basic_stringIwNS_11char_traitsIwEENS_9allocatorIwEEEaSEPKw
-------- W _ZNSt3__212basic_stringIwNS_11char_traitsIwEENS_9allocatorIwEEEaSERKS5_
-------- W _ZNSt3__212basic_stringIwNS_11char_traitsIwEENS_9allocatorIwEEEaSEw
-------- W _ZNSt3__212basic_stringIwNS_11char_traitsIwEENS_9allocatorIwEEEixEm
-------- W _ZNSt3__212codecvt_baseC2Ev
-------- T _ZNSt3__212ctype_bynameIcEC1EPKcm
-------- T _ZNSt3__212ctype_bynameIcEC1ERKNS_12basic_stringIcNS_11char_traitsIcEENS_9allocatorIcEEEEm
-------- T _ZNSt3__212ctype_bynameIcEC2EPKcm
-------- T _ZNSt3__212ctype_bynameIcEC2ERKNS_12basic_stringIcNS_11char_traitsIcEENS_9allocatorIcEEEEm
-------- T _ZNSt3__212ctype_bynameIcED0Ev
-------- T _ZNSt3__212ctype_bynameIcED1Ev
-------- T _ZNSt3__212ctype_bynameIcED2Ev
-------- T _ZNSt3__212ctype_bynameIwEC1EPKcm
-------- T _ZNSt3__212ctype_bynameIwEC1ERKNS_12basic_stringIcNS_11char_traitsIcEENS_9allocatorIcEEEEm
-------- T _ZNSt3__212ctype_bynameIwEC2EPKcm
-------- T _ZNSt3__212ctype_bynameIwEC2ERKNS_12basic_stringIcNS_11char_traitsIcEENS_9allocatorIcEEEEm
-------- T _ZNSt3__212ctype_bynameIwED0Ev
-------- T _ZNSt3__212ctype_bynameIwED1Ev
-------- T _ZNSt3__212ctype_bynameIwED2Ev
-------- T _ZNSt3__212future_errorC1ENS_10error_codeE
-------- T _ZNSt3__212future_errorC2ENS_10error_codeE
-------- T _ZNSt3__212future_errorD0Ev
-------- T _ZNSt3__212future_errorD1Ev
-------- T _ZNSt3__212future_errorD2Ev
-------- D _ZNSt3__212placeholders2_1E
-------- D _ZNSt3__212placeholders2_2E
-------- D _ZNSt3__212placeholders2_3E
-------- D _ZNSt3__212placeholders2_4E
-------- D _ZNSt3__212placeholders2_5E
-------- D _ZNSt3__212placeholders2_6E
-------- D _ZNSt3__212placeholders2_7E
-------- D _ZNSt3__212placeholders2_8E
-------- D _ZNSt3__212placeholders2_9E
-------- D _ZNSt3__212placeholders3_10E
-------- T _ZNSt3__212strstreambuf3strEv
-------- T _ZNSt3__212strstreambuf4swapERS0_
-------- T _ZNSt3__212strstreambuf6__initEPclS1_
-------- T _ZNSt3__212strstreambuf6freezeEb
-------- T _ZNSt3__212strstreambuf7seekoffExNS_8ios_base7seekdirEj
-------- T _ZNSt3__212strstreambuf7seekposENS_4fposI11__mbstate_tEEj
-------- T _ZNSt3__212strstreambuf8overflowEi
-------- T _ZNSt3__212strstreambuf9pbackfailEi
-------- T _ZNSt3__212strstreambuf9underflowEv
-------- T _ZNSt3__212strstreambufC1EPFPvmEPFvS1_E
-------- T _ZNSt3__212strstreambufC1EPKal
-------- T _ZNSt3__212strstreambufC1EPKcl
-------- T _ZNSt3__212strstreambufC1EPKhl
-------- T _ZNSt3__212strstreambufC1EPalS1_
-------- T _ZNSt3__212strstreambufC1EPclS1_
-------- T _ZNSt3__212strstreambufC1EPhlS1_
-------- T _ZNSt3__212strstreambufC1El
-------- T _ZNSt3__212strstreambufC2EPFPvmEPFvS1_E
-------- T _ZNSt3__212strstreambufC2EPKal
-------- T _ZNSt3__212strstreambufC2EPKcl
-------- T _ZNSt3__212strstreambufC2EPKhl
-------- T _ZNSt3__212strstreambufC2EPalS1_
-------- T _ZNSt3__212strstreambufC2EPclS1_
-------- T _ZNSt3__212strstreambufC2EPhlS1_
-------- T _ZNSt3__212strstreambufC2El
-------- T _ZNSt3__212strstreambufD0Ev
-------- T _ZNSt3__212strstreambufD1Ev
-------- T _ZNSt3__212strstreambufD2Ev
-------- T _ZNSt3__212system_error6__initERKNS_10error_codeENS_12basic_stringIcNS_11char_traitsIcEENS_9allocatorIcEEEE
-------- T _ZNSt3__212system_errorC1ENS_10error_codeE
-------- T _ZNSt3__212system_errorC1ENS_10error_codeEPKc
-------- T _ZNSt3__212system_errorC1ENS_10error_codeERKNS_12basic_stringIcNS_11char_traitsIcEENS_9allocatorIcEEEE
-------- T _ZNSt3__212system_errorC1EiRKNS_14error_categoryE
-------- T _ZNSt3__212system_errorC1EiRKNS_14error_categoryEPKc
-------- T _ZNSt3__212system_errorC1EiRKNS_14error_categoryERKNS_12basic_stringIcNS_11char_traitsIcEENS_9allocatorIcEEEE
-------- T _ZNSt3__212system_errorC2ENS_10error_codeE
-------- T _ZNSt3__212system_errorC2ENS_10error_codeEPKc
-------- T _ZNSt3__212system_errorC2ENS_10error_codeERKNS_12basic_stringIcNS_11char_traitsIcEENS_9allocatorIcEEEE
-------- T _ZNSt3__212system_errorC2EiRKNS_14error_categoryE
-------- T _ZNSt3__212system_errorC2EiRKNS_14error_categoryEPKc
-------- T _ZNSt3__212system_errorC2EiRKNS_14error_categoryERKNS_12basic_stringIcNS_11char_traitsIcEENS_9allocatorIcEEEE
-------- T _ZNSt3__212system_errorD0Ev
-------- T _ZNSt3__212system_errorD1Ev
-------- T _ZNSt3__212system_errorD2Ev
-------- W _ZNSt3__213__atomic_baseIPNSt12experimental15fundamentals_v13pmr15memory_resourceELb0EE8exchangeES5_NS_12memory_orderE
-------- W _ZNSt3__213__atomic_baseIiLb1EE9fetch_addEiNS_12memory_orderE
-------- W _ZNSt3__213__atomic_baseIiLb1EEppEi
-------- W _ZNSt3__213__lower_boundIRNS_6__lessIjmEEPKjmEET0_S6_S6_RKT1_T_
-------- W _ZNSt3__213__rotate_leftINS_11__wrap_iterIPcEEEET_S4_S4_
-------- W _ZNSt3__213__rotate_leftINS_11__wrap_iterIPwEEEET_S4_S4_
-------- W _ZNSt3__213__unwrap_iterINS_11__wrap_iterIPKcEEEET_S5_
-------- W _ZNSt3__213__unwrap_iterINS_11__wrap_iterIPKwEEEET_S5_
-------- W _ZNSt3__213__unwrap_iterINS_19istreambuf_iteratorIcNS_11char_traitsIcEEEEEET_S5_
-------- W _ZNSt3__213__unwrap_iterINS_19ostreambuf_iteratorIcNS_11char_traitsIcEEEEEET_S5_
-------- W _ZNSt3__213__unwrap_iterINS_19ostreambuf_iteratorIwNS_11char_traitsIwEEEEEET_S5_
-------- W _ZNSt3__213__unwrap_iterIPPNS_4__fs10filesystem12__dir_streamEEET_S6_
-------- W _ZNSt3__213__unwrap_iterIPPNS_6locale5facetEEET_S5_
-------- W _ZNSt3__213__unwrap_iterIPcEET_S2_
-------- W _ZNSt3__213__unwrap_iterIPwEET_S2_
-------- W _ZNSt3__213__unwrap_iterIcEENS_9enable_ifIXsr28is_trivially_copy_assignableIT_EE5valueEPS2_E4typeENS_11__wrap_iterIS3_EE
-------- W _ZNSt3__213__unwrap_iterIwEENS_9enable_ifIXsr28is_trivially_copy_assignableIT_EE5valueEPS2_E4typeENS_11__wrap_iterIS3_EE
-------- W _ZNSt3__213__vector_baseINS_17basic_string_viewIcNS_11char_traitsIcEEEENS_9allocatorIS4_EEE17__destruct_at_endEPS4_
-------- W _ZNSt3__213__vector_baseINS_17basic_string_viewIcNS_11char_traitsIcEEEENS_9allocatorIS4_EEE5clearEv
-------- W _ZNSt3__213__vector_baseINS_17basic_string_viewIcNS_11char_traitsIcEEEENS_9allocatorIS4_EEE7__allocEv
-------- W _ZNSt3__213__vector_baseINS_17basic_string_viewIcNS_11char_traitsIcEEEENS_9allocatorIS4_EEE9__end_capEv
-------- W _ZNSt3__213__vector_baseINS_17basic_string_viewIcNS_11char_traitsIcEEEENS_9allocatorIS4_EEEC2Ev
-------- W _ZNSt3__213__vector_baseINS_17basic_string_viewIcNS_11char_traitsIcEEEENS_9allocatorIS4_EEED2Ev
-------- W _ZNSt3__213__vector_baseINS_4pairINS_17basic_string_viewIcNS_11char_traitsIcEEEENS_4__fs10filesystem12PathPartKindEEENS_9allocatorIS9_EEE17__destruct_at_endEPS9_
-------- W _ZNSt3__213__vector_baseINS_4pairINS_17basic_string_viewIcNS_11char_traitsIcEEEENS_4__fs10filesystem12PathPartKindEEENS_9allocatorIS9_EEE5clearEv
-------- W _ZNSt3__213__vector_baseINS_4pairINS_17basic_string_viewIcNS_11char_traitsIcEEEENS_4__fs10filesystem12PathPartKindEEENS_9allocatorIS9_EEE7__allocEv
-------- W _ZNSt3__213__vector_baseINS_4pairINS_17basic_string_viewIcNS_11char_traitsIcEEEENS_4__fs10filesystem12PathPartKindEEENS_9allocatorIS9_EEE9__end_capEv
-------- W _ZNSt3__213__vector_baseINS_4pairINS_17basic_string_viewIcNS_11char_traitsIcEEEENS_4__fs10filesystem12PathPartKindEEENS_9allocatorIS9_EEEC2Ev
-------- W _ZNSt3__213__vector_baseINS_4pairINS_17basic_string_viewIcNS_11char_traitsIcEEEENS_4__fs10filesystem12PathPartKindEEENS_9allocatorIS9_EEED2Ev
-------- W _ZNSt3__213__vector_baseINS_4pairIPNS_18condition_variableEPNS_5mutexEEENS_18__hidden_allocatorIS6_EEE17__destruct_at_endEPS6_
-------- W _ZNSt3__213__vector_baseINS_4pairIPNS_18condition_variableEPNS_5mutexEEENS_18__hidden_allocatorIS6_EEE5clearEv
-------- W _ZNSt3__213__vector_baseINS_4pairIPNS_18condition_variableEPNS_5mutexEEENS_18__hidden_allocatorIS6_EEE7__allocEv
-------- W _ZNSt3__213__vector_baseINS_4pairIPNS_18condition_variableEPNS_5mutexEEENS_18__hidden_allocatorIS6_EEE9__end_capEv
-------- W _ZNSt3__213__vector_baseINS_4pairIPNS_18condition_variableEPNS_5mutexEEENS_18__hidden_allocatorIS6_EEEC2Ev
-------- W _ZNSt3__213__vector_baseINS_4pairIPNS_18condition_variableEPNS_5mutexEEENS_18__hidden_allocatorIS6_EEED2Ev
-------- W _ZNSt3__213__vector_baseIPNS_17__assoc_sub_stateENS_18__hidden_allocatorIS2_EEE17__destruct_at_endEPS2_
-------- W _ZNSt3__213__vector_baseIPNS_17__assoc_sub_stateENS_18__hidden_allocatorIS2_EEE5clearEv
-------- W _ZNSt3__213__vector_baseIPNS_17__assoc_sub_stateENS_18__hidden_allocatorIS2_EEE7__allocEv
-------- W _ZNSt3__213__vector_baseIPNS_17__assoc_sub_stateENS_18__hidden_allocatorIS2_EEE9__end_capEv
-------- W _ZNSt3__213__vector_baseIPNS_17__assoc_sub_stateENS_18__hidden_allocatorIS2_EEEC2Ev
-------- W _ZNSt3__213__vector_baseIPNS_17__assoc_sub_stateENS_18__hidden_allocatorIS2_EEED2Ev
-------- W _ZNSt3__213__vector_baseIPNS_6locale5facetENS_15__sso_allocatorIS3_Lm28EEEE17__destruct_at_endEPS3_
-------- W _ZNSt3__213__vector_baseIPNS_6locale5facetENS_15__sso_allocatorIS3_Lm28EEEE19__copy_assign_allocERKS6_
-------- W _ZNSt3__213__vector_baseIPNS_6locale5facetENS_15__sso_allocatorIS3_Lm28EEEE19__copy_assign_allocERKS6_NS_17integral_constantIbLb0EEE
-------- W _ZNSt3__213__vector_baseIPNS_6locale5facetENS_15__sso_allocatorIS3_Lm28EEEE5clearEv
-------- W _ZNSt3__213__vector_baseIPNS_6locale5facetENS_15__sso_allocatorIS3_Lm28EEEE7__allocEv
-------- W _ZNSt3__213__vector_baseIPNS_6locale5facetENS_15__sso_allocatorIS3_Lm28EEEE9__end_capEv
-------- W _ZNSt3__213__vector_baseIPNS_6locale5facetENS_15__sso_allocatorIS3_Lm28EEEEC2Ev
-------- W _ZNSt3__213__vector_baseIPNS_6locale5facetENS_15__sso_allocatorIS3_Lm28EEEED2Ev
-------- D _ZNSt3__213allocator_argE
-------- W _ZNSt3__213back_inserterINS_12basic_stringIcNS_11char_traitsIcEENS_9allocatorIcEEEEEENS_20back_insert_iteratorIT_EERS8_
-------- W _ZNSt3__213back_inserterINS_12basic_stringIwNS_11char_traitsIwEENS_9allocatorIwEEEEEENS_20back_insert_iteratorIT_EERS8_
-------- W _ZNSt3__213basic_filebufIcNS_11char_traitsIcEEE11__read_modeEv
-------- W _ZNSt3__213basic_filebufIcNS_11char_traitsIcEEE12__write_modeEv
-------- W _ZNSt3__213basic_filebufIcNS_11char_traitsIcEEE15__make_mdstringEj
-------- W _ZNSt3__213basic_filebufIcNS_11char_traitsIcEEE4syncEv
-------- W _ZNSt3__213basic_filebufIcNS_11char_traitsIcEEE5closeEv
-------- W _ZNSt3__213basic_filebufIcNS_11char_traitsIcEEE5imbueERKNS_6localeE
-------- W _ZNSt3__213basic_filebufIcNS_11char_traitsIcEEE6__openEij
-------- W _ZNSt3__213basic_filebufIcNS_11char_traitsIcEEE6setbufEPcl
-------- W _ZNSt3__213basic_filebufIcNS_11char_traitsIcEEE7seekoffExNS_8ios_base7seekdirEj
-------- W _ZNSt3__213basic_filebufIcNS_11char_traitsIcEEE7seekposENS_4fposI11__mbstate_tEEj
-------- W _ZNSt3__213basic_filebufIcNS_11char_traitsIcEEE8overflowEi
-------- W _ZNSt3__213basic_filebufIcNS_11char_traitsIcEEE9pbackfailEi
-------- W _ZNSt3__213basic_filebufIcNS_11char_traitsIcEEE9underflowEv
-------- W _ZNSt3__213basic_filebufIcNS_11char_traitsIcEEEC2Ev
-------- W _ZNSt3__213basic_filebufIcNS_11char_traitsIcEEED0Ev
-------- W _ZNSt3__213basic_filebufIcNS_11char_traitsIcEEED2Ev
-------- W _ZNSt3__213basic_istreamIcNS_11char_traitsIcEEE3getEPclc
-------- W _ZNSt3__213basic_istreamIcNS_11char_traitsIcEEE3getERNS_15basic_streambufIcS2_EEc
-------- W _ZNSt3__213basic_istreamIcNS_11char_traitsIcEEE3getEv
-------- W _ZNSt3__213basic_istreamIcNS_11char_traitsIcEEE4peekEv
-------- W _ZNSt3__213basic_istreamIcNS_11char_traitsIcEEE4readEPcl
-------- W _ZNSt3__213basic_istreamIcNS_11char_traitsIcEEE4syncEv
-------- W _ZNSt3__213basic_istreamIcNS_11char_traitsIcEEE5seekgENS_4fposI11__mbstate_tEE
-------- W _ZNSt3__213basic_istreamIcNS_11char_traitsIcEEE5seekgExNS_8ios_base7seekdirE
-------- W _ZNSt3__213basic_istreamIcNS_11char_traitsIcEEE5tellgEv
-------- W _ZNSt3__213basic_istreamIcNS_11char_traitsIcEEE5ungetEv
-------- W _ZNSt3__213basic_istreamIcNS_11char_traitsIcEEE6ignoreEli
-------- W _ZNSt3__213basic_istreamIcNS_11char_traitsIcEEE6sentryC1ERS3_b
-------- W _ZNSt3__213basic_istreamIcNS_11char_traitsIcEEE6sentryC2ERS3_b
-------- W _ZNSt3__213basic_istreamIcNS_11char_traitsIcEEE7getlineEPclc
-------- W _ZNSt3__213basic_istreamIcNS_11char_traitsIcEEE7putbackEc
-------- W _ZNSt3__213basic_istreamIcNS_11char_traitsIcEEE8readsomeEPcl
-------- W _ZNSt3__213basic_istreamIcNS_11char_traitsIcEEEC1EPNS_15basic_streambufIcS2_EE
-------- W _ZNSt3__213basic_istreamIcNS_11char_traitsIcEEEC2EPNS_15basic_streambufIcS2_EE
-------- W _ZNSt3__213basic_istreamIcNS_11char_traitsIcEEED0Ev
-------- W _ZNSt3__213basic_istreamIcNS_11char_traitsIcEEED1Ev
-------- W _ZNSt3__213basic_istreamIcNS_11char_traitsIcEEED2Ev
-------- W _ZNSt3__213basic_istreamIcNS_11char_traitsIcEEErsEPNS_15basic_streambufIcS2_EE
-------- W _ZNSt3__213basic_istreamIcNS_11char_traitsIcEEErsERPv
-------- W _ZNSt3__213basic_istreamIcNS_11char_traitsIcEEErsERb
-------- W _ZNSt3__213basic_istreamIcNS_11char_traitsIcEEErsERd
-------- W _ZNSt3__213basic_istreamIcNS_11char_traitsIcEEErsERe
-------- W _ZNSt3__213basic_istreamIcNS_11char_traitsIcEEErsERf
-------- W _ZNSt3__213basic_istreamIcNS_11char_traitsIcEEErsERi
-------- W _ZNSt3__213basic_istreamIcNS_11char_traitsIcEEErsERj
-------- W _ZNSt3__213basic_istreamIcNS_11char_traitsIcEEErsERl
-------- W _ZNSt3__213basic_istreamIcNS_11char_traitsIcEEErsERm
-------- W _ZNSt3__213basic_istreamIcNS_11char_traitsIcEEErsERs
-------- W _ZNSt3__213basic_istreamIcNS_11char_traitsIcEEErsERt
-------- W _ZNSt3__213basic_istreamIcNS_11char_traitsIcEEErsERx
-------- W _ZNSt3__213basic_istreamIcNS_11char_traitsIcEEErsERy
-------- W _ZNSt3__213basic_istreamIwNS_11char_traitsIwEEE3getEPwlw
-------- W _ZNSt3__213basic_istreamIwNS_11char_traitsIwEEE3getERNS_15basic_streambufIwS2_EEw
-------- W _ZNSt3__213basic_istreamIwNS_11char_traitsIwEEE3getEv
-------- W _ZNSt3__213basic_istreamIwNS_11char_traitsIwEEE4peekEv
-------- W _ZNSt3__213basic_istreamIwNS_11char_traitsIwEEE4readEPwl
-------- W _ZNSt3__213basic_istreamIwNS_11char_traitsIwEEE4syncEv
-------- W _ZNSt3__213basic_istreamIwNS_11char_traitsIwEEE5seekgENS_4fposI11__mbstate_tEE
-------- W _ZNSt3__213basic_istreamIwNS_11char_traitsIwEEE5seekgExNS_8ios_base7seekdirE
-------- W _ZNSt3__213basic_istreamIwNS_11char_traitsIwEEE5tellgEv
-------- W _ZNSt3__213basic_istreamIwNS_11char_traitsIwEEE5ungetEv
-------- W _ZNSt3__213basic_istreamIwNS_11char_traitsIwEEE6ignoreElj
-------- W _ZNSt3__213basic_istreamIwNS_11char_traitsIwEEE6sentryC1ERS3_b
-------- W _ZNSt3__213basic_istreamIwNS_11char_traitsIwEEE6sentryC2ERS3_b
-------- W _ZNSt3__213basic_istreamIwNS_11char_traitsIwEEE7getlineEPwlw
-------- W _ZNSt3__213basic_istreamIwNS_11char_traitsIwEEE7putbackEw
-------- W _ZNSt3__213basic_istreamIwNS_11char_traitsIwEEE8readsomeEPwl
-------- W _ZNSt3__213basic_istreamIwNS_11char_traitsIwEEEC1EPNS_15basic_streambufIwS2_EE
-------- W _ZNSt3__213basic_istreamIwNS_11char_traitsIwEEED0Ev
-------- W _ZNSt3__213basic_istreamIwNS_11char_traitsIwEEED1Ev
-------- W _ZNSt3__213basic_istreamIwNS_11char_traitsIwEEED2Ev
-------- W _ZNSt3__213basic_istreamIwNS_11char_traitsIwEEErsEPNS_15basic_streambufIwS2_EE
-------- W _ZNSt3__213basic_istreamIwNS_11char_traitsIwEEErsERPv
-------- W _ZNSt3__213basic_istreamIwNS_11char_traitsIwEEErsERb
-------- W _ZNSt3__213basic_istreamIwNS_11char_traitsIwEEErsERd
-------- W _ZNSt3__213basic_istreamIwNS_11char_traitsIwEEErsERe
-------- W _ZNSt3__213basic_istreamIwNS_11char_traitsIwEEErsERf
-------- W _ZNSt3__213basic_istreamIwNS_11char_traitsIwEEErsERi
-------- W _ZNSt3__213basic_istreamIwNS_11char_traitsIwEEErsERj
-------- W _ZNSt3__213basic_istreamIwNS_11char_traitsIwEEErsERl
-------- W _ZNSt3__213basic_istreamIwNS_11char_traitsIwEEErsERm
-------- W _ZNSt3__213basic_istreamIwNS_11char_traitsIwEEErsERs
-------- W _ZNSt3__213basic_istreamIwNS_11char_traitsIwEEErsERt
-------- W _ZNSt3__213basic_istreamIwNS_11char_traitsIwEEErsERx
-------- W _ZNSt3__213basic_istreamIwNS_11char_traitsIwEEErsERy
-------- W _ZNSt3__213basic_ostreamIcNS_11char_traitsIcEEE3putEc
-------- W _ZNSt3__213basic_ostreamIcNS_11char_traitsIcEEE5flushEv
-------- W _ZNSt3__213basic_ostreamIcNS_11char_traitsIcEEE5writeEPKcl
-------- W _ZNSt3__213basic_ostreamIcNS_11char_traitsIcEEE6sentryC1ERS3_
-------- W _ZNSt3__213basic_ostreamIcNS_11char_traitsIcEEE6sentryC2ERS3_
-------- W _ZNSt3__213basic_ostreamIcNS_11char_traitsIcEEE6sentryD1Ev
-------- W _ZNSt3__213basic_ostreamIcNS_11char_traitsIcEEE6sentryD2Ev
-------- W _ZNSt3__213basic_ostreamIcNS_11char_traitsIcEEEC1EPNS_15basic_streambufIcS2_EE
-------- W _ZNSt3__213basic_ostreamIcNS_11char_traitsIcEEEC2EPNS_15basic_streambufIcS2_EE
-------- W _ZNSt3__213basic_ostreamIcNS_11char_traitsIcEEED0Ev
-------- W _ZNSt3__213basic_ostreamIcNS_11char_traitsIcEEED1Ev
-------- W _ZNSt3__213basic_ostreamIcNS_11char_traitsIcEEED2Ev
-------- W _ZNSt3__213basic_ostreamIcNS_11char_traitsIcEEElsEPKv
-------- W _ZNSt3__213basic_ostreamIcNS_11char_traitsIcEEElsEPNS_15basic_streambufIcS2_EE
-------- W _ZNSt3__213basic_ostreamIcNS_11char_traitsIcEEElsEb
-------- W _ZNSt3__213basic_ostreamIcNS_11char_traitsIcEEElsEd
-------- W _ZNSt3__213basic_ostreamIcNS_11char_traitsIcEEElsEe
-------- W _ZNSt3__213basic_ostreamIcNS_11char_traitsIcEEElsEf
-------- W _ZNSt3__213basic_ostreamIcNS_11char_traitsIcEEElsEi
-------- W _ZNSt3__213basic_ostreamIcNS_11char_traitsIcEEElsEj
-------- W _ZNSt3__213basic_ostreamIcNS_11char_traitsIcEEElsEl
-------- W _ZNSt3__213basic_ostreamIcNS_11char_traitsIcEEElsEm
-------- W _ZNSt3__213basic_ostreamIcNS_11char_traitsIcEEElsEs
-------- W _ZNSt3__213basic_ostreamIcNS_11char_traitsIcEEElsEt
-------- W _ZNSt3__213basic_ostreamIcNS_11char_traitsIcEEElsEx
-------- W _ZNSt3__213basic_ostreamIcNS_11char_traitsIcEEElsEy
-------- W _ZNSt3__213basic_ostreamIwNS_11char_traitsIwEEE3putEw
-------- W _ZNSt3__213basic_ostreamIwNS_11char_traitsIwEEE5flushEv
-------- W _ZNSt3__213basic_ostreamIwNS_11char_traitsIwEEE5writeEPKwl
-------- W _ZNSt3__213basic_ostreamIwNS_11char_traitsIwEEE6sentryC1ERS3_
-------- W _ZNSt3__213basic_ostreamIwNS_11char_traitsIwEEE6sentryC2ERS3_
-------- W _ZNSt3__213basic_ostreamIwNS_11char_traitsIwEEE6sentryD1Ev
-------- W _ZNSt3__213basic_ostreamIwNS_11char_traitsIwEEE6sentryD2Ev
-------- W _ZNSt3__213basic_ostreamIwNS_11char_traitsIwEEEC1EPNS_15basic_streambufIwS2_EE
-------- W _ZNSt3__213basic_ostreamIwNS_11char_traitsIwEEED0Ev
-------- W _ZNSt3__213basic_ostreamIwNS_11char_traitsIwEEED1Ev
-------- W _ZNSt3__213basic_ostreamIwNS_11char_traitsIwEEED2Ev
-------- W _ZNSt3__213basic_ostreamIwNS_11char_traitsIwEEElsEPKv
-------- W _ZNSt3__213basic_ostreamIwNS_11char_traitsIwEEElsEPNS_15basic_streambufIwS2_EE
-------- W _ZNSt3__213basic_ostreamIwNS_11char_traitsIwEEElsEb
-------- W _ZNSt3__213basic_ostreamIwNS_11char_traitsIwEEElsEd
-------- W _ZNSt3__213basic_ostreamIwNS_11char_traitsIwEEElsEe
-------- W _ZNSt3__213basic_ostreamIwNS_11char_traitsIwEEElsEf
-------- W _ZNSt3__213basic_ostreamIwNS_11char_traitsIwEEElsEi
-------- W _ZNSt3__213basic_ostreamIwNS_11char_traitsIwEEElsEj
-------- W _ZNSt3__213basic_ostreamIwNS_11char_traitsIwEEElsEl
-------- W _ZNSt3__213basic_ostreamIwNS_11char_traitsIwEEElsEm
-------- W _ZNSt3__213basic_ostreamIwNS_11char_traitsIwEEElsEs
-------- W _ZNSt3__213basic_ostreamIwNS_11char_traitsIwEEElsEt
-------- W _ZNSt3__213basic_ostreamIwNS_11char_traitsIwEEElsEx
-------- W _ZNSt3__213basic_ostreamIwNS_11char_traitsIwEEElsEy
-------- W _ZNSt3__213messages_baseC2Ev
-------- W _ZNSt3__213move_backwardINS_11__wrap_iterIPcEES3_EET0_T_S5_S4_
-------- W _ZNSt3__213move_backwardINS_11__wrap_iterIPwEES3_EET0_T_S5_S4_
-------- W _ZNSt3__213move_backwardIPPNS_4__fs10filesystem12__dir_streamES5_EET0_T_S7_S6_
-------- W _ZNSt3__213move_iteratorIPPNS_4__fs10filesystem12__dir_streamEEC2ES5_
-------- W _ZNSt3__213move_iteratorIPPNS_4__fs10filesystem12__dir_streamEEppEv
-------- T _ZNSt3__213random_deviceC1ERKNS_12basic_stringIcNS_11char_traitsIcEENS_9allocatorIcEEEE
-------- T _ZNSt3__213random_deviceC2ERKNS_12basic_stringIcNS_11char_traitsIcEENS_9allocatorIcEEEE
-------- T _ZNSt3__213random_deviceD1Ev
-------- T _ZNSt3__213random_deviceD2Ev
-------- T _ZNSt3__213random_deviceclEv
-------- T _ZNSt3__213shared_futureIvED1Ev
-------- T _ZNSt3__213shared_futureIvED2Ev
-------- T _ZNSt3__213shared_futureIvEaSERKS1_
-------- W _ZNSt3__214__codecvt_utf8IDiED0Ev
-------- W _ZNSt3__214__codecvt_utf8IDsED0Ev
-------- W _ZNSt3__214__codecvt_utf8IwED0Ev
-------- T _ZNSt3__214__get_const_dbEv
-------- W _ZNSt3__214__hash_combineEmm
-------- T _ZNSt3__214__num_get_base10__get_baseERNS_8ios_baseE
-------- D _ZNSt3__214__num_get_base5__srcE
-------- T _ZNSt3__214__num_put_base12__format_intEPcPKcbj
-------- T _ZNSt3__214__num_put_base14__format_floatEPcPKcj
-------- T _ZNSt3__214__num_put_base18__identify_paddingEPcS1_RKNS_8ios_baseE
-------- W _ZNSt3__214__ptr_in_rangeIcEEbPKT_S3_S3_
-------- W _ZNSt3__214__ptr_in_rangeIwEEbPKT_S3_S3_
-------- W _ZNSt3__214__rotate_rightINS_11__wrap_iterIPcEEEET_S4_S4_
-------- W _ZNSt3__214__rotate_rightINS_11__wrap_iterIPwEEEET_S4_S4_
-------- W _ZNSt3__214__scan_keywordINS_19istreambuf_iteratorIcNS_11char_traitsIcEEEEPKNS_12basic_stringIcS3_NS_9allocatorIcEEEENS_5ctypeIcEEEET0_RT_SE_SD_SD_RKT1_Rjb
-------- W _ZNSt3__214__scan_keywordINS_19istreambuf_iteratorIwNS_11char_traitsIwEEEEPKNS_12basic_stringIwS3_NS_9allocatorIwEEEENS_5ctypeIwEEEET0_RT_SE_SD_SD_RKT1_Rjb
-------- W _ZNSt3__214__scan_keywordIPcPNS_12basic_stringIcNS_11char_traitsIcEENS_9allocatorIcEEEENS_5ctypeIcEEEET0_RT_SC_SB_SB_RKT1_Rjb
-------- W _ZNSt3__214__scan_keywordIPwPNS_12basic_stringIwNS_11char_traitsIwEENS_9allocatorIwEEEENS_5ctypeIwEEEET0_RT_SC_SB_SB_RKT1_Rjb
-------- W _ZNSt3__214__shared_count12__add_sharedEv
-------- W _ZNSt3__214__shared_count16__release_sharedEv
-------- W _ZNSt3__214__shared_countC2El
-------- T _ZNSt3__214__shared_countD0Ev
-------- T _ZNSt3__214__shared_countD1Ev
-------- T _ZNSt3__214__shared_countD2Ev
-------- W _ZNSt3__214__split_bufferINS_17basic_string_viewIcNS_11char_traitsIcEEEERNS_9allocatorIS4_EEE17__destruct_at_endEPS4_
-------- W _ZNSt3__214__split_bufferINS_17basic_string_viewIcNS_11char_traitsIcEEEERNS_9allocatorIS4_EEE17__destruct_at_endEPS4_NS_17integral_constantIbLb0EEE
-------- W _ZNSt3__214__split_bufferINS_17basic_string_viewIcNS_11char_traitsIcEEEERNS_9allocatorIS4_EEE5clearEv
-------- W _ZNSt3__214__split_bufferINS_17basic_string_viewIcNS_11char_traitsIcEEEERNS_9allocatorIS4_EEE7__allocEv
-------- W _ZNSt3__214__split_bufferINS_17basic_string_viewIcNS_11char_traitsIcEEEERNS_9allocatorIS4_EEE9__end_capEv
-------- W _ZNSt3__214__split_bufferINS_17basic_string_viewIcNS_11char_traitsIcEEEERNS_9allocatorIS4_EEEC2EmmS7_
-------- W _ZNSt3__214__split_bufferINS_17basic_string_viewIcNS_11char_traitsIcEEEERNS_9allocatorIS4_EEED2Ev
-------- W _ZNSt3__214__split_bufferINS_4pairINS_17basic_string_viewIcNS_11char_traitsIcEEEENS_4__fs10filesystem12PathPartKindEEERNS_9allocatorIS9_EEE17__destruct_at_endEPS9_
-------- W _ZNSt3__214__split_bufferINS_4pairINS_17basic_string_viewIcNS_11char_traitsIcEEEENS_4__fs10filesystem12PathPartKindEEERNS_9allocatorIS9_EEE17__destruct_at_endEPS9_NS_17integral_constantIbLb0EEE
-------- W _ZNSt3__214__split_bufferINS_4pairINS_17basic_string_viewIcNS_11char_traitsIcEEEENS_4__fs10filesystem12PathPartKindEEERNS_9allocatorIS9_EEE5clearEv
-------- W _ZNSt3__214__split_bufferINS_4pairINS_17basic_string_viewIcNS_11char_traitsIcEEEENS_4__fs10filesystem12PathPartKindEEERNS_9allocatorIS9_EEE7__allocEv
-------- W _ZNSt3__214__split_bufferINS_4pairINS_17basic_string_viewIcNS_11char_traitsIcEEEENS_4__fs10filesystem12PathPartKindEEERNS_9allocatorIS9_EEE9__end_capEv
-------- W _ZNSt3__214__split_bufferINS_4pairINS_17basic_string_viewIcNS_11char_traitsIcEEEENS_4__fs10filesystem12PathPartKindEEERNS_9allocatorIS9_EEEC2EmmSC_
-------- W _ZNSt3__214__split_bufferINS_4pairINS_17basic_string_viewIcNS_11char_traitsIcEEEENS_4__fs10filesystem12PathPartKindEEERNS_9allocatorIS9_EEED2Ev
-------- W _ZNSt3__214__split_bufferINS_4pairIPNS_18condition_variableEPNS_5mutexEEERNS_18__hidden_allocatorIS6_EEE17__destruct_at_endEPS6_
-------- W _ZNSt3__214__split_bufferINS_4pairIPNS_18condition_variableEPNS_5mutexEEERNS_18__hidden_allocatorIS6_EEE17__destruct_at_endEPS6_NS_17integral_constantIbLb0EEE
-------- W _ZNSt3__214__split_bufferINS_4pairIPNS_18condition_variableEPNS_5mutexEEERNS_18__hidden_allocatorIS6_EEE5clearEv
-------- W _ZNSt3__214__split_bufferINS_4pairIPNS_18condition_variableEPNS_5mutexEEERNS_18__hidden_allocatorIS6_EEE7__allocEv
-------- W _ZNSt3__214__split_bufferINS_4pairIPNS_18condition_variableEPNS_5mutexEEERNS_18__hidden_allocatorIS6_EEE9__end_capEv
-------- W _ZNSt3__214__split_bufferINS_4pairIPNS_18condition_variableEPNS_5mutexEEERNS_18__hidden_allocatorIS6_EEEC2EmmS9_
-------- W _ZNSt3__214__split_bufferINS_4pairIPNS_18condition_variableEPNS_5mutexEEERNS_18__hidden_allocatorIS6_EEED2Ev
-------- W _ZNSt3__214__split_bufferIPNS_17__assoc_sub_stateERNS_18__hidden_allocatorIS2_EEE17__destruct_at_endEPS2_
-------- W _ZNSt3__214__split_bufferIPNS_17__assoc_sub_stateERNS_18__hidden_allocatorIS2_EEE17__destruct_at_endEPS2_NS_17integral_constantIbLb0EEE
-------- W _ZNSt3__214__split_bufferIPNS_17__assoc_sub_stateERNS_18__hidden_allocatorIS2_EEE5clearEv
-------- W _ZNSt3__214__split_bufferIPNS_17__assoc_sub_stateERNS_18__hidden_allocatorIS2_EEE7__allocEv
-------- W _ZNSt3__214__split_bufferIPNS_17__assoc_sub_stateERNS_18__hidden_allocatorIS2_EEE9__end_capEv
-------- W _ZNSt3__214__split_bufferIPNS_17__assoc_sub_stateERNS_18__hidden_allocatorIS2_EEEC2EmmS5_
-------- W _ZNSt3__214__split_bufferIPNS_17__assoc_sub_stateERNS_18__hidden_allocatorIS2_EEED2Ev
-------- W _ZNSt3__214__split_bufferIPNS_4__fs10filesystem12__dir_streamENS_9allocatorIS4_EEE10push_frontEOS4_
-------- W _ZNSt3__214__split_bufferIPNS_4__fs10filesystem12__dir_streamENS_9allocatorIS4_EEE17__destruct_at_endEPS4_
-------- W _ZNSt3__214__split_bufferIPNS_4__fs10filesystem12__dir_streamENS_9allocatorIS4_EEE17__destruct_at_endEPS4_NS_17integral_constantIbLb0EEE
-------- W _ZNSt3__214__split_bufferIPNS_4__fs10filesystem12__dir_streamENS_9allocatorIS4_EEE19__destruct_at_beginEPS4_
-------- W _ZNSt3__214__split_bufferIPNS_4__fs10filesystem12__dir_streamENS_9allocatorIS4_EEE19__destruct_at_beginEPS4_NS_17integral_constantIbLb1EEE
-------- W _ZNSt3__214__split_bufferIPNS_4__fs10filesystem12__dir_streamENS_9allocatorIS4_EEE3endEv
-------- W _ZNSt3__214__split_bufferIPNS_4__fs10filesystem12__dir_streamENS_9allocatorIS4_EEE4backEv
-------- W _ZNSt3__214__split_bufferIPNS_4__fs10filesystem12__dir_streamENS_9allocatorIS4_EEE5beginEv
-------- W _ZNSt3__214__split_bufferIPNS_4__fs10filesystem12__dir_streamENS_9allocatorIS4_EEE5clearEv
-------- W _ZNSt3__214__split_bufferIPNS_4__fs10filesystem12__dir_streamENS_9allocatorIS4_EEE5frontEv
-------- W _ZNSt3__214__split_bufferIPNS_4__fs10filesystem12__dir_streamENS_9allocatorIS4_EEE7__allocEv
-------- W _ZNSt3__214__split_bufferIPNS_4__fs10filesystem12__dir_streamENS_9allocatorIS4_EEE8pop_backEv
-------- W _ZNSt3__214__split_bufferIPNS_4__fs10filesystem12__dir_streamENS_9allocatorIS4_EEE9__end_capEv
-------- W _ZNSt3__214__split_bufferIPNS_4__fs10filesystem12__dir_streamENS_9allocatorIS4_EEE9pop_frontEv
-------- W _ZNSt3__214__split_bufferIPNS_4__fs10filesystem12__dir_streamENS_9allocatorIS4_EEE9push_backEOS4_
-------- W _ZNSt3__214__split_bufferIPNS_4__fs10filesystem12__dir_streamENS_9allocatorIS4_EEE9push_backERKS4_
-------- W _ZNSt3__214__split_bufferIPNS_4__fs10filesystem12__dir_streamENS_9allocatorIS4_EEEC2Ev
-------- W _ZNSt3__214__split_bufferIPNS_4__fs10filesystem12__dir_streamENS_9allocatorIS4_EEED2Ev
-------- W _ZNSt3__214__split_bufferIPNS_4__fs10filesystem12__dir_streamERNS_9allocatorIS4_EEE10push_frontERKS4_
-------- W _ZNSt3__214__split_bufferIPNS_4__fs10filesystem12__dir_streamERNS_9allocatorIS4_EEE17__destruct_at_endEPS4_
-------- W _ZNSt3__214__split_bufferIPNS_4__fs10filesystem12__dir_streamERNS_9allocatorIS4_EEE17__destruct_at_endEPS4_NS_17integral_constantIbLb0EEE
-------- W _ZNSt3__214__split_bufferIPNS_4__fs10filesystem12__dir_streamERNS_9allocatorIS4_EEE18__construct_at_endINS_13move_iteratorIPS4_EEEENS_9enable_ifIXsr21__is_forward_iteratorIT_EE5valueEvE4typeESE_SE_
-------- W _ZNSt3__214__split_bufferIPNS_4__fs10filesystem12__dir_streamERNS_9allocatorIS4_EEE5clearEv
-------- W _ZNSt3__214__split_bufferIPNS_4__fs10filesystem12__dir_streamERNS_9allocatorIS4_EEE7__allocEv
-------- W _ZNSt3__214__split_bufferIPNS_4__fs10filesystem12__dir_streamERNS_9allocatorIS4_EEE9__end_capEv
-------- W _ZNSt3__214__split_bufferIPNS_4__fs10filesystem12__dir_streamERNS_9allocatorIS4_EEE9push_backEOS4_
-------- W _ZNSt3__214__split_bufferIPNS_4__fs10filesystem12__dir_streamERNS_9allocatorIS4_EEEC2EmmS7_
-------- W _ZNSt3__214__split_bufferIPNS_4__fs10filesystem12__dir_streamERNS_9allocatorIS4_EEED2Ev
-------- W _ZNSt3__214__split_bufferIPNS_6locale5facetERNS_15__sso_allocatorIS3_Lm28EEEE17__destruct_at_endEPS3_
-------- W _ZNSt3__214__split_bufferIPNS_6locale5facetERNS_15__sso_allocatorIS3_Lm28EEEE17__destruct_at_endEPS3_NS_17integral_constantIbLb0EEE
-------- W _ZNSt3__214__split_bufferIPNS_6locale5facetERNS_15__sso_allocatorIS3_Lm28EEEE18__construct_at_endEm
-------- W _ZNSt3__214__split_bufferIPNS_6locale5facetERNS_15__sso_allocatorIS3_Lm28EEEE5clearEv
-------- W _ZNSt3__214__split_bufferIPNS_6locale5facetERNS_15__sso_allocatorIS3_Lm28EEEE7__allocEv
-------- W _ZNSt3__214__split_bufferIPNS_6locale5facetERNS_15__sso_allocatorIS3_Lm28EEEE9__end_capEv
-------- W _ZNSt3__214__split_bufferIPNS_6locale5facetERNS_15__sso_allocatorIS3_Lm28EEEEC2EmmS6_
-------- W _ZNSt3__214__split_bufferIPNS_6locale5facetERNS_15__sso_allocatorIS3_Lm28EEEED2Ev
-------- W _ZNSt3__214basic_ifstreamIcNS_11char_traitsIcEEE6__openEij
-------- W _ZNSt3__214basic_ifstreamIcNS_11char_traitsIcEEEC1Ev
-------- W _ZNSt3__214basic_ifstreamIcNS_11char_traitsIcEEED0Ev
-------- W _ZNSt3__214basic_ifstreamIcNS_11char_traitsIcEEED1Ev
-------- W _ZNSt3__214basic_ifstreamIcNS_11char_traitsIcEEED2Ev
-------- W _ZNSt3__214basic_iostreamIcNS_11char_traitsIcEEED0Ev
-------- W _ZNSt3__214basic_iostreamIcNS_11char_traitsIcEEED1Ev
-------- W _ZNSt3__214basic_iostreamIcNS_11char_traitsIcEEED2Ev
-------- W _ZNSt3__214basic_ofstreamIcNS_11char_traitsIcEEE6__openEij
-------- W _ZNSt3__214basic_ofstreamIcNS_11char_traitsIcEEEC1Ev
-------- W _ZNSt3__214basic_ofstreamIcNS_11char_traitsIcEEED0Ev
-------- W _ZNSt3__214basic_ofstreamIcNS_11char_traitsIcEEED1Ev
-------- W _ZNSt3__214basic_ofstreamIcNS_11char_traitsIcEEED2Ev
-------- W _ZNSt3__214codecvt_bynameIDic11__mbstate_tEC2ERKNS_12basic_stringIcNS_11char_traitsIcEENS_9allocatorIcEEEEm
-------- W _ZNSt3__214codecvt_bynameIDic11__mbstate_tED0Ev
-------- W _ZNSt3__214codecvt_bynameIDic11__mbstate_tED1Ev
-------- W _ZNSt3__214codecvt_bynameIDic11__mbstate_tED2Ev
-------- W _ZNSt3__214codecvt_bynameIDsc11__mbstate_tEC2ERKNS_12basic_stringIcNS_11char_traitsIcEENS_9allocatorIcEEEEm
-------- W _ZNSt3__214codecvt_bynameIDsc11__mbstate_tED0Ev
-------- W _ZNSt3__214codecvt_bynameIDsc11__mbstate_tED1Ev
-------- W _ZNSt3__214codecvt_bynameIDsc11__mbstate_tED2Ev
-------- W _ZNSt3__214codecvt_bynameIcc11__mbstate_tEC2ERKNS_12basic_stringIcNS_11char_traitsIcEENS_9allocatorIcEEEEm
-------- W _ZNSt3__214codecvt_bynameIcc11__mbstate_tED0Ev
-------- W _ZNSt3__214codecvt_bynameIcc11__mbstate_tED1Ev
-------- W _ZNSt3__214codecvt_bynameIcc11__mbstate_tED2Ev
-------- W _ZNSt3__214codecvt_bynameIwc11__mbstate_tEC2ERKNS_12basic_stringIcNS_11char_traitsIcEENS_9allocatorIcEEEEm
-------- W _ZNSt3__214codecvt_bynameIwc11__mbstate_tED0Ev
-------- W _ZNSt3__214codecvt_bynameIwc11__mbstate_tED1Ev
-------- W _ZNSt3__214codecvt_bynameIwc11__mbstate_tED2Ev
-------- T _ZNSt3__214collate_bynameIcEC1EPKcm
-------- T _ZNSt3__214collate_bynameIcEC1ERKNS_12basic_stringIcNS_11char_traitsIcEENS_9allocatorIcEEEEm
-------- T _ZNSt3__214collate_bynameIcEC2EPKcm
-------- T _ZNSt3__214collate_bynameIcEC2ERKNS_12basic_stringIcNS_11char_traitsIcEENS_9allocatorIcEEEEm
-------- T _ZNSt3__214collate_bynameIcED0Ev
-------- T _ZNSt3__214collate_bynameIcED1Ev
-------- T _ZNSt3__214collate_bynameIcED2Ev
-------- T _ZNSt3__214collate_bynameIwEC1EPKcm
-------- T _ZNSt3__214collate_bynameIwEC1ERKNS_12basic_stringIcNS_11char_traitsIcEENS_9allocatorIcEEEEm
-------- T _ZNSt3__214collate_bynameIwEC2EPKcm
-------- T _ZNSt3__214collate_bynameIwEC2ERKNS_12basic_stringIcNS_11char_traitsIcEENS_9allocatorIcEEEEm
-------- T _ZNSt3__214collate_bynameIwED0Ev
-------- T _ZNSt3__214collate_bynameIwED1Ev
-------- T _ZNSt3__214collate_bynameIwED2Ev
-------- T _ZNSt3__214error_categoryD0Ev
-------- T _ZNSt3__214error_categoryD1Ev
-------- T _ZNSt3__214error_categoryD2Ev
-------- W _ZNSt3__214numeric_limitsIcE3maxEv
-------- W _ZNSt3__214numeric_limitsIiE3maxEv
-------- W _ZNSt3__214numeric_limitsIiE3minEv
-------- W _ZNSt3__214numeric_limitsIjE3maxEv
-------- W _ZNSt3__214numeric_limitsIlE3maxEv
-------- W _ZNSt3__214numeric_limitsIlE3minEv
-------- W _ZNSt3__214numeric_limitsImE3maxEv
-------- W _ZNSt3__214numeric_limitsInE6lowestEv
-------- W _ZNSt3__214numeric_limitsIsE3maxEv
-------- W _ZNSt3__214numeric_limitsIsE3minEv
-------- W _ZNSt3__214numeric_limitsItE3maxEv
-------- W _ZNSt3__214numeric_limitsIwE3maxEv
-------- W _ZNSt3__214numeric_limitsIxE3maxEv
-------- W _ZNSt3__214numeric_limitsIxE3minEv
-------- W _ZNSt3__214numeric_limitsIyE3maxEv
-------- W _ZNSt3__214pointer_traitsIPKcE10pointer_toERS1_
-------- W _ZNSt3__214pointer_traitsIPKwE10pointer_toERS1_
-------- W _ZNSt3__214pointer_traitsIPNS_20__shared_ptr_emplaceINS_4__fs10filesystem12__dir_streamENS_9allocatorIS4_EEEEE10pointer_toERS7_
-------- W _ZNSt3__214pointer_traitsIPNS_20__shared_ptr_emplaceINS_4__fs10filesystem28recursive_directory_iterator12__shared_impENS_9allocatorIS5_EEEEE10pointer_toERS8_
-------- W _ZNSt3__214pointer_traitsIPcE10pointer_toERc
-------- W _ZNSt3__214pointer_traitsIPwE10pointer_toERw
-------- W _ZNSt3__215__codecvt_utf16IDiLb0EED0Ev
-------- W _ZNSt3__215__codecvt_utf16IDiLb1EED0Ev
-------- W _ZNSt3__215__codecvt_utf16IDsLb0EED0Ev
-------- W _ZNSt3__215__codecvt_utf16IDsLb1EED0Ev
-------- W _ZNSt3__215__codecvt_utf16IwLb0EED0Ev
-------- W _ZNSt3__215__codecvt_utf16IwLb1EED0Ev
-------- T _ZNSt3__215__get_classnameEPKcb
-------- W _ZNSt3__215__half_positiveIlEENS_9enable_ifIXsr11is_integralIT_EE5valueES2_E4typeES2_
-------- W _ZNSt3__215__move_backwardIPNS_4__fs10filesystem12__dir_streamES4_EENS_9enable_ifIXaasr7is_sameINS_12remove_constIT_E4typeET0_EE5valuesr28is_trivially_copy_assignableISA_EE5valueEPSA_E4typeEPS7_SE_SB_
-------- W _ZNSt3__215__move_backwardIccEENS_9enable_ifIXaasr7is_sameINS_12remove_constIT_E4typeET0_EE5valuesr28is_trivially_copy_assignableIS6_EE5valueEPS6_E4typeEPS3_SA_S7_
-------- W _ZNSt3__215__move_backwardIwwEENS_9enable_ifIXaasr7is_sameINS_12remove_constIT_E4typeET0_EE5valuesr28is_trivially_copy_assignableIS6_EE5valueEPS6_E4typeEPS3_SA_S7_
-------- W _ZNSt3__215__num_get_floatIdEET_PKcS3_Rj
-------- W _ZNSt3__215__num_get_floatIeEET_PKcS3_Rj
-------- W _ZNSt3__215__num_get_floatIfEET_PKcS3_Rj
-------- W _ZNSt3__215__sso_allocatorIPNS_6locale5facetELm28EE10deallocateEPS3_m
-------- W _ZNSt3__215__sso_allocatorIPNS_6locale5facetELm28EE8allocateEmPKv
-------- W _ZNSt3__215__sso_allocatorIPNS_6locale5facetELm28EEC2Ev
-------- T _ZNSt3__215__thread_struct25notify_all_at_thread_exitEPNS_18condition_variableEPNS_5mutexE
-------- T _ZNSt3__215__thread_struct27__make_ready_at_thread_exitEPNS_17__assoc_sub_stateE
-------- T _ZNSt3__215__thread_structC1Ev
-------- T _ZNSt3__215__thread_structC2Ev
-------- T _ZNSt3__215__thread_structD1Ev
-------- T _ZNSt3__215__thread_structD2Ev
-------- W _ZNSt3__215__time_get_tempIcEC2EPKc
-------- W _ZNSt3__215__time_get_tempIcEC2ERKNS_12basic_stringIcNS_11char_traitsIcEENS_9allocatorIcEEEE
-------- W _ZNSt3__215__time_get_tempIcED0Ev
-------- W _ZNSt3__215__time_get_tempIwEC2EPKc
-------- W _ZNSt3__215__time_get_tempIwEC2ERKNS_12basic_stringIcNS_11char_traitsIcEENS_9allocatorIcEEEE
-------- W _ZNSt3__215__time_get_tempIwED0Ev
-------- W _ZNSt3__215basic_streambufIcNS_11char_traitsIcEEE10pubseekoffExNS_8ios_base7seekdirEj
-------- W _ZNSt3__215basic_streambufIcNS_11char_traitsIcEEE10pubseekposENS_4fposI11__mbstate_tEEj
-------- W _ZNSt3__215basic_streambufIcNS_11char_traitsIcEEE4setgEPcS4_S4_
-------- W _ZNSt3__215basic_streambufIcNS_11char_traitsIcEEE4setpEPcS4_
-------- W _ZNSt3__215basic_streambufIcNS_11char_traitsIcEEE4swapERS3_
-------- W _ZNSt3__215basic_streambufIcNS_11char_traitsIcEEE4syncEv
-------- W _ZNSt3__215basic_streambufIcNS_11char_traitsIcEEE5gbumpEi
-------- W _ZNSt3__215basic_streambufIcNS_11char_traitsIcEEE5imbueERKNS_6localeE
-------- W _ZNSt3__215basic_streambufIcNS_11char_traitsIcEEE5pbumpEi
-------- W _ZNSt3__215basic_streambufIcNS_11char_traitsIcEEE5sgetcEv
-------- W _ZNSt3__215basic_streambufIcNS_11char_traitsIcEEE5sgetnEPcl
-------- W _ZNSt3__215basic_streambufIcNS_11char_traitsIcEEE5sputcEc
-------- W _ZNSt3__215basic_streambufIcNS_11char_traitsIcEEE5sputnEPKcl
-------- W _ZNSt3__215basic_streambufIcNS_11char_traitsIcEEE5uflowEv
-------- W _ZNSt3__215basic_streambufIcNS_11char_traitsIcEEE6sbumpcEv
-------- W _ZNSt3__215basic_streambufIcNS_11char_traitsIcEEE6setbufEPcl
-------- W _ZNSt3__215basic_streambufIcNS_11char_traitsIcEEE6xsgetnEPcl
-------- W _ZNSt3__215basic_streambufIcNS_11char_traitsIcEEE6xsputnEPKcl
-------- W _ZNSt3__215basic_streambufIcNS_11char_traitsIcEEE7__pbumpEl
-------- W _ZNSt3__215basic_streambufIcNS_11char_traitsIcEEE7pubsyncEv
-------- W _ZNSt3__215basic_streambufIcNS_11char_traitsIcEEE7seekoffExNS_8ios_base7seekdirEj
-------- W _ZNSt3__215basic_streambufIcNS_11char_traitsIcEEE7seekposENS_4fposI11__mbstate_tEEj
-------- W _ZNSt3__215basic_streambufIcNS_11char_traitsIcEEE7sungetcEv
-------- W _ZNSt3__215basic_streambufIcNS_11char_traitsIcEEE8in_availEv
-------- W _ZNSt3__215basic_streambufIcNS_11char_traitsIcEEE8overflowEi
-------- W _ZNSt3__215basic_streambufIcNS_11char_traitsIcEEE9pbackfailEi
-------- W _ZNSt3__215basic_streambufIcNS_11char_traitsIcEEE9showmanycEv
-------- W _ZNSt3__215basic_streambufIcNS_11char_traitsIcEEE9sputbackcEc
-------- W _ZNSt3__215basic_streambufIcNS_11char_traitsIcEEE9underflowEv
-------- W _ZNSt3__215basic_streambufIcNS_11char_traitsIcEEEC1ERKS3_
-------- W _ZNSt3__215basic_streambufIcNS_11char_traitsIcEEEC1Ev
-------- W _ZNSt3__215basic_streambufIcNS_11char_traitsIcEEEC2ERKS3_
-------- W _ZNSt3__215basic_streambufIcNS_11char_traitsIcEEEC2Ev
-------- W _ZNSt3__215basic_streambufIcNS_11char_traitsIcEEED0Ev
-------- W _ZNSt3__215basic_streambufIcNS_11char_traitsIcEEED1Ev
-------- W _ZNSt3__215basic_streambufIcNS_11char_traitsIcEEED2Ev
-------- W _ZNSt3__215basic_streambufIcNS_11char_traitsIcEEEaSERKS3_
-------- W _ZNSt3__215basic_streambufIwNS_11char_traitsIwEEE10pubseekoffExNS_8ios_base7seekdirEj
-------- W _ZNSt3__215basic_streambufIwNS_11char_traitsIwEEE10pubseekposENS_4fposI11__mbstate_tEEj
-------- W _ZNSt3__215basic_streambufIwNS_11char_traitsIwEEE4swapERS3_
-------- W _ZNSt3__215basic_streambufIwNS_11char_traitsIwEEE4syncEv
-------- W _ZNSt3__215basic_streambufIwNS_11char_traitsIwEEE5gbumpEi
-------- W _ZNSt3__215basic_streambufIwNS_11char_traitsIwEEE5imbueERKNS_6localeE
-------- W _ZNSt3__215basic_streambufIwNS_11char_traitsIwEEE5sgetcEv
-------- W _ZNSt3__215basic_streambufIwNS_11char_traitsIwEEE5sgetnEPwl
-------- W _ZNSt3__215basic_streambufIwNS_11char_traitsIwEEE5sputcEw
-------- W _ZNSt3__215basic_streambufIwNS_11char_traitsIwEEE5sputnEPKwl
-------- W _ZNSt3__215basic_streambufIwNS_11char_traitsIwEEE5uflowEv
-------- W _ZNSt3__215basic_streambufIwNS_11char_traitsIwEEE6sbumpcEv
-------- W _ZNSt3__215basic_streambufIwNS_11char_traitsIwEEE6setbufEPwl
-------- W _ZNSt3__215basic_streambufIwNS_11char_traitsIwEEE6xsgetnEPwl
-------- W _ZNSt3__215basic_streambufIwNS_11char_traitsIwEEE6xsputnEPKwl
-------- W _ZNSt3__215basic_streambufIwNS_11char_traitsIwEEE7pubsyncEv
-------- W _ZNSt3__215basic_streambufIwNS_11char_traitsIwEEE7seekoffExNS_8ios_base7seekdirEj
-------- W _ZNSt3__215basic_streambufIwNS_11char_traitsIwEEE7seekposENS_4fposI11__mbstate_tEEj
-------- W _ZNSt3__215basic_streambufIwNS_11char_traitsIwEEE7sungetcEv
-------- W _ZNSt3__215basic_streambufIwNS_11char_traitsIwEEE8in_availEv
-------- W _ZNSt3__215basic_streambufIwNS_11char_traitsIwEEE8overflowEj
-------- W _ZNSt3__215basic_streambufIwNS_11char_traitsIwEEE9pbackfailEj
-------- W _ZNSt3__215basic_streambufIwNS_11char_traitsIwEEE9showmanycEv
-------- W _ZNSt3__215basic_streambufIwNS_11char_traitsIwEEE9sputbackcEw
-------- W _ZNSt3__215basic_streambufIwNS_11char_traitsIwEEE9underflowEv
-------- W _ZNSt3__215basic_streambufIwNS_11char_traitsIwEEEC1ERKS3_
-------- W _ZNSt3__215basic_streambufIwNS_11char_traitsIwEEEC1Ev
-------- W _ZNSt3__215basic_streambufIwNS_11char_traitsIwEEEC2ERKS3_
-------- W _ZNSt3__215basic_streambufIwNS_11char_traitsIwEEEC2Ev
-------- W _ZNSt3__215basic_streambufIwNS_11char_traitsIwEEED0Ev
-------- W _ZNSt3__215basic_streambufIwNS_11char_traitsIwEEED1Ev
-------- W _ZNSt3__215basic_streambufIwNS_11char_traitsIwEEED2Ev
-------- W _ZNSt3__215basic_streambufIwNS_11char_traitsIwEEEaSERKS3_
-------- W _ZNSt3__215error_conditionC2EiRKNS_14error_categoryE
-------- W _ZNSt3__215error_conditionC2INS_4errcEEET_PNS_9enable_ifIXsr23is_error_condition_enumIS3_EE5valueEvE4typeE
-------- T _ZNSt3__215future_categoryEv
-------- W _ZNSt3__215make_error_codeENS_4errcE
-------- W _ZNSt3__215messages_bynameIcEC2ERKNS_12basic_stringIcNS_11char_traitsIcEENS_9allocatorIcEEEEm
-------- W _ZNSt3__215messages_bynameIcED0Ev
-------- W _ZNSt3__215messages_bynameIwEC2ERKNS_12basic_stringIcNS_11char_traitsIcEENS_9allocatorIcEEEEm
-------- W _ZNSt3__215messages_bynameIwED0Ev
-------- T _ZNSt3__215numpunct_bynameIcE6__initEPKc
-------- T _ZNSt3__215numpunct_bynameIcEC1EPKcm
-------- T _ZNSt3__215numpunct_bynameIcEC1ERKNS_12basic_stringIcNS_11char_traitsIcEENS_9allocatorIcEEEEm
-------- T _ZNSt3__215numpunct_bynameIcEC2EPKcm
-------- T _ZNSt3__215numpunct_bynameIcEC2ERKNS_12basic_stringIcNS_11char_traitsIcEENS_9allocatorIcEEEEm
-------- T _ZNSt3__215numpunct_bynameIcED0Ev
-------- T _ZNSt3__215numpunct_bynameIcED1Ev
-------- T _ZNSt3__215numpunct_bynameIcED2Ev
-------- T _ZNSt3__215numpunct_bynameIwE6__initEPKc
-------- T _ZNSt3__215numpunct_bynameIwEC1EPKcm
-------- T _ZNSt3__215numpunct_bynameIwEC1ERKNS_12basic_stringIcNS_11char_traitsIcEENS_9allocatorIcEEEEm
-------- T _ZNSt3__215numpunct_bynameIwEC2EPKcm
-------- T _ZNSt3__215numpunct_bynameIwEC2ERKNS_12basic_stringIcNS_11char_traitsIcEENS_9allocatorIcEEEEm
-------- T _ZNSt3__215numpunct_bynameIwED0Ev
-------- T _ZNSt3__215numpunct_bynameIwED1Ev
-------- T _ZNSt3__215numpunct_bynameIwED2Ev
-------- T _ZNSt3__215recursive_mutex4lockEv
-------- T _ZNSt3__215recursive_mutex6unlockEv
-------- T _ZNSt3__215recursive_mutex8try_lockEv
-------- T _ZNSt3__215recursive_mutexC1Ev
-------- T _ZNSt3__215recursive_mutexC2Ev
-------- T _ZNSt3__215recursive_mutexD1Ev
-------- T _ZNSt3__215recursive_mutexD2Ev
-------- T _ZNSt3__215system_categoryEv
-------- W _ZNSt3__215time_get_bynameIcNS_19istreambuf_iteratorIcNS_11char_traitsIcEEEEEC2ERKNS_12basic_stringIcS3_NS_9allocatorIcEEEEm
-------- W _ZNSt3__215time_get_bynameIcNS_19istreambuf_iteratorIcNS_11char_traitsIcEEEEED0Ev
-------- W _ZNSt3__215time_get_bynameIcNS_19istreambuf_iteratorIcNS_11char_traitsIcEEEEED2Ev
-------- W _ZNSt3__215time_get_bynameIwNS_19istreambuf_iteratorIwNS_11char_traitsIwEEEEEC2ERKNS_12basic_stringIcNS2_IcEENS_9allocatorIcEEEEm
-------- W _ZNSt3__215time_get_bynameIwNS_19istreambuf_iteratorIwNS_11char_traitsIwEEEEED0Ev
-------- W _ZNSt3__215time_get_bynameIwNS_19istreambuf_iteratorIwNS_11char_traitsIwEEEEED2Ev
-------- W _ZNSt3__215time_put_bynameIcNS_19ostreambuf_iteratorIcNS_11char_traitsIcEEEEEC2ERKNS_12basic_stringIcS3_NS_9allocatorIcEEEEm
-------- W _ZNSt3__215time_put_bynameIcNS_19ostreambuf_iteratorIcNS_11char_traitsIcEEEEED0Ev
-------- W _ZNSt3__215time_put_bynameIwNS_19ostreambuf_iteratorIwNS_11char_traitsIwEEEEEC2ERKNS_12basic_stringIcNS2_IcEENS_9allocatorIcEEEEm
-------- W _ZNSt3__215time_put_bynameIwNS_19ostreambuf_iteratorIwNS_11char_traitsIwEEEEED0Ev
-------- T _ZNSt3__216__check_groupingERKNS_12basic_stringIcNS_11char_traitsIcEENS_9allocatorIcEEEEPjS8_Rj
-------- W _ZNSt3__216__deque_iteratorINS_4__fs10filesystem12__dir_streamEPS3_RS3_PS4_lLl0EEC2ES6_S4_
-------- W _ZNSt3__216__deque_iteratorINS_4__fs10filesystem12__dir_streamEPS3_RS3_PS4_lLl0EEppEv
-------- W _ZNSt3__216__do_string_hashIPKcEEmT_S3_
-------- W _ZNSt3__216__libcpp_btowc_lEiP15__locale_struct
-------- W _ZNSt3__216__libcpp_tls_getEj
-------- W _ZNSt3__216__libcpp_tls_setEjPv
-------- W _ZNSt3__216__libcpp_wctob_lEjP15__locale_struct
-------- T _ZNSt3__216__narrow_to_utf8ILm16EED0Ev
-------- T _ZNSt3__216__narrow_to_utf8ILm16EED1Ev
-------- T _ZNSt3__216__narrow_to_utf8ILm16EED2Ev
-------- W _ZNSt3__216__narrow_to_utf8ILm32EEC2Ev
-------- T _ZNSt3__216__narrow_to_utf8ILm32EED0Ev
-------- T _ZNSt3__216__narrow_to_utf8ILm32EED1Ev
-------- T _ZNSt3__216__narrow_to_utf8ILm32EED2Ev
-------- W _ZNSt3__216__pad_and_outputIcNS_11char_traitsIcEEEENS_19ostreambuf_iteratorIT_T0_EES6_PKS4_S8_S8_RNS_8ios_baseES4_
-------- W _ZNSt3__216__pad_and_outputIwNS_11char_traitsIwEEEENS_19ostreambuf_iteratorIT_T0_EES6_PKS4_S8_S8_RNS_8ios_baseES4_
-------- W _ZNSt3__216__throw_bad_castEv
-------- W _ZNSt3__216__to_raw_pointerIKcEEPT_S3_
-------- W _ZNSt3__216__to_raw_pointerIKwEEPT_S3_
-------- W _ZNSt3__216__to_raw_pointerINS_17basic_string_viewIcNS_11char_traitsIcEEEEEEPT_S6_
-------- W _ZNSt3__216__to_raw_pointerINS_4__fs10filesystem12__dir_streamEEEPT_S5_
-------- W _ZNSt3__216__to_raw_pointerINS_4pairINS_17basic_string_viewIcNS_11char_traitsIcEEEENS_4__fs10filesystem12PathPartKindEEEEEPT_SB_
-------- W _ZNSt3__216__to_raw_pointerINS_4pairIPNS_18condition_variableEPNS_5mutexEEEEEPT_S8_
-------- W _ZNSt3__216__to_raw_pointerIPNS_17__assoc_sub_stateEEEPT_S4_
-------- W _ZNSt3__216__to_raw_pointerIPNS_4__fs10filesystem12__dir_streamEEEPT_S6_
-------- W _ZNSt3__216__to_raw_pointerIPNS_6locale5facetEEEPT_S5_
-------- W _ZNSt3__216__to_raw_pointerIcEEPT_S2_
-------- W _ZNSt3__216__to_raw_pointerIwEEPT_S2_
-------- W _ZNSt3__216allocator_traitsINS_15__sso_allocatorIPNS_6locale5facetELm28EEEE10__max_sizeENS_17integral_constantIbLb1EEERKS5_
-------- W _ZNSt3__216allocator_traitsINS_15__sso_allocatorIPNS_6locale5facetELm28EEEE10deallocateERS5_PS4_m
-------- W _ZNSt3__216allocator_traitsINS_15__sso_allocatorIPNS_6locale5facetELm28EEEE11__constructIS4_JEEEvNS_17integral_constantIbLb0EEERS5_PT_DpOT0_
-------- W _ZNSt3__216allocator_traitsINS_15__sso_allocatorIPNS_6locale5facetELm28EEEE20__construct_backwardIS4_EENS_9enable_ifIXaaooL_ZNS_17integral_constantIbLb0EE5valueEEntsr15__has_constructIS5_PT_SB_EE5valuesr31is_trivially_move_constructibleISB_EE5valueEvE4typeERS5_SC_SC_RSC_
-------- W _ZNSt3__216allocator_traitsINS_15__sso_allocatorIPNS_6locale5facetELm28EEEE25__construct_range_forwardIS4_S4_S4_S4_EENS_9enable_ifIXaaaasr31is_trivially_move_constructibleIT0_EE5valuesr7is_sameIT1_T2_EE5valueooL_ZNS_17integral_constantIbLb0EE5valueEEntsr15__has_constructIS5_PS9_RT_EE5valueEvE4typeERS5_PSF_SK_RSE_
-------- W _ZNSt3__216allocator_traitsINS_15__sso_allocatorIPNS_6locale5facetELm28EEEE7destroyIS4_EEvRS5_PT_
-------- W _ZNSt3__216allocator_traitsINS_15__sso_allocatorIPNS_6locale5facetELm28EEEE8allocateERS5_m
-------- W _ZNSt3__216allocator_traitsINS_15__sso_allocatorIPNS_6locale5facetELm28EEEE8max_sizeERKS5_
-------- W _ZNSt3__216allocator_traitsINS_15__sso_allocatorIPNS_6locale5facetELm28EEEE9__destroyIS4_EEvNS_17integral_constantIbLb0EEERS5_PT_
-------- W _ZNSt3__216allocator_traitsINS_15__sso_allocatorIPNS_6locale5facetELm28EEEE9constructIS4_JEEEvRS5_PT_DpOT0_
-------- W _ZNSt3__216allocator_traitsINS_18__hidden_allocatorINS_4pairIPNS_18condition_variableEPNS_5mutexEEEEEE10__max_sizeENS_17integral_constantIbLb1EEERKS8_
-------- W _ZNSt3__216allocator_traitsINS_18__hidden_allocatorINS_4pairIPNS_18condition_variableEPNS_5mutexEEEEEE10deallocateERS8_PS7_m
-------- W _ZNSt3__216allocator_traitsINS_18__hidden_allocatorINS_4pairIPNS_18condition_variableEPNS_5mutexEEEEEE11__constructIS7_JS7_EEEvNS_17integral_constantIbLb0EEERS8_PT_DpOT0_
-------- W _ZNSt3__216allocator_traitsINS_18__hidden_allocatorINS_4pairIPNS_18condition_variableEPNS_5mutexEEEEEE20__construct_backwardIS7_EENS_9enable_ifIXaaooL_ZNS_17integral_constantIbLb0EE5valueEEntsr15__has_constructIS8_PT_SE_EE5valuesr31is_trivially_move_constructibleISE_EE5valueEvE4typeERS8_SF_SF_RSF_
-------- W _ZNSt3__216allocator_traitsINS_18__hidden_allocatorINS_4pairIPNS_18condition_variableEPNS_5mutexEEEEEE7destroyIS7_EEvRS8_PT_
-------- W _ZNSt3__216allocator_traitsINS_18__hidden_allocatorINS_4pairIPNS_18condition_variableEPNS_5mutexEEEEEE8allocateERS8_m
-------- W _ZNSt3__216allocator_traitsINS_18__hidden_allocatorINS_4pairIPNS_18condition_variableEPNS_5mutexEEEEEE8max_sizeERKS8_
-------- W _ZNSt3__216allocator_traitsINS_18__hidden_allocatorINS_4pairIPNS_18condition_variableEPNS_5mutexEEEEEE9__destroyIS7_EEvNS_17integral_constantIbLb0EEERS8_PT_
-------- W _ZNSt3__216allocator_traitsINS_18__hidden_allocatorINS_4pairIPNS_18condition_variableEPNS_5mutexEEEEEE9constructIS7_JS7_EEEvRS8_PT_DpOT0_
-------- W _ZNSt3__216allocator_traitsINS_18__hidden_allocatorIPNS_17__assoc_sub_stateEEEE10__max_sizeENS_17integral_constantIbLb1EEERKS4_
-------- W _ZNSt3__216allocator_traitsINS_18__hidden_allocatorIPNS_17__assoc_sub_stateEEEE10deallocateERS4_PS3_m
-------- W _ZNSt3__216allocator_traitsINS_18__hidden_allocatorIPNS_17__assoc_sub_stateEEEE11__constructIS3_JRKS3_EEEvNS_17integral_constantIbLb0EEERS4_PT_DpOT0_
-------- W _ZNSt3__216allocator_traitsINS_18__hidden_allocatorIPNS_17__assoc_sub_stateEEEE20__construct_backwardIS3_EENS_9enable_ifIXaaooL_ZNS_17integral_constantIbLb0EE5valueEEntsr15__has_constructIS4_PT_SA_EE5valuesr31is_trivially_move_constructibleISA_EE5valueEvE4typeERS4_SB_SB_RSB_
-------- W _ZNSt3__216allocator_traitsINS_18__hidden_allocatorIPNS_17__assoc_sub_stateEEEE7destroyIS3_EEvRS4_PT_
-------- W _ZNSt3__216allocator_traitsINS_18__hidden_allocatorIPNS_17__assoc_sub_stateEEEE8allocateERS4_m
-------- W _ZNSt3__216allocator_traitsINS_18__hidden_allocatorIPNS_17__assoc_sub_stateEEEE8max_sizeERKS4_
-------- W _ZNSt3__216allocator_traitsINS_18__hidden_allocatorIPNS_17__assoc_sub_stateEEEE9__destroyIS3_EEvNS_17integral_constantIbLb0EEERS4_PT_
-------- W _ZNSt3__216allocator_traitsINS_18__hidden_allocatorIPNS_17__assoc_sub_stateEEEE9constructIS3_JRKS3_EEEvRS4_PT_DpOT0_
-------- W _ZNSt3__216allocator_traitsINS_9allocatorINS_17basic_string_viewIcNS_11char_traitsIcEEEEEEE10__max_sizeENS_17integral_constantIbLb1EEERKS6_
-------- W _ZNSt3__216allocator_traitsINS_9allocatorINS_17basic_string_viewIcNS_11char_traitsIcEEEEEEE10deallocateERS6_PS5_m
-------- W _ZNSt3__216allocator_traitsINS_9allocatorINS_17basic_string_viewIcNS_11char_traitsIcEEEEEEE11__constructIS5_JS5_EEEvNS_17integral_constantIbLb1EEERS6_PT_DpOT0_
-------- W _ZNSt3__216allocator_traitsINS_9allocatorINS_17basic_string_viewIcNS_11char_traitsIcEEEEEEE20__construct_backwardIS5_EENS_9enable_ifIXaaooL_ZNS_17integral_constantIbLb1EE5valueEEntsr15__has_constructIS6_PT_SC_EE5valuesr31is_trivially_move_constructibleISC_EE5valueEvE4typeERS6_SD_SD_RSD_
-------- W _ZNSt3__216allocator_traitsINS_9allocatorINS_17basic_string_viewIcNS_11char_traitsIcEEEEEEE7destroyIS5_EEvRS6_PT_
-------- W _ZNSt3__216allocator_traitsINS_9allocatorINS_17basic_string_viewIcNS_11char_traitsIcEEEEEEE8allocateERS6_m
-------- W _ZNSt3__216allocator_traitsINS_9allocatorINS_17basic_string_viewIcNS_11char_traitsIcEEEEEEE8max_sizeERKS6_
-------- W _ZNSt3__216allocator_traitsINS_9allocatorINS_17basic_string_viewIcNS_11char_traitsIcEEEEEEE9__destroyIS5_EEvNS_17integral_constantIbLb1EEERS6_PT_
-------- W _ZNSt3__216allocator_traitsINS_9allocatorINS_17basic_string_viewIcNS_11char_traitsIcEEEEEEE9constructIS5_JS5_EEEvRS6_PT_DpOT0_
-------- W _ZNSt3__216allocator_traitsINS_9allocatorINS_20__shared_ptr_emplaceINS_4__fs10filesystem12__dir_streamENS1_IS5_EEEEEEE10deallocateERS8_PS7_m
-------- W _ZNSt3__216allocator_traitsINS_9allocatorINS_20__shared_ptr_emplaceINS_4__fs10filesystem28recursive_directory_iterator12__shared_impENS1_IS6_EEEEEEE10deallocateERS9_PS8_m
-------- W _ZNSt3__216allocator_traitsINS_9allocatorINS_4__fs10filesystem12__dir_streamEEEE10deallocateERS5_PS4_m
-------- W _ZNSt3__216allocator_traitsINS_9allocatorINS_4__fs10filesystem12__dir_streamEEEE11__constructIS4_JS4_EEEvNS_17integral_constantIbLb1EEERS5_PT_DpOT0_
-------- W _ZNSt3__216allocator_traitsINS_9allocatorINS_4__fs10filesystem12__dir_streamEEEE7destroyIS4_EEvRS5_PT_
-------- W _ZNSt3__216allocator_traitsINS_9allocatorINS_4__fs10filesystem12__dir_streamEEEE8allocateERS5_m
-------- W _ZNSt3__216allocator_traitsINS_9allocatorINS_4__fs10filesystem12__dir_streamEEEE9__destroyIS4_EEvNS_17integral_constantIbLb1EEERS5_PT_
-------- W _ZNSt3__216allocator_traitsINS_9allocatorINS_4__fs10filesystem12__dir_streamEEEE9constructIS4_JS4_EEEvRS5_PT_DpOT0_
-------- W _ZNSt3__216allocator_traitsINS_9allocatorINS_4pairINS_17basic_string_viewIcNS_11char_traitsIcEEEENS_4__fs10filesystem12PathPartKindEEEEEE10__max_sizeENS_17integral_constantIbLb1EEERKSB_
-------- W _ZNSt3__216allocator_traitsINS_9allocatorINS_4pairINS_17basic_string_viewIcNS_11char_traitsIcEEEENS_4__fs10filesystem12PathPartKindEEEEEE10deallocateERSB_PSA_m
-------- W _ZNSt3__216allocator_traitsINS_9allocatorINS_4pairINS_17basic_string_viewIcNS_11char_traitsIcEEEENS_4__fs10filesystem12PathPartKindEEEEEE11__constructISA_JRS6_RS9_EEEvNS_17integral_constantIbLb1EEERSB_PT_DpOT0_
-------- W _ZNSt3__216allocator_traitsINS_9allocatorINS_4pairINS_17basic_string_viewIcNS_11char_traitsIcEEEENS_4__fs10filesystem12PathPartKindEEEEEE20__construct_backwardISA_EENS_9enable_ifIXaaooL_ZNS_17integral_constantIbLb1EE5valueEEntsr15__has_constructISB_PT_SH_EE5valuesr31is_trivially_move_constructibleISH_EE5valueEvE4typeERSB_SI_SI_RSI_
-------- W _ZNSt3__216allocator_traitsINS_9allocatorINS_4pairINS_17basic_string_viewIcNS_11char_traitsIcEEEENS_4__fs10filesystem12PathPartKindEEEEEE7destroyISA_EEvRSB_PT_
-------- W _ZNSt3__216allocator_traitsINS_9allocatorINS_4pairINS_17basic_string_viewIcNS_11char_traitsIcEEEENS_4__fs10filesystem12PathPartKindEEEEEE8allocateERSB_m
-------- W _ZNSt3__216allocator_traitsINS_9allocatorINS_4pairINS_17basic_string_viewIcNS_11char_traitsIcEEEENS_4__fs10filesystem12PathPartKindEEEEEE8max_sizeERKSB_
-------- W _ZNSt3__216allocator_traitsINS_9allocatorINS_4pairINS_17basic_string_viewIcNS_11char_traitsIcEEEENS_4__fs10filesystem12PathPartKindEEEEEE9__destroyISA_EEvNS_17integral_constantIbLb1EEERSB_PT_
-------- W _ZNSt3__216allocator_traitsINS_9allocatorINS_4pairINS_17basic_string_viewIcNS_11char_traitsIcEEEENS_4__fs10filesystem12PathPartKindEEEEEE9constructISA_JRS6_RS9_EEEvRSB_PT_DpOT0_
-------- W _ZNSt3__216allocator_traitsINS_9allocatorIPNS_4__fs10filesystem12__dir_streamEEEE10deallocateERS6_PS5_m
-------- W _ZNSt3__216allocator_traitsINS_9allocatorIPNS_4__fs10filesystem12__dir_streamEEEE11__constructIS5_JRKS5_EEEvNS_17integral_constantIbLb1EEERS6_PT_DpOT0_
-------- W _ZNSt3__216allocator_traitsINS_9allocatorIPNS_4__fs10filesystem12__dir_streamEEEE11__constructIS5_JS5_EEEvNS_17integral_constantIbLb1EEERS6_PT_DpOT0_
-------- W _ZNSt3__216allocator_traitsINS_9allocatorIPNS_4__fs10filesystem12__dir_streamEEEE7destroyIS5_EEvRS6_PT_
-------- W _ZNSt3__216allocator_traitsINS_9allocatorIPNS_4__fs10filesystem12__dir_streamEEEE8allocateERS6_m
-------- W _ZNSt3__216allocator_traitsINS_9allocatorIPNS_4__fs10filesystem12__dir_streamEEEE9__destroyIS5_EEvNS_17integral_constantIbLb1EEERS6_PT_
-------- W _ZNSt3__216allocator_traitsINS_9allocatorIPNS_4__fs10filesystem12__dir_streamEEEE9constructIS5_JRKS5_EEEvRS6_PT_DpOT0_
-------- W _ZNSt3__216allocator_traitsINS_9allocatorIPNS_4__fs10filesystem12__dir_streamEEEE9constructIS5_JS5_EEEvRS6_PT_DpOT0_
-------- W _ZNSt3__216allocator_traitsINS_9allocatorIcEEE10__max_sizeENS_17integral_constantIbLb1EEERKS2_
-------- W _ZNSt3__216allocator_traitsINS_9allocatorIcEEE10deallocateERS2_Pcm
-------- W _ZNSt3__216allocator_traitsINS_9allocatorIcEEE37select_on_container_copy_constructionERKS2_
-------- W _ZNSt3__216allocator_traitsINS_9allocatorIcEEE39__select_on_container_copy_constructionENS_17integral_constantIbLb0EEERKS2_
-------- W _ZNSt3__216allocator_traitsINS_9allocatorIcEEE8allocateERS2_m
-------- W _ZNSt3__216allocator_traitsINS_9allocatorIcEEE8max_sizeERKS2_
-------- W _ZNSt3__216allocator_traitsINS_9allocatorIwEEE10__max_sizeENS_17integral_constantIbLb1EEERKS2_
-------- W _ZNSt3__216allocator_traitsINS_9allocatorIwEEE10deallocateERS2_Pwm
-------- W _ZNSt3__216allocator_traitsINS_9allocatorIwEEE37select_on_container_copy_constructionERKS2_
-------- W _ZNSt3__216allocator_traitsINS_9allocatorIwEEE39__select_on_container_copy_constructionENS_17integral_constantIbLb0EEERKS2_
-------- W _ZNSt3__216allocator_traitsINS_9allocatorIwEEE8allocateERS2_m
-------- W _ZNSt3__216allocator_traitsINS_9allocatorIwEEE8max_sizeERKS2_
-------- W _ZNSt3__216forward_as_tupleIJRKNS_4__fs10filesystem4pathERNS2_17directory_optionsERNS_10error_codeEEEENS_5tupleIJDpOT_EEESD_
-------- W _ZNSt3__216forward_as_tupleIJRNS_9allocatorINS_4__fs10filesystem12__dir_streamEEEEEENS_5tupleIJDpOT_EEESA_
-------- T _ZNSt3__216generic_categoryEv
-------- W _ZNSt3__216reverse_iteratorINS_11__wrap_iterIPNS_17basic_string_viewIcNS_11char_traitsIcEEEEEEEC2ES7_
-------- W _ZNSt3__216reverse_iteratorINS_11__wrap_iterIPNS_17basic_string_viewIcNS_11char_traitsIcEEEEEEEppEv
-------- W _ZNSt3__217_DeallocateCaller27__do_deallocate_handle_sizeEPvm
-------- W _ZNSt3__217_DeallocateCaller33__do_deallocate_handle_size_alignEPvmm
-------- W _ZNSt3__217_DeallocateCaller9__do_callEPv
-------- T _ZNSt3__217__assoc_sub_state10__sub_waitERNS_11unique_lockINS_5mutexEEE
-------- T _ZNSt3__217__assoc_sub_state12__make_readyEv
-------- T _ZNSt3__217__assoc_sub_state13set_exceptionESt13exception_ptr
-------- W _ZNSt3__217__assoc_sub_state15__attach_futureEv
-------- T _ZNSt3__217__assoc_sub_state16__on_zero_sharedEv
-------- T _ZNSt3__217__assoc_sub_state24set_value_at_thread_exitEv
-------- T _ZNSt3__217__assoc_sub_state28set_exception_at_thread_exitESt13exception_ptr
-------- T _ZNSt3__217__assoc_sub_state4copyEv
-------- T _ZNSt3__217__assoc_sub_state4waitEv
-------- T _ZNSt3__217__assoc_sub_state9__executeEv
-------- T _ZNSt3__217__assoc_sub_state9set_valueEv
-------- W _ZNSt3__217__assoc_sub_stateC2Ev
-------- W _ZNSt3__217__assoc_sub_stateD0Ev
-------- W _ZNSt3__217__assoc_sub_stateD2Ev
-------- W _ZNSt3__217__compressed_pairINS_12basic_stringIcNS_11char_traitsIcEENS_9allocatorIcEEE5__repES5_E5firstEv
-------- W _ZNSt3__217__compressed_pairINS_12basic_stringIcNS_11char_traitsIcEENS_9allocatorIcEEE5__repES5_E6secondEv
-------- W _ZNSt3__217__compressed_pairINS_12basic_stringIcNS_11char_traitsIcEENS_9allocatorIcEEE5__repES5_EC2ILb1EvEEv
-------- W _ZNSt3__217__compressed_pairINS_12basic_stringIcNS_11char_traitsIcEENS_9allocatorIcEEE5__repES5_EC2IRKS5_EENS_12__second_tagEOT_
-------- W _ZNSt3__217__compressed_pairINS_12basic_stringIcNS_11char_traitsIcEENS_9allocatorIcEEE5__repES5_EC2IS5_EENS_12__second_tagEOT_
-------- W _ZNSt3__217__compressed_pairINS_12basic_stringIwNS_11char_traitsIwEENS_9allocatorIwEEE5__repES5_E5firstEv
-------- W _ZNSt3__217__compressed_pairINS_12basic_stringIwNS_11char_traitsIwEENS_9allocatorIwEEE5__repES5_E6secondEv
-------- W _ZNSt3__217__compressed_pairINS_12basic_stringIwNS_11char_traitsIwEENS_9allocatorIwEEE5__repES5_EC2ILb1EvEEv
-------- W _ZNSt3__217__compressed_pairINS_12basic_stringIwNS_11char_traitsIwEENS_9allocatorIwEEE5__repES5_EC2IRKS5_EENS_12__second_tagEOT_
-------- W _ZNSt3__217__compressed_pairINS_12basic_stringIwNS_11char_traitsIwEENS_9allocatorIwEEE5__repES5_EC2IS5_EENS_12__second_tagEOT_
-------- W _ZNSt3__217__compressed_pairINS_9allocatorINS_4__fs10filesystem12__dir_streamEEES4_E5firstEv
-------- W _ZNSt3__217__compressed_pairINS_9allocatorINS_4__fs10filesystem12__dir_streamEEES4_E6secondEv
-------- W _ZNSt3__217__compressed_pairINS_9allocatorINS_4__fs10filesystem12__dir_streamEEES4_EC2IJRS5_EJRKNS3_4pathERNS3_17directory_optionsERNS_10error_codeEEEENS_21piecewise_construct_tENS_5tupleIJDpT_EEENSH_IJDpT0_EEE
-------- W _ZNSt3__217__compressed_pairINS_9allocatorINS_4__fs10filesystem28recursive_directory_iterator12__shared_impEEES5_E5firstEv
-------- W _ZNSt3__217__compressed_pairINS_9allocatorINS_4__fs10filesystem28recursive_directory_iterator12__shared_impEEES5_E6secondEv
-------- W _ZNSt3__217__compressed_pairINS_9allocatorINS_4__fs10filesystem28recursive_directory_iterator12__shared_impEEES5_EC2IS6_Lb1EEEOT_
-------- W _ZNSt3__217__compressed_pairIP8_IO_FILEPFiS2_EE5firstEv
-------- W _ZNSt3__217__compressed_pairIP8_IO_FILEPFiS2_EE6secondEv
-------- W _ZNSt3__217__compressed_pairIP8_IO_FILEPFiS2_EEC2IRS2_S4_EEOT_OT0_
-------- W _ZNSt3__217__compressed_pairIPNS_14__shared_countENS_22__release_shared_countEE5firstEv
-------- W _ZNSt3__217__compressed_pairIPNS_14__shared_countENS_22__release_shared_countEE6secondEv
-------- W _ZNSt3__217__compressed_pairIPNS_14__shared_countENS_22__release_shared_countEEC2IRS2_Lb1EEEOT_
-------- W _ZNSt3__217__compressed_pairIPNS_17basic_string_viewIcNS_11char_traitsIcEEEENS_9allocatorIS4_EEE5firstEv
-------- W _ZNSt3__217__compressed_pairIPNS_17basic_string_viewIcNS_11char_traitsIcEEEENS_9allocatorIS4_EEE6secondEv
-------- W _ZNSt3__217__compressed_pairIPNS_17basic_string_viewIcNS_11char_traitsIcEEEENS_9allocatorIS4_EEEC2IDnLb1EEEOT_
-------- W _ZNSt3__217__compressed_pairIPNS_17basic_string_viewIcNS_11char_traitsIcEEEERNS_9allocatorIS4_EEE5firstEv
-------- W _ZNSt3__217__compressed_pairIPNS_17basic_string_viewIcNS_11char_traitsIcEEEERNS_9allocatorIS4_EEE6secondEv
-------- W _ZNSt3__217__compressed_pairIPNS_17basic_string_viewIcNS_11char_traitsIcEEEERNS_9allocatorIS4_EEEC2IDnS8_EEOT_OT0_
-------- W _ZNSt3__217__compressed_pairIPNS_20__shared_ptr_emplaceINS_4__fs10filesystem12__dir_streamENS_9allocatorIS4_EEEENS_22__allocator_destructorINS5_IS7_EEEEE5firstEv
-------- W _ZNSt3__217__compressed_pairIPNS_20__shared_ptr_emplaceINS_4__fs10filesystem12__dir_streamENS_9allocatorIS4_EEEENS_22__allocator_destructorINS5_IS7_EEEEE6secondEv
-------- W _ZNSt3__217__compressed_pairIPNS_20__shared_ptr_emplaceINS_4__fs10filesystem12__dir_streamENS_9allocatorIS4_EEEENS_22__allocator_destructorINS5_IS7_EEEEEC2IRS8_SB_EEOT_OT0_
-------- W _ZNSt3__217__compressed_pairIPNS_20__shared_ptr_emplaceINS_4__fs10filesystem28recursive_directory_iterator12__shared_impENS_9allocatorIS5_EEEENS_22__allocator_destructorINS6_IS8_EEEEE5firstEv
-------- W _ZNSt3__217__compressed_pairIPNS_20__shared_ptr_emplaceINS_4__fs10filesystem28recursive_directory_iterator12__shared_impENS_9allocatorIS5_EEEENS_22__allocator_destructorINS6_IS8_EEEEE6secondEv
-------- W _ZNSt3__217__compressed_pairIPNS_20__shared_ptr_emplaceINS_4__fs10filesystem28recursive_directory_iterator12__shared_impENS_9allocatorIS5_EEEENS_22__allocator_destructorINS6_IS8_EEEEEC2IRS9_SC_EEOT_OT0_
-------- W _ZNSt3__217__compressed_pairIPNS_4__fs10filesystem12__dir_streamENS_22__allocator_destructorINS_9allocatorIS3_EEEEE5firstEv
-------- W _ZNSt3__217__compressed_pairIPNS_4__fs10filesystem12__dir_streamENS_22__allocator_destructorINS_9allocatorIS3_EEEEE6secondEv
-------- W _ZNSt3__217__compressed_pairIPNS_4__fs10filesystem12__dir_streamENS_22__allocator_destructorINS_9allocatorIS3_EEEEEC2IRS4_S8_EEOT_OT0_
-------- W _ZNSt3__217__compressed_pairIPNS_4pairINS_17basic_string_viewIcNS_11char_traitsIcEEEENS_4__fs10filesystem12PathPartKindEEENS_9allocatorIS9_EEE5firstEv
-------- W _ZNSt3__217__compressed_pairIPNS_4pairINS_17basic_string_viewIcNS_11char_traitsIcEEEENS_4__fs10filesystem12PathPartKindEEENS_9allocatorIS9_EEE6secondEv
-------- W _ZNSt3__217__compressed_pairIPNS_4pairINS_17basic_string_viewIcNS_11char_traitsIcEEEENS_4__fs10filesystem12PathPartKindEEENS_9allocatorIS9_EEEC2IDnLb1EEEOT_
-------- W _ZNSt3__217__compressed_pairIPNS_4pairINS_17basic_string_viewIcNS_11char_traitsIcEEEENS_4__fs10filesystem12PathPartKindEEERNS_9allocatorIS9_EEE5firstEv
-------- W _ZNSt3__217__compressed_pairIPNS_4pairINS_17basic_string_viewIcNS_11char_traitsIcEEEENS_4__fs10filesystem12PathPartKindEEERNS_9allocatorIS9_EEE6secondEv
-------- W _ZNSt3__217__compressed_pairIPNS_4pairINS_17basic_string_viewIcNS_11char_traitsIcEEEENS_4__fs10filesystem12PathPartKindEEERNS_9allocatorIS9_EEEC2IDnSD_EEOT_OT0_
-------- W _ZNSt3__217__compressed_pairIPNS_4pairIPNS_18condition_variableEPNS_5mutexEEENS_18__hidden_allocatorIS6_EEE5firstEv
-------- W _ZNSt3__217__compressed_pairIPNS_4pairIPNS_18condition_variableEPNS_5mutexEEENS_18__hidden_allocatorIS6_EEE6secondEv
-------- W _ZNSt3__217__compressed_pairIPNS_4pairIPNS_18condition_variableEPNS_5mutexEEENS_18__hidden_allocatorIS6_EEEC2IDnLb1EEEOT_
-------- W _ZNSt3__217__compressed_pairIPNS_4pairIPNS_18condition_variableEPNS_5mutexEEERNS_18__hidden_allocatorIS6_EEE5firstEv
-------- W _ZNSt3__217__compressed_pairIPNS_4pairIPNS_18condition_variableEPNS_5mutexEEERNS_18__hidden_allocatorIS6_EEE6secondEv
-------- W _ZNSt3__217__compressed_pairIPNS_4pairIPNS_18condition_variableEPNS_5mutexEEERNS_18__hidden_allocatorIS6_EEEC2IDnSA_EEOT_OT0_
-------- W _ZNSt3__217__compressed_pairIPPFvNS_8ios_base5eventERS1_iEPFvPvEE5firstEv
-------- W _ZNSt3__217__compressed_pairIPPFvNS_8ios_base5eventERS1_iEPFvPvEE6secondEv
-------- W _ZNSt3__217__compressed_pairIPPFvNS_8ios_base5eventERS1_iEPFvPvEEC2IRS6_S9_EEOT_OT0_
-------- W _ZNSt3__217__compressed_pairIPPNS_17__assoc_sub_stateENS_18__hidden_allocatorIS2_EEE5firstEv
-------- W _ZNSt3__217__compressed_pairIPPNS_17__assoc_sub_stateENS_18__hidden_allocatorIS2_EEE6secondEv
-------- W _ZNSt3__217__compressed_pairIPPNS_17__assoc_sub_stateENS_18__hidden_allocatorIS2_EEEC2IDnLb1EEEOT_
-------- W _ZNSt3__217__compressed_pairIPPNS_17__assoc_sub_stateERNS_18__hidden_allocatorIS2_EEE5firstEv
-------- W _ZNSt3__217__compressed_pairIPPNS_17__assoc_sub_stateERNS_18__hidden_allocatorIS2_EEE6secondEv
-------- W _ZNSt3__217__compressed_pairIPPNS_17__assoc_sub_stateERNS_18__hidden_allocatorIS2_EEEC2IDnS6_EEOT_OT0_
-------- W _ZNSt3__217__compressed_pairIPPNS_4__fs10filesystem12__dir_streamENS_9allocatorIS4_EEE5firstEv
-------- W _ZNSt3__217__compressed_pairIPPNS_4__fs10filesystem12__dir_streamENS_9allocatorIS4_EEE6secondEv
-------- W _ZNSt3__217__compressed_pairIPPNS_4__fs10filesystem12__dir_streamENS_9allocatorIS4_EEEC2IDnLb1EEEOT_
-------- W _ZNSt3__217__compressed_pairIPPNS_4__fs10filesystem12__dir_streamERNS_9allocatorIS4_EEE5firstEv
-------- W _ZNSt3__217__compressed_pairIPPNS_4__fs10filesystem12__dir_streamERNS_9allocatorIS4_EEE6secondEv
-------- W _ZNSt3__217__compressed_pairIPPNS_4__fs10filesystem12__dir_streamERNS_9allocatorIS4_EEEC2IDnS8_EEOT_OT0_
-------- W _ZNSt3__217__compressed_pairIPPNS_6locale5facetENS_15__sso_allocatorIS3_Lm28EEEE5firstEv
-------- W _ZNSt3__217__compressed_pairIPPNS_6locale5facetENS_15__sso_allocatorIS3_Lm28EEEE6secondEv
-------- W _ZNSt3__217__compressed_pairIPPNS_6locale5facetENS_15__sso_allocatorIS3_Lm28EEEEC2IDnLb1EEEOT_
-------- W _ZNSt3__217__compressed_pairIPPNS_6locale5facetERNS_15__sso_allocatorIS3_Lm28EEEE5firstEv
-------- W _ZNSt3__217__compressed_pairIPPNS_6locale5facetERNS_15__sso_allocatorIS3_Lm28EEEE6secondEv
-------- W _ZNSt3__217__compressed_pairIPPNS_6locale5facetERNS_15__sso_allocatorIS3_Lm28EEEEC2IDnS7_EEOT_OT0_
-------- W _ZNSt3__217__compressed_pairIPPvPFvS1_EE5firstEv
-------- W _ZNSt3__217__compressed_pairIPPvPFvS1_EE6secondEv
-------- W _ZNSt3__217__compressed_pairIPPvPFvS1_EEC2IRS2_S4_EEOT_OT0_
-------- W _ZNSt3__217__compressed_pairIPcNS_14default_deleteIA_cEEE5firstEv
-------- W _ZNSt3__217__compressed_pairIPcNS_14default_deleteIA_cEEE6secondEv
-------- W _ZNSt3__217__compressed_pairIPcNS_14default_deleteIA_cEEEC2IRS1_Lb1EEEOT_
-------- W _ZNSt3__217__compressed_pairIPcPFvPvEE5firstEv
-------- W _ZNSt3__217__compressed_pairIPcPFvPvEE6secondEv
-------- W _ZNSt3__217__compressed_pairIPcPFvPvEEC2IRS1_S4_EEOT_OT0_
-------- W _ZNSt3__217__compressed_pairIPhPFvPvEE5firstEv
-------- W _ZNSt3__217__compressed_pairIPhPFvPvEE6secondEv
-------- W _ZNSt3__217__compressed_pairIPhPFvPvEEC2IRS1_S4_EEOT_OT0_
-------- W _ZNSt3__217__compressed_pairIPiPFvPvEE5firstEv
-------- W _ZNSt3__217__compressed_pairIPiPFvPvEE6secondEv
-------- W _ZNSt3__217__compressed_pairIPiPFvPvEEC2IRS1_S4_EEOT_OT0_
-------- W _ZNSt3__217__compressed_pairIPjPFvPvEE5firstEv
-------- W _ZNSt3__217__compressed_pairIPjPFvPvEE6secondEv
-------- W _ZNSt3__217__compressed_pairIPjPFvPvEEC2IRS1_S4_EEOT_OT0_
-------- W _ZNSt3__217__compressed_pairIPlPFvPvEE5firstEv
-------- W _ZNSt3__217__compressed_pairIPlPFvPvEE6secondEv
-------- W _ZNSt3__217__compressed_pairIPlPFvPvEEC2IRS1_S4_EEOT_OT0_
-------- W _ZNSt3__217__compressed_pairIPwPFvPvEE5firstEv
-------- W _ZNSt3__217__compressed_pairIPwPFvPvEE6secondEv
-------- W _ZNSt3__217__compressed_pairIPwPFvPvEEC2IRS1_S4_EEOT_OT0_
-------- W _ZNSt3__217__compressed_pairImNS_9allocatorINS_4__fs10filesystem12__dir_streamEEEE5firstEv
-------- W _ZNSt3__217__compressed_pairImNS_9allocatorINS_4__fs10filesystem12__dir_streamEEEE6secondEv
-------- W _ZNSt3__217__compressed_pairImNS_9allocatorINS_4__fs10filesystem12__dir_streamEEEEC2IiLb1EEEOT_
-------- W _ZNSt3__217__libcpp_allocateEmm
-------- W _ZNSt3__217__libcpp_mbrlen_lEPKcmP11__mbstate_tP15__locale_struct
-------- W _ZNSt3__217__libcpp_mbtowc_lEPwPKcmP15__locale_struct
-------- W _ZNSt3__217__libcpp_sscanf_lEPKcP15__locale_structS1_z
-------- T _ZNSt3__217__widen_from_utf8ILm16EED0Ev
-------- T _ZNSt3__217__widen_from_utf8ILm16EED1Ev
-------- T _ZNSt3__217__widen_from_utf8ILm16EED2Ev
-------- W _ZNSt3__217__widen_from_utf8ILm32EEC2Ev
-------- T _ZNSt3__217__widen_from_utf8ILm32EED0Ev
-------- T _ZNSt3__217__widen_from_utf8ILm32EED1Ev
-------- T _ZNSt3__217__widen_from_utf8ILm32EED2Ev
-------- T _ZNSt3__217bad_function_callD0Ev
-------- T _ZNSt3__217bad_function_callD1Ev
-------- T _ZNSt3__217bad_function_callD2Ev
-------- W _ZNSt3__217basic_string_viewIcNS_11char_traitsIcEEEC2EPKc
-------- W _ZNSt3__217basic_string_viewIcNS_11char_traitsIcEEEC2EPKcm
-------- W _ZNSt3__217basic_string_viewIcNS_11char_traitsIcEEEC2Ev
-------- W _ZNSt3__217basic_string_viewIwNS_11char_traitsIwEEEC2EPKwm
-------- T _ZNSt3__217declare_reachableEPv
-------- T _ZNSt3__217iostream_categoryEv
-------- T _ZNSt3__217moneypunct_bynameIcLb0EE4initEPKc
-------- W _ZNSt3__217moneypunct_bynameIcLb0EEC2ERKNS_12basic_stringIcNS_11char_traitsIcEENS_9allocatorIcEEEEm
-------- W _ZNSt3__217moneypunct_bynameIcLb0EED0Ev
-------- W _ZNSt3__217moneypunct_bynameIcLb0EED2Ev
-------- T _ZNSt3__217moneypunct_bynameIcLb1EE4initEPKc
-------- W _ZNSt3__217moneypunct_bynameIcLb1EEC2ERKNS_12basic_stringIcNS_11char_traitsIcEENS_9allocatorIcEEEEm
-------- W _ZNSt3__217moneypunct_bynameIcLb1EED0Ev
-------- W _ZNSt3__217moneypunct_bynameIcLb1EED2Ev
-------- T _ZNSt3__217moneypunct_bynameIwLb0EE4initEPKc
-------- W _ZNSt3__217moneypunct_bynameIwLb0EEC2ERKNS_12basic_stringIcNS_11char_traitsIcEENS_9allocatorIcEEEEm
-------- W _ZNSt3__217moneypunct_bynameIwLb0EED0Ev
-------- W _ZNSt3__217moneypunct_bynameIwLb0EED2Ev
-------- T _ZNSt3__217moneypunct_bynameIwLb1EE4initEPKc
-------- W _ZNSt3__217moneypunct_bynameIwLb1EEC2ERKNS_12basic_stringIcNS_11char_traitsIcEENS_9allocatorIcEEEEm
-------- W _ZNSt3__217moneypunct_bynameIwLb1EED0Ev
-------- W _ZNSt3__217moneypunct_bynameIwLb1EED2Ev
-------- W _ZNSt3__218__find_first_of_ceIPKcS2_PFbccEEET_S5_S5_T0_S6_T1_
-------- W _ZNSt3__218__find_first_of_ceIPKwS2_PFbwwEEET_S5_S5_T0_S6_T1_
-------- W _ZNSt3__218__hidden_allocatorINS_4pairIPNS_18condition_variableEPNS_5mutexEEEE10deallocateEPS6_m
-------- W _ZNSt3__218__hidden_allocatorINS_4pairIPNS_18condition_variableEPNS_5mutexEEEE8allocateEm
-------- W _ZNSt3__218__hidden_allocatorIPNS_17__assoc_sub_stateEE10deallocateEPS2_m
-------- W _ZNSt3__218__hidden_allocatorIPNS_17__assoc_sub_stateEE8allocateEm
-------- W _ZNSt3__218__input_arithmeticIPvcNS_11char_traitsIcEEEERNS_13basic_istreamIT0_T1_EES8_RT_
-------- W _ZNSt3__218__input_arithmeticIPvwNS_11char_traitsIwEEEERNS_13basic_istreamIT0_T1_EES8_RT_
-------- W _ZNSt3__218__input_arithmeticIbcNS_11char_traitsIcEEEERNS_13basic_istreamIT0_T1_EES7_RT_
-------- W _ZNSt3__218__input_arithmeticIbwNS_11char_traitsIwEEEERNS_13basic_istreamIT0_T1_EES7_RT_
-------- W _ZNSt3__218__input_arithmeticIdcNS_11char_traitsIcEEEERNS_13basic_istreamIT0_T1_EES7_RT_
-------- W _ZNSt3__218__input_arithmeticIdwNS_11char_traitsIwEEEERNS_13basic_istreamIT0_T1_EES7_RT_
-------- W _ZNSt3__218__input_arithmeticIecNS_11char_traitsIcEEEERNS_13basic_istreamIT0_T1_EES7_RT_
-------- W _ZNSt3__218__input_arithmeticIewNS_11char_traitsIwEEEERNS_13basic_istreamIT0_T1_EES7_RT_
-------- W _ZNSt3__218__input_arithmeticIfcNS_11char_traitsIcEEEERNS_13basic_istreamIT0_T1_EES7_RT_
-------- W _ZNSt3__218__input_arithmeticIfwNS_11char_traitsIwEEEERNS_13basic_istreamIT0_T1_EES7_RT_
-------- W _ZNSt3__218__input_arithmeticIjcNS_11char_traitsIcEEEERNS_13basic_istreamIT0_T1_EES7_RT_
-------- W _ZNSt3__218__input_arithmeticIjwNS_11char_traitsIwEEEERNS_13basic_istreamIT0_T1_EES7_RT_
-------- W _ZNSt3__218__input_arithmeticIlcNS_11char_traitsIcEEEERNS_13basic_istreamIT0_T1_EES7_RT_
-------- W _ZNSt3__218__input_arithmeticIlwNS_11char_traitsIwEEEERNS_13basic_istreamIT0_T1_EES7_RT_
-------- W _ZNSt3__218__input_arithmeticImcNS_11char_traitsIcEEEERNS_13basic_istreamIT0_T1_EES7_RT_
-------- W _ZNSt3__218__input_arithmeticImwNS_11char_traitsIwEEEERNS_13basic_istreamIT0_T1_EES7_RT_
-------- W _ZNSt3__218__input_arithmeticItcNS_11char_traitsIcEEEERNS_13basic_istreamIT0_T1_EES7_RT_
-------- W _ZNSt3__218__input_arithmeticItwNS_11char_traitsIwEEEERNS_13basic_istreamIT0_T1_EES7_RT_
-------- W _ZNSt3__218__input_arithmeticIxcNS_11char_traitsIcEEEERNS_13basic_istreamIT0_T1_EES7_RT_
-------- W _ZNSt3__218__input_arithmeticIxwNS_11char_traitsIwEEEERNS_13basic_istreamIT0_T1_EES7_RT_
-------- W _ZNSt3__218__input_arithmeticIycNS_11char_traitsIcEEEERNS_13basic_istreamIT0_T1_EES7_RT_
-------- W _ZNSt3__218__input_arithmeticIywNS_11char_traitsIwEEEERNS_13basic_istreamIT0_T1_EES7_RT_
-------- W _ZNSt3__218__insertion_sort_3IRNS_6__lessIaaEEPaEEvT0_S5_T_
-------- W _ZNSt3__218__insertion_sort_3IRNS_6__lessIccEEPcEEvT0_S5_T_
-------- W _ZNSt3__218__insertion_sort_3IRNS_6__lessIddEEPdEEvT0_S5_T_
-------- W _ZNSt3__218__insertion_sort_3IRNS_6__lessIeeEEPeEEvT0_S5_T_
-------- W _ZNSt3__218__insertion_sort_3IRNS_6__lessIffEEPfEEvT0_S5_T_
-------- W _ZNSt3__218__insertion_sort_3IRNS_6__lessIhhEEPhEEvT0_S5_T_
-------- W _ZNSt3__218__insertion_sort_3IRNS_6__lessIiiEEPiEEvT0_S5_T_
-------- W _ZNSt3__218__insertion_sort_3IRNS_6__lessIjjEEPjEEvT0_S5_T_
-------- W _ZNSt3__218__insertion_sort_3IRNS_6__lessIllEEPlEEvT0_S5_T_
-------- W _ZNSt3__218__insertion_sort_3IRNS_6__lessImmEEPmEEvT0_S5_T_
-------- W _ZNSt3__218__insertion_sort_3IRNS_6__lessIssEEPsEEvT0_S5_T_
-------- W _ZNSt3__218__insertion_sort_3IRNS_6__lessIttEEPtEEvT0_S5_T_
-------- W _ZNSt3__218__insertion_sort_3IRNS_6__lessIwwEEPwEEvT0_S5_T_
-------- W _ZNSt3__218__insertion_sort_3IRNS_6__lessIxxEEPxEEvT0_S5_T_
-------- W _ZNSt3__218__insertion_sort_3IRNS_6__lessIyyEEPyEEvT0_S5_T_
-------- W _ZNSt3__218__libcpp_mbrtowc_lEPwPKcmP11__mbstate_tP15__locale_struct
-------- W _ZNSt3__218__libcpp_refstringC2EPKc
-------- W _ZNSt3__218__libcpp_refstringC2ERKS0_
-------- W _ZNSt3__218__libcpp_refstringaSERKS0_
-------- W _ZNSt3__218__libcpp_wcrtomb_lEPcwP11__mbstate_tP15__locale_struct
-------- W _ZNSt3__218__search_substringIcNS_11char_traitsIcEEEEPKT_S5_S5_S5_S5_
-------- W _ZNSt3__218__search_substringIwNS_11char_traitsIwEEEEPKT_S5_S5_S5_S5_
-------- W _ZNSt3__218__str_find_last_ofIcmNS_11char_traitsIcEELm4294967295EEET0_PKT_S3_S6_S3_S3_
-------- W _ZNSt3__218__str_find_last_ofIwmNS_11char_traitsIwEELm4294967295EEET0_PKT_S3_S6_S3_S3_
-------- T _ZNSt3__218__time_get_storageIcE4initERKNS_5ctypeIcEE
-------- T _ZNSt3__218__time_get_storageIcE9__analyzeEcRKNS_5ctypeIcEE
-------- T _ZNSt3__218__time_get_storageIcEC1EPKc
-------- T _ZNSt3__218__time_get_storageIcEC1ERKNS_12basic_stringIcNS_11char_traitsIcEENS_9allocatorIcEEEE
-------- T _ZNSt3__218__time_get_storageIcEC2EPKc
-------- T _ZNSt3__218__time_get_storageIcEC2ERKNS_12basic_stringIcNS_11char_traitsIcEENS_9allocatorIcEEEE
-------- W _ZNSt3__218__time_get_storageIcED2Ev
-------- T _ZNSt3__218__time_get_storageIwE4initERKNS_5ctypeIwEE
-------- T _ZNSt3__218__time_get_storageIwE9__analyzeEcRKNS_5ctypeIwEE
-------- T _ZNSt3__218__time_get_storageIwEC1EPKc
-------- T _ZNSt3__218__time_get_storageIwEC1ERKNS_12basic_stringIcNS_11char_traitsIcEENS_9allocatorIcEEEE
-------- T _ZNSt3__218__time_get_storageIwEC2EPKc
-------- T _ZNSt3__218__time_get_storageIwEC2ERKNS_12basic_stringIcNS_11char_traitsIcEENS_9allocatorIcEEEE
-------- W _ZNSt3__218__time_get_storageIwED2Ev
-------- T _ZNSt3__218condition_variable10notify_allEv
-------- T _ZNSt3__218condition_variable10notify_oneEv
-------- T _ZNSt3__218condition_variable15__do_timed_waitERNS_11unique_lockINS_5mutexEEENS_6chrono10time_pointINS5_12system_clockENS5_8durationIxNS_5ratioILx1ELx1000000000EEEEEEE
-------- T _ZNSt3__218condition_variable4waitERNS_11unique_lockINS_5mutexEEE
-------- W _ZNSt3__218condition_variableC2Ev
-------- T _ZNSt3__218condition_variableD1Ev
-------- T _ZNSt3__218condition_variableD2Ev
-------- T _ZNSt3__218shared_timed_mutex11lock_sharedEv
-------- T _ZNSt3__218shared_timed_mutex13unlock_sharedEv
-------- T _ZNSt3__218shared_timed_mutex15try_lock_sharedEv
-------- T _ZNSt3__218shared_timed_mutex4lockEv
-------- T _ZNSt3__218shared_timed_mutex6unlockEv
-------- T _ZNSt3__218shared_timed_mutex8try_lockEv
-------- T _ZNSt3__218shared_timed_mutexC1Ev
-------- T _ZNSt3__218shared_timed_mutexC2Ev
-------- W _ZNSt3__219__double_or_nothingIcEEvRNS_10unique_ptrIT_PFvPvEEERPS2_S9_
-------- W _ZNSt3__219__double_or_nothingIjEEvRNS_10unique_ptrIT_PFvPvEEERPS2_S9_
-------- W _ZNSt3__219__double_or_nothingIwEEvRNS_10unique_ptrIT_PFvPvEEERPS2_S9_
-------- W _ZNSt3__219__iostream_categoryD0Ev
-------- W _ZNSt3__219__libcpp_asprintf_lEPPcP15__locale_structPKcz
-------- W _ZNSt3__219__libcpp_deallocateEPvmm
-------- W _ZNSt3__219__libcpp_debug_infoC2Ev
-------- W _ZNSt3__219__libcpp_mutex_lockEP15pthread_mutex_t
-------- W _ZNSt3__219__libcpp_snprintf_lEPcmP15__locale_structPKcz
-------- W _ZNSt3__219__libcpp_tls_createEPjPFvPvE
-------- T _ZNSt3__219__shared_mutex_base11lock_sharedEv
-------- T _ZNSt3__219__shared_mutex_base13unlock_sharedEv
-------- T _ZNSt3__219__shared_mutex_base15try_lock_sharedEv
-------- T _ZNSt3__219__shared_mutex_base4lockEv
-------- T _ZNSt3__219__shared_mutex_base6unlockEv
-------- T _ZNSt3__219__shared_mutex_base8try_lockEv
-------- T _ZNSt3__219__shared_mutex_baseC1Ev
-------- T _ZNSt3__219__shared_mutex_baseC2Ev
-------- T _ZNSt3__219__shared_weak_count14__release_weakEv
-------- W _ZNSt3__219__shared_weak_count16__release_sharedEv
-------- T _ZNSt3__219__shared_weak_count4lockEv
-------- W _ZNSt3__219__shared_weak_countC2El
-------- T _ZNSt3__219__shared_weak_countD0Ev
-------- T _ZNSt3__219__shared_weak_countD1Ev
-------- T _ZNSt3__219__shared_weak_countD2Ev
-------- D _ZNSt3__219__start_std_streamsE
-------- W _ZNSt3__219__str_find_first_ofIcmNS_11char_traitsIcEELm4294967295EEET0_PKT_S3_S6_S3_S3_
-------- W _ZNSt3__219__str_find_first_ofIwmNS_11char_traitsIwEELm4294967295EEET0_PKT_S3_S6_S3_S3_
-------- T _ZNSt3__219__thread_local_dataEv
-------- T _ZNSt3__219__thread_struct_imp25notify_all_at_thread_exitEPNS_18condition_variableEPNS_5mutexE
-------- T _ZNSt3__219__thread_struct_imp27__make_ready_at_thread_exitEPNS_17__assoc_sub_stateE
-------- W _ZNSt3__219__thread_struct_impC2Ev
-------- T _ZNSt3__219__thread_struct_impD1Ev
-------- T _ZNSt3__219__thread_struct_impD2Ev
-------- T _ZNSt3__219declare_no_pointersEPcm
-------- W _ZNSt3__219istreambuf_iteratorIcNS_11char_traitsIcEEE7__proxyC2EcPNS_15basic_streambufIcS2_EE
-------- W _ZNSt3__219istreambuf_iteratorIcNS_11char_traitsIcEEEC2EPNS_15basic_streambufIcS2_EE
-------- W _ZNSt3__219istreambuf_iteratorIcNS_11char_traitsIcEEEC2ERNS_13basic_istreamIcS2_EE
-------- W _ZNSt3__219istreambuf_iteratorIcNS_11char_traitsIcEEEC2Ev
-------- W _ZNSt3__219istreambuf_iteratorIcNS_11char_traitsIcEEEppEi
-------- W _ZNSt3__219istreambuf_iteratorIcNS_11char_traitsIcEEEppEv
-------- W _ZNSt3__219istreambuf_iteratorIwNS_11char_traitsIwEEE7__proxyC2EwPNS_15basic_streambufIwS2_EE
-------- W _ZNSt3__219istreambuf_iteratorIwNS_11char_traitsIwEEEC2EPNS_15basic_streambufIwS2_EE
-------- W _ZNSt3__219istreambuf_iteratorIwNS_11char_traitsIwEEEC2ERNS_13basic_istreamIwS2_EE
-------- W _ZNSt3__219istreambuf_iteratorIwNS_11char_traitsIwEEEC2Ev
-------- W _ZNSt3__219istreambuf_iteratorIwNS_11char_traitsIwEEEppEi
-------- W _ZNSt3__219istreambuf_iteratorIwNS_11char_traitsIwEEEppEv
-------- W _ZNSt3__219ostreambuf_iteratorIcNS_11char_traitsIcEEEC2ERNS_13basic_ostreamIcS2_EE
-------- W _ZNSt3__219ostreambuf_iteratorIcNS_11char_traitsIcEEEaSEc
-------- W _ZNSt3__219ostreambuf_iteratorIcNS_11char_traitsIcEEEdeEv
-------- W _ZNSt3__219ostreambuf_iteratorIcNS_11char_traitsIcEEEppEi
-------- W _ZNSt3__219ostreambuf_iteratorIcNS_11char_traitsIcEEEppEv
-------- W _ZNSt3__219ostreambuf_iteratorIwNS_11char_traitsIwEEEC2ERNS_13basic_ostreamIwS2_EE
-------- W _ZNSt3__219ostreambuf_iteratorIwNS_11char_traitsIwEEEaSEw
-------- W _ZNSt3__219ostreambuf_iteratorIwNS_11char_traitsIwEEEdeEv
-------- W _ZNSt3__219ostreambuf_iteratorIwNS_11char_traitsIwEEEppEi
-------- W _ZNSt3__219ostreambuf_iteratorIwNS_11char_traitsIwEEEppEv
-------- D _ZNSt3__219piecewise_constructE
-------- W _ZNSt3__220__check_for_overflowILm4EEENS_9enable_ifIXeqT_Li4EEvE4typeEm
-------- W _ZNSt3__220__codecvt_utf8_utf16IDiED0Ev
-------- W _ZNSt3__220__codecvt_utf8_utf16IDsED0Ev
-------- W _ZNSt3__220__codecvt_utf8_utf16IwED0Ev
-------- T _ZNSt3__220__get_collation_nameEPKc
-------- W _ZNSt3__220__get_up_to_n_digitsIcNS_19istreambuf_iteratorIcNS_11char_traitsIcEEEEEEiRT0_S5_RjRKNS_5ctypeIT_EEi
-------- W _ZNSt3__220__get_up_to_n_digitsIcPcEEiRT0_S2_RjRKNS_5ctypeIT_EEi
-------- W _ZNSt3__220__get_up_to_n_digitsIwNS_19istreambuf_iteratorIwNS_11char_traitsIwEEEEEEiRT0_S5_RjRKNS_5ctypeIT_EEi
-------- W _ZNSt3__220__get_up_to_n_digitsIwPwEEiRT0_S2_RjRKNS_5ctypeIT_EEi
-------- W _ZNSt3__220__libcpp_mbsrtowcs_lEPwPPKcmP11__mbstate_tP15__locale_struct
-------- W _ZNSt3__220__libcpp_thread_joinEPm
-------- W _ZNSt3__220__shared_ptr_emplaceINS_4__fs10filesystem12__dir_streamENS_9allocatorIS3_EEE16__on_zero_sharedEv
-------- W _ZNSt3__220__shared_ptr_emplaceINS_4__fs10filesystem12__dir_streamENS_9allocatorIS3_EEE21__on_zero_shared_weakEv
-------- W _ZNSt3__220__shared_ptr_emplaceINS_4__fs10filesystem12__dir_streamENS_9allocatorIS3_EEE3getEv
-------- W _ZNSt3__220__shared_ptr_emplaceINS_4__fs10filesystem12__dir_streamENS_9allocatorIS3_EEEC2IJRKNS2_4pathERNS2_17directory_optionsERNS_10error_codeEEEES5_DpOT_
-------- W _ZNSt3__220__shared_ptr_emplaceINS_4__fs10filesystem12__dir_streamENS_9allocatorIS3_EEED0Ev
-------- W _ZNSt3__220__shared_ptr_emplaceINS_4__fs10filesystem12__dir_streamENS_9allocatorIS3_EEED2Ev
-------- W _ZNSt3__220__shared_ptr_emplaceINS_4__fs10filesystem28recursive_directory_iterator12__shared_impENS_9allocatorIS4_EEE16__on_zero_sharedEv
-------- W _ZNSt3__220__shared_ptr_emplaceINS_4__fs10filesystem28recursive_directory_iterator12__shared_impENS_9allocatorIS4_EEE21__on_zero_shared_weakEv
-------- W _ZNSt3__220__shared_ptr_emplaceINS_4__fs10filesystem28recursive_directory_iterator12__shared_impENS_9allocatorIS4_EEE3getEv
-------- W _ZNSt3__220__shared_ptr_emplaceINS_4__fs10filesystem28recursive_directory_iterator12__shared_impENS_9allocatorIS4_EEEC2ES6_
-------- W _ZNSt3__220__shared_ptr_emplaceINS_4__fs10filesystem28recursive_directory_iterator12__shared_impENS_9allocatorIS4_EEED0Ev
-------- W _ZNSt3__220__shared_ptr_emplaceINS_4__fs10filesystem28recursive_directory_iterator12__shared_impENS_9allocatorIS4_EEED2Ev
-------- W _ZNSt3__220__throw_future_errorENS_11future_errcE
-------- W _ZNSt3__220__throw_length_errorEPKc
-------- W _ZNSt3__220__throw_out_of_rangeEPKc
-------- T _ZNSt3__220__throw_system_errorEiPKc
-------- W _ZNSt3__220__time_get_c_storageIcEC2Ev
-------- W _ZNSt3__220__time_get_c_storageIcED2Ev
-------- W _ZNSt3__220__time_get_c_storageIwEC2Ev
-------- W _ZNSt3__220__time_get_c_storageIwED2Ev
-------- W _ZNSt3__220__vector_base_commonILb1EEC2Ev
-------- W _ZNSt3__220atomic_load_explicitIPNSt12experimental15fundamentals_v13pmr15memory_resourceEEET_PKNS_6atomicIS6_EENS_12memory_orderE
-------- W _ZNSt3__220back_insert_iteratorINS_12basic_stringIcNS_11char_traitsIcEENS_9allocatorIcEEEEEC2ERS6_
-------- W _ZNSt3__220back_insert_iteratorINS_12basic_stringIcNS_11char_traitsIcEENS_9allocatorIcEEEEEaSERKc
-------- W _ZNSt3__220back_insert_iteratorINS_12basic_stringIcNS_11char_traitsIcEENS_9allocatorIcEEEEEdeEv
-------- W _ZNSt3__220back_insert_iteratorINS_12basic_stringIcNS_11char_traitsIcEENS_9allocatorIcEEEEEppEv
-------- W _ZNSt3__220back_insert_iteratorINS_12basic_stringIwNS_11char_traitsIwEENS_9allocatorIwEEEEEC2ERS6_
-------- W _ZNSt3__220back_insert_iteratorINS_12basic_stringIwNS_11char_traitsIwEENS_9allocatorIwEEEEEaSEOw
-------- W _ZNSt3__220back_insert_iteratorINS_12basic_stringIwNS_11char_traitsIwEENS_9allocatorIwEEEEEdeEv
-------- W _ZNSt3__220back_insert_iteratorINS_12basic_stringIwNS_11char_traitsIwEENS_9allocatorIwEEEEEppEv
-------- W _ZNSt3__220make_error_conditionENS_4errcE
-------- W _ZNSt3__221__libcpp_acquire_loadImEET_PKS1_
-------- W _ZNSt3__221__libcpp_condvar_waitEP14pthread_cond_tP15pthread_mutex_t
-------- W _ZNSt3__221__libcpp_locale_guardC2ERP15__locale_struct
-------- W _ZNSt3__221__libcpp_locale_guardD2Ev
-------- W _ZNSt3__221__libcpp_localeconv_lEP15__locale_struct
-------- W _ZNSt3__221__libcpp_mb_cur_max_lEP15__locale_struct
-------- W _ZNSt3__221__libcpp_mbsnrtowcs_lEPwPPKcmmP11__mbstate_tP15__locale_struct
-------- W _ZNSt3__221__libcpp_mutex_unlockEP15pthread_mutex_t
-------- W _ZNSt3__221__libcpp_thread_yieldEv
-------- W _ZNSt3__221__libcpp_wcsnrtombs_lEPcPPKwmmP11__mbstate_tP15__locale_struct
-------- W _ZNSt3__221__murmur2_or_cityhashImLm32EEclEPKvm
-------- W _ZNSt3__221__thread_specific_ptrINS_15__thread_structEE11set_pointerEPS1_
-------- W _ZNSt3__221__thread_specific_ptrINS_15__thread_structEE16__at_thread_exitEPv
-------- W _ZNSt3__221__thread_specific_ptrINS_15__thread_structEEC2Ev
-------- W _ZNSt3__221__thread_specific_ptrINS_15__thread_structEED2Ev
-------- T _ZNSt3__221__throw_runtime_errorEPKc
-------- T _ZNSt3__221__undeclare_reachableEPv
-------- T _ZNSt3__221recursive_timed_mutex4lockEv
-------- T _ZNSt3__221recursive_timed_mutex6unlockEv
-------- T _ZNSt3__221recursive_timed_mutex8try_lockEv
-------- T _ZNSt3__221recursive_timed_mutexC1Ev
-------- T _ZNSt3__221recursive_timed_mutexC2Ev
-------- T _ZNSt3__221recursive_timed_mutexD1Ev
-------- T _ZNSt3__221recursive_timed_mutexD2Ev
-------- T _ZNSt3__221undeclare_no_pointersEPcm
-------- W _ZNSt3__222__allocator_destructorINS_9allocatorINS_20__shared_ptr_emplaceINS_4__fs10filesystem12__dir_streamENS1_IS5_EEEEEEEC2ERS8_m
-------- W _ZNSt3__222__allocator_destructorINS_9allocatorINS_20__shared_ptr_emplaceINS_4__fs10filesystem12__dir_streamENS1_IS5_EEEEEEEclEPS7_
-------- W _ZNSt3__222__allocator_destructorINS_9allocatorINS_20__shared_ptr_emplaceINS_4__fs10filesystem28recursive_directory_iterator12__shared_impENS1_IS6_EEEEEEEC2ERS9_m
-------- W _ZNSt3__222__allocator_destructorINS_9allocatorINS_20__shared_ptr_emplaceINS_4__fs10filesystem28recursive_directory_iterator12__shared_impENS1_IS6_EEEEEEEclEPS8_
-------- W _ZNSt3__222__allocator_destructorINS_9allocatorINS_4__fs10filesystem12__dir_streamEEEEC2ERS5_m
-------- W _ZNSt3__222__allocator_destructorINS_9allocatorINS_4__fs10filesystem12__dir_streamEEEEclEPS4_
-------- W _ZNSt3__222__compressed_pair_elemINS_12basic_stringIcNS_11char_traitsIcEENS_9allocatorIcEEE5__repELi0ELb0EE5__getEv
-------- W _ZNSt3__222__compressed_pair_elemINS_12basic_stringIcNS_11char_traitsIcEENS_9allocatorIcEEE5__repELi0ELb0EEC2Ev
-------- W _ZNSt3__222__compressed_pair_elemINS_12basic_stringIwNS_11char_traitsIwEENS_9allocatorIwEEE5__repELi0ELb0EE5__getEv
-------- W _ZNSt3__222__compressed_pair_elemINS_12basic_stringIwNS_11char_traitsIwEENS_9allocatorIwEEE5__repELi0ELb0EEC2Ev
-------- W _ZNSt3__222__compressed_pair_elemINS_14default_deleteIA_cEELi1ELb1EE5__getEv
-------- W _ZNSt3__222__compressed_pair_elemINS_15__sso_allocatorIPNS_6locale5facetELm28EEELi1ELb0EE5__getEv
-------- W _ZNSt3__222__compressed_pair_elemINS_15__sso_allocatorIPNS_6locale5facetELm28EEELi1ELb0EEC2Ev
-------- W _ZNSt3__222__compressed_pair_elemINS_18__hidden_allocatorINS_4pairIPNS_18condition_variableEPNS_5mutexEEEEELi1ELb1EE5__getEv
-------- W _ZNSt3__222__compressed_pair_elemINS_18__hidden_allocatorIPNS_17__assoc_sub_stateEEELi1ELb1EE5__getEv
-------- W _ZNSt3__222__compressed_pair_elemINS_22__allocator_destructorINS_9allocatorINS_20__shared_ptr_emplaceINS_4__fs10filesystem12__dir_streamENS2_IS6_EEEEEEEELi1ELb0EE5__getEv
-------- W _ZNSt3__222__compressed_pair_elemINS_22__allocator_destructorINS_9allocatorINS_20__shared_ptr_emplaceINS_4__fs10filesystem12__dir_streamENS2_IS6_EEEEEEEELi1ELb0EEC2ISA_vEEOT_
-------- W _ZNSt3__222__compressed_pair_elemINS_22__allocator_destructorINS_9allocatorINS_20__shared_ptr_emplaceINS_4__fs10filesystem28recursive_directory_iterator12__shared_impENS2_IS7_EEEEEEEELi1ELb0EE5__getEv
-------- W _ZNSt3__222__compressed_pair_elemINS_22__allocator_destructorINS_9allocatorINS_20__shared_ptr_emplaceINS_4__fs10filesystem28recursive_directory_iterator12__shared_impENS2_IS7_EEEEEEEELi1ELb0EEC2ISB_vEEOT_
-------- W _ZNSt3__222__compressed_pair_elemINS_22__allocator_destructorINS_9allocatorINS_4__fs10filesystem12__dir_streamEEEEELi1ELb0EE5__getEv
-------- W _ZNSt3__222__compressed_pair_elemINS_22__allocator_destructorINS_9allocatorINS_4__fs10filesystem12__dir_streamEEEEELi1ELb0EEC2IS7_vEEOT_
-------- W _ZNSt3__222__compressed_pair_elemINS_22__release_shared_countELi1ELb1EE5__getEv
-------- W _ZNSt3__222__compressed_pair_elemINS_4__fs10filesystem12__dir_streamELi1ELb0EE5__getEv
-------- W _ZNSt3__222__compressed_pair_elemINS_4__fs10filesystem12__dir_streamELi1ELb0EEC2IJRKNS2_4pathERNS2_17directory_optionsERNS_10error_codeEEJLm0ELm1ELm2EEEENS_21piecewise_construct_tENS_5tupleIJDpT_EEENS_15__tuple_indicesIJXspT0_EEEE
-------- W _ZNSt3__222__compressed_pair_elemINS_4__fs10filesystem12__dir_streamELi1ELb0EED2Ev
-------- W _ZNSt3__222__compressed_pair_elemINS_4__fs10filesystem28recursive_directory_iterator12__shared_impELi1ELb0EE5__getEv
-------- W _ZNSt3__222__compressed_pair_elemINS_4__fs10filesystem28recursive_directory_iterator12__shared_impELi1ELb0EEC2Ev
-------- W _ZNSt3__222__compressed_pair_elemINS_4__fs10filesystem28recursive_directory_iterator12__shared_impELi1ELb0EED2Ev
-------- W _ZNSt3__222__compressed_pair_elemINS_9allocatorINS_17basic_string_viewIcNS_11char_traitsIcEEEEEELi1ELb1EE5__getEv
-------- W _ZNSt3__222__compressed_pair_elemINS_9allocatorINS_17basic_string_viewIcNS_11char_traitsIcEEEEEELi1ELb1EEC2Ev
-------- W _ZNSt3__222__compressed_pair_elemINS_9allocatorINS_4__fs10filesystem12__dir_streamEEELi0ELb1EE5__getEv
-------- W _ZNSt3__222__compressed_pair_elemINS_9allocatorINS_4__fs10filesystem12__dir_streamEEELi0ELb1EEC2IJRS5_EJLm0EEEENS_21piecewise_construct_tENS_5tupleIJDpT_EEENS_15__tuple_indicesIJXspT0_EEEE
-------- W _ZNSt3__222__compressed_pair_elemINS_9allocatorINS_4__fs10filesystem12__dir_streamEEELi1ELb1EE5__getEv
-------- W _ZNSt3__222__compressed_pair_elemINS_9allocatorINS_4__fs10filesystem12__dir_streamEEELi1ELb1EEC2Ev
-------- W _ZNSt3__222__compressed_pair_elemINS_9allocatorINS_4__fs10filesystem28recursive_directory_iterator12__shared_impEEELi0ELb1EE5__getEv
-------- W _ZNSt3__222__compressed_pair_elemINS_9allocatorINS_4__fs10filesystem28recursive_directory_iterator12__shared_impEEELi0ELb1EEC2IS6_vEEOT_
-------- W _ZNSt3__222__compressed_pair_elemINS_9allocatorINS_4pairINS_17basic_string_viewIcNS_11char_traitsIcEEEENS_4__fs10filesystem12PathPartKindEEEEELi1ELb1EE5__getEv
-------- W _ZNSt3__222__compressed_pair_elemINS_9allocatorINS_4pairINS_17basic_string_viewIcNS_11char_traitsIcEEEENS_4__fs10filesystem12PathPartKindEEEEELi1ELb1EEC2Ev
-------- W _ZNSt3__222__compressed_pair_elemINS_9allocatorIPNS_4__fs10filesystem12__dir_streamEEELi1ELb1EE5__getEv
-------- W _ZNSt3__222__compressed_pair_elemINS_9allocatorIPNS_4__fs10filesystem12__dir_streamEEELi1ELb1EEC2Ev
-------- W _ZNSt3__222__compressed_pair_elemINS_9allocatorIcEELi1ELb1EE5__getEv
-------- W _ZNSt3__222__compressed_pair_elemINS_9allocatorIcEELi1ELb1EEC2Ev
-------- W _ZNSt3__222__compressed_pair_elemINS_9allocatorIcEELi1ELb1EEC2IRKS2_vEEOT_
-------- W _ZNSt3__222__compressed_pair_elemINS_9allocatorIcEELi1ELb1EEC2IS2_vEEOT_
-------- W _ZNSt3__222__compressed_pair_elemINS_9allocatorIwEELi1ELb1EE5__getEv
-------- W _ZNSt3__222__compressed_pair_elemINS_9allocatorIwEELi1ELb1EEC2Ev
-------- W _ZNSt3__222__compressed_pair_elemINS_9allocatorIwEELi1ELb1EEC2IRKS2_vEEOT_
-------- W _ZNSt3__222__compressed_pair_elemINS_9allocatorIwEELi1ELb1EEC2IS2_vEEOT_
-------- W _ZNSt3__222__compressed_pair_elemIP8_IO_FILELi0ELb0EE5__getEv
-------- W _ZNSt3__222__compressed_pair_elemIP8_IO_FILELi0ELb0EEC2IRS2_vEEOT_
-------- W _ZNSt3__222__compressed_pair_elemIPFiP8_IO_FILEELi1ELb0EE5__getEv
-------- W _ZNSt3__222__compressed_pair_elemIPFiP8_IO_FILEELi1ELb0EEC2IS4_vEEOT_
-------- W _ZNSt3__222__compressed_pair_elemIPFvPvELi1ELb0EE5__getEv
-------- W _ZNSt3__222__compressed_pair_elemIPFvPvELi1ELb0EEC2IS3_vEEOT_
-------- W _ZNSt3__222__compressed_pair_elemIPNS_14__shared_countELi0ELb0EE5__getEv
-------- W _ZNSt3__222__compressed_pair_elemIPNS_14__shared_countELi0ELb0EEC2IRS2_vEEOT_
-------- W _ZNSt3__222__compressed_pair_elemIPNS_17basic_string_viewIcNS_11char_traitsIcEEEELi0ELb0EE5__getEv
-------- W _ZNSt3__222__compressed_pair_elemIPNS_17basic_string_viewIcNS_11char_traitsIcEEEELi0ELb0EEC2IDnvEEOT_
-------- W _ZNSt3__222__compressed_pair_elemIPNS_20__shared_ptr_emplaceINS_4__fs10filesystem12__dir_streamENS_9allocatorIS4_EEEELi0ELb0EE5__getEv
-------- W _ZNSt3__222__compressed_pair_elemIPNS_20__shared_ptr_emplaceINS_4__fs10filesystem12__dir_streamENS_9allocatorIS4_EEEELi0ELb0EEC2IRS8_vEEOT_
-------- W _ZNSt3__222__compressed_pair_elemIPNS_20__shared_ptr_emplaceINS_4__fs10filesystem28recursive_directory_iterator12__shared_impENS_9allocatorIS5_EEEELi0ELb0EE5__getEv
-------- W _ZNSt3__222__compressed_pair_elemIPNS_20__shared_ptr_emplaceINS_4__fs10filesystem28recursive_directory_iterator12__shared_impENS_9allocatorIS5_EEEELi0ELb0EEC2IRS9_vEEOT_
-------- W _ZNSt3__222__compressed_pair_elemIPNS_4__fs10filesystem12__dir_streamELi0ELb0EE5__getEv
-------- W _ZNSt3__222__compressed_pair_elemIPNS_4__fs10filesystem12__dir_streamELi0ELb0EEC2IRS4_vEEOT_
-------- W _ZNSt3__222__compressed_pair_elemIPNS_4pairINS_17basic_string_viewIcNS_11char_traitsIcEEEENS_4__fs10filesystem12PathPartKindEEELi0ELb0EE5__getEv
-------- W _ZNSt3__222__compressed_pair_elemIPNS_4pairINS_17basic_string_viewIcNS_11char_traitsIcEEEENS_4__fs10filesystem12PathPartKindEEELi0ELb0EEC2IDnvEEOT_
-------- W _ZNSt3__222__compressed_pair_elemIPNS_4pairIPNS_18condition_variableEPNS_5mutexEEELi0ELb0EE5__getEv
-------- W _ZNSt3__222__compressed_pair_elemIPNS_4pairIPNS_18condition_variableEPNS_5mutexEEELi0ELb0EEC2IDnvEEOT_
-------- W _ZNSt3__222__compressed_pair_elemIPNS_6locale5facetELi0ELb0EE5__getEv
-------- W _ZNSt3__222__compressed_pair_elemIPNS_6locale5facetELi0ELb0EEC2IRS3_vEEOT_
-------- W _ZNSt3__222__compressed_pair_elemIPPFvNS_8ios_base5eventERS1_iELi0ELb0EE5__getEv
-------- W _ZNSt3__222__compressed_pair_elemIPPFvNS_8ios_base5eventERS1_iELi0ELb0EEC2IRS6_vEEOT_
-------- W _ZNSt3__222__compressed_pair_elemIPPNS_17__assoc_sub_stateELi0ELb0EE5__getEv
-------- W _ZNSt3__222__compressed_pair_elemIPPNS_17__assoc_sub_stateELi0ELb0EEC2IDnvEEOT_
-------- W _ZNSt3__222__compressed_pair_elemIPPNS_4__fs10filesystem12__dir_streamELi0ELb0EE5__getEv
-------- W _ZNSt3__222__compressed_pair_elemIPPNS_4__fs10filesystem12__dir_streamELi0ELb0EEC2IDnvEEOT_
-------- W _ZNSt3__222__compressed_pair_elemIPPNS_6locale5facetELi0ELb0EE5__getEv
-------- W _ZNSt3__222__compressed_pair_elemIPPNS_6locale5facetELi0ELb0EEC2IDnvEEOT_
-------- W _ZNSt3__222__compressed_pair_elemIPPvLi0ELb0EE5__getEv
-------- W _ZNSt3__222__compressed_pair_elemIPPvLi0ELb0EEC2IRS2_vEEOT_
-------- W _ZNSt3__222__compressed_pair_elemIPcLi0ELb0EE5__getEv
-------- W _ZNSt3__222__compressed_pair_elemIPcLi0ELb0EEC2IRS1_vEEOT_
-------- W _ZNSt3__222__compressed_pair_elemIPhLi0ELb0EE5__getEv
-------- W _ZNSt3__222__compressed_pair_elemIPhLi0ELb0EEC2IRS1_vEEOT_
-------- W _ZNSt3__222__compressed_pair_elemIPiLi0ELb0EE5__getEv
-------- W _ZNSt3__222__compressed_pair_elemIPiLi0ELb0EEC2IRS1_vEEOT_
-------- W _ZNSt3__222__compressed_pair_elemIPjLi0ELb0EE5__getEv
-------- W _ZNSt3__222__compressed_pair_elemIPjLi0ELb0EEC2IRS1_vEEOT_
-------- W _ZNSt3__222__compressed_pair_elemIPlLi0ELb0EE5__getEv
-------- W _ZNSt3__222__compressed_pair_elemIPlLi0ELb0EEC2IRS1_vEEOT_
-------- W _ZNSt3__222__compressed_pair_elemIPwLi0ELb0EE5__getEv
-------- W _ZNSt3__222__compressed_pair_elemIPwLi0ELb0EEC2IRS1_vEEOT_
-------- W _ZNSt3__222__compressed_pair_elemIRNS_15__sso_allocatorIPNS_6locale5facetELm28EEELi1ELb0EE5__getEv
-------- W _ZNSt3__222__compressed_pair_elemIRNS_15__sso_allocatorIPNS_6locale5facetELm28EEELi1ELb0EEC2IS6_vEEOT_
-------- W _ZNSt3__222__compressed_pair_elemIRNS_18__hidden_allocatorINS_4pairIPNS_18condition_variableEPNS_5mutexEEEEELi1ELb0EE5__getEv
-------- W _ZNSt3__222__compressed_pair_elemIRNS_18__hidden_allocatorINS_4pairIPNS_18condition_variableEPNS_5mutexEEEEELi1ELb0EEC2IS9_vEEOT_
-------- W _ZNSt3__222__compressed_pair_elemIRNS_18__hidden_allocatorIPNS_17__assoc_sub_stateEEELi1ELb0EE5__getEv
-------- W _ZNSt3__222__compressed_pair_elemIRNS_18__hidden_allocatorIPNS_17__assoc_sub_stateEEELi1ELb0EEC2IS5_vEEOT_
-------- W _ZNSt3__222__compressed_pair_elemIRNS_9allocatorINS_17basic_string_viewIcNS_11char_traitsIcEEEEEELi1ELb0EE5__getEv
-------- W _ZNSt3__222__compressed_pair_elemIRNS_9allocatorINS_17basic_string_viewIcNS_11char_traitsIcEEEEEELi1ELb0EEC2IS7_vEEOT_
-------- W _ZNSt3__222__compressed_pair_elemIRNS_9allocatorINS_4pairINS_17basic_string_viewIcNS_11char_traitsIcEEEENS_4__fs10filesystem12PathPartKindEEEEELi1ELb0EE5__getEv
-------- W _ZNSt3__222__compressed_pair_elemIRNS_9allocatorINS_4pairINS_17basic_string_viewIcNS_11char_traitsIcEEEENS_4__fs10filesystem12PathPartKindEEEEELi1ELb0EEC2ISC_vEEOT_
-------- W _ZNSt3__222__compressed_pair_elemIRNS_9allocatorIPNS_4__fs10filesystem12__dir_streamEEELi1ELb0EE5__getEv
-------- W _ZNSt3__222__compressed_pair_elemIRNS_9allocatorIPNS_4__fs10filesystem12__dir_streamEEELi1ELb0EEC2IS7_vEEOT_
-------- W _ZNSt3__222__compressed_pair_elemImLi0ELb0EE5__getEv
-------- W _ZNSt3__222__compressed_pair_elemImLi0ELb0EEC2IivEEOT_
-------- W _ZNSt3__222__libcpp_mutex_destroyEP15pthread_mutex_t
-------- W _ZNSt3__222__libcpp_mutex_trylockEP15pthread_mutex_t
-------- W _ZNSt3__222__libcpp_thread_detachEPm
-------- W _ZNSt3__222__libcpp_thread_isnullEPKm
-------- W _ZNSt3__222__libcpp_unique_locale3getEv
-------- W _ZNSt3__222__libcpp_unique_localeC2EPKc
-------- W _ZNSt3__222__libcpp_unique_localeD2Ev
-------- W _ZNSt3__222__release_shared_countclEPNS_14__shared_countE
-------- W _ZNSt3__222__str_find_last_not_ofIcmNS_11char_traitsIcEELm4294967295EEET0_PKT_S3_S6_S3_S3_
-------- W _ZNSt3__222__str_find_last_not_ofIwmNS_11char_traitsIwEELm4294967295EEET0_PKT_S3_S6_S3_S3_
-------- W _ZNSt3__223__future_error_categoryD0Ev
-------- W _ZNSt3__223__libcpp_condvar_signalEP14pthread_cond_t
-------- D _ZNSt3__223__libcpp_debug_functionE
-------- W _ZNSt3__223__libcpp_numeric_limitsIcLb1EE3maxEv
-------- W _ZNSt3__223__libcpp_numeric_limitsIiLb1EE3maxEv
-------- W _ZNSt3__223__libcpp_numeric_limitsIiLb1EE3minEv
-------- W _ZNSt3__223__libcpp_numeric_limitsIjLb1EE3maxEv
-------- W _ZNSt3__223__libcpp_numeric_limitsIlLb1EE3maxEv
-------- W _ZNSt3__223__libcpp_numeric_limitsIlLb1EE3minEv
-------- W _ZNSt3__223__libcpp_numeric_limitsImLb1EE3maxEv
-------- W _ZNSt3__223__libcpp_numeric_limitsInLb1EE3minEv
-------- W _ZNSt3__223__libcpp_numeric_limitsInLb1EE6lowestEv
-------- W _ZNSt3__223__libcpp_numeric_limitsIsLb1EE3maxEv
-------- W _ZNSt3__223__libcpp_numeric_limitsIsLb1EE3minEv
-------- W _ZNSt3__223__libcpp_numeric_limitsItLb1EE3maxEv
-------- W _ZNSt3__223__libcpp_numeric_limitsIwLb1EE3maxEv
-------- W _ZNSt3__223__libcpp_numeric_limitsIxLb1EE3maxEv
-------- W _ZNSt3__223__libcpp_numeric_limitsIxLb1EE3minEv
-------- W _ZNSt3__223__libcpp_numeric_limitsIyLb1EE3maxEv
-------- W _ZNSt3__223__str_find_first_not_ofIcmNS_11char_traitsIcEELm4294967295EEET0_PKT_S3_S6_S3_S3_
-------- W _ZNSt3__223__str_find_first_not_ofIwmNS_11char_traitsIwEELm4294967295EEET0_PKT_S3_S6_S3_S3_
-------- W _ZNSt3__223__system_error_categoryD0Ev
-------- W _ZNSt3__223mersenne_twister_engineIjLm32ELm624ELm397ELm31ELj2567483615ELm11ELj4294967295ELm7ELj2636928640ELm15ELj4022730752ELm18ELj1812433253EE4seedEj
-------- W _ZNSt3__223mersenne_twister_engineIjLm32ELm624ELm397ELm31ELj2567483615ELm11ELj4294967295ELm7ELj2636928640ELm15ELj4022730752ELm18ELj1812433253EE8__lshiftILm15EEENS_9enable_ifIXltT_Lm32EEjE4typeEj
-------- W _ZNSt3__223mersenne_twister_engineIjLm32ELm624ELm397ELm31ELj2567483615ELm11ELj4294967295ELm7ELj2636928640ELm15ELj4022730752ELm18ELj1812433253EE8__lshiftILm7EEENS_9enable_ifIXltT_Lm32EEjE4typeEj
-------- W _ZNSt3__223mersenne_twister_engineIjLm32ELm624ELm397ELm31ELj2567483615ELm11ELj4294967295ELm7ELj2636928640ELm15ELj4022730752ELm18ELj1812433253EE8__rshiftILm11EEENS_9enable_ifIXltT_L_ZNS1_3_DtEEEjE4typeEj
-------- W _ZNSt3__223mersenne_twister_engineIjLm32ELm624ELm397ELm31ELj2567483615ELm11ELj4294967295ELm7ELj2636928640ELm15ELj4022730752ELm18ELj1812433253EE8__rshiftILm18EEENS_9enable_ifIXltT_L_ZNS1_3_DtEEEjE4typeEj
-------- W _ZNSt3__223mersenne_twister_engineIjLm32ELm624ELm397ELm31ELj2567483615ELm11ELj4294967295ELm7ELj2636928640ELm15ELj4022730752ELm18ELj1812433253EE8__rshiftILm1EEENS_9enable_ifIXltT_L_ZNS1_3_DtEEEjE4typeEj
-------- W _ZNSt3__223mersenne_twister_engineIjLm32ELm624ELm397ELm31ELj2567483615ELm11ELj4294967295ELm7ELj2636928640ELm15ELj4022730752ELm18ELj1812433253EE8__rshiftILm30EEENS_9enable_ifIXltT_L_ZNS1_3_DtEEEjE4typeEj
-------- W _ZNSt3__223mersenne_twister_engineIjLm32ELm624ELm397ELm31ELj2567483615ELm11ELj4294967295ELm7ELj2636928640ELm15ELj4022730752ELm18ELj1812433253EEC2Ej
-------- W _ZNSt3__223mersenne_twister_engineIjLm32ELm624ELm397ELm31ELj2567483615ELm11ELj4294967295ELm7ELj2636928640ELm15ELj4022730752ELm18ELj1812433253EEclEv
-------- W _ZNSt3__224__generic_error_categoryD0Ev
-------- W _ZNSt3__224__libcpp_condvar_destroyEP14pthread_cond_t
-------- W _ZNSt3__224__libcpp_debug_exception28__libcpp_debug_exception_impC2ERKS1_
-------- W _ZNSt3__224__libcpp_debug_exception28__libcpp_debug_exception_impC2Ev
-------- W _ZNSt3__224__libcpp_debug_exception28__libcpp_debug_exception_impD2Ev
-------- T _ZNSt3__224__libcpp_debug_exceptionC1ERKNS_19__libcpp_debug_infoE
-------- T _ZNSt3__224__libcpp_debug_exceptionC1ERKS0_
-------- T _ZNSt3__224__libcpp_debug_exceptionC1Ev
-------- T _ZNSt3__224__libcpp_debug_exceptionC2ERKNS_19__libcpp_debug_infoE
-------- T _ZNSt3__224__libcpp_debug_exceptionC2ERKS0_
-------- T _ZNSt3__224__libcpp_debug_exceptionC2Ev
-------- T _ZNSt3__224__libcpp_debug_exceptionD0Ev
-------- T _ZNSt3__224__libcpp_debug_exceptionD1Ev
-------- T _ZNSt3__224__libcpp_debug_exceptionD2Ev
-------- W _ZNSt3__224__libcpp_thread_id_equalEmm
-------- W _ZNSt3__224atomic_exchange_explicitIPNSt12experimental15fundamentals_v13pmr15memory_resourceEEET_PNS_6atomicIS6_EES6_NS_12memory_orderE
-------- W _ZNSt3__225__libcpp_thread_sleep_forERKNS_6chrono8durationIxNS_5ratioILx1ELx1000000000EEEEE
-------- W _ZNSt3__225__num_get_signed_integralIlEET_PKcS3_Rji
-------- W _ZNSt3__225__num_get_signed_integralIxEET_PKcS3_Rji
-------- T _ZNSt3__225notify_all_at_thread_exitERNS_18condition_variableENS_11unique_lockINS_5mutexEEE
-------- W _ZNSt3__226__libcpp_condvar_broadcastEP14pthread_cond_t
-------- W _ZNSt3__226__libcpp_condvar_timedwaitEP14pthread_cond_tP15pthread_mutex_tP8timespec
-------- W _ZNSt3__227__insertion_sort_incompleteIRNS_6__lessIaaEEPaEEbT0_S5_T_
-------- W _ZNSt3__227__insertion_sort_incompleteIRNS_6__lessIccEEPcEEbT0_S5_T_
-------- W _ZNSt3__227__insertion_sort_incompleteIRNS_6__lessIddEEPdEEbT0_S5_T_
-------- W _ZNSt3__227__insertion_sort_incompleteIRNS_6__lessIeeEEPeEEbT0_S5_T_
-------- W _ZNSt3__227__insertion_sort_incompleteIRNS_6__lessIffEEPfEEbT0_S5_T_
-------- W _ZNSt3__227__insertion_sort_incompleteIRNS_6__lessIhhEEPhEEbT0_S5_T_
-------- W _ZNSt3__227__insertion_sort_incompleteIRNS_6__lessIiiEEPiEEbT0_S5_T_
-------- W _ZNSt3__227__insertion_sort_incompleteIRNS_6__lessIjjEEPjEEbT0_S5_T_
-------- W _ZNSt3__227__insertion_sort_incompleteIRNS_6__lessIllEEPlEEbT0_S5_T_
-------- W _ZNSt3__227__insertion_sort_incompleteIRNS_6__lessImmEEPmEEbT0_S5_T_
-------- W _ZNSt3__227__insertion_sort_incompleteIRNS_6__lessIssEEPsEEbT0_S5_T_
-------- W _ZNSt3__227__insertion_sort_incompleteIRNS_6__lessIttEEPtEEbT0_S5_T_
-------- W _ZNSt3__227__insertion_sort_incompleteIRNS_6__lessIwwEEPwEEbT0_S5_T_
-------- W _ZNSt3__227__insertion_sort_incompleteIRNS_6__lessIxxEEPxEEbT0_S5_T_
-------- W _ZNSt3__227__insertion_sort_incompleteIRNS_6__lessIyyEEPyEEbT0_S5_T_
-------- T _ZNSt3__227__libcpp_set_debug_functionEPFvRKNS_19__libcpp_debug_infoEE
-------- W _ZNSt3__227__num_get_unsigned_integralIjEET_PKcS3_Rji
-------- W _ZNSt3__227__num_get_unsigned_integralImEET_PKcS3_Rji
-------- W _ZNSt3__227__num_get_unsigned_integralItEET_PKcS3_Rji
-------- W _ZNSt3__227__num_get_unsigned_integralIyEET_PKcS3_Rji
-------- T _ZNSt3__229__libcpp_abort_debug_functionERKNS_19__libcpp_debug_infoE
-------- W _ZNSt3__229__libcpp_recursive_mutex_initEP15pthread_mutex_t
-------- W _ZNSt3__229__libcpp_recursive_mutex_lockEP15pthread_mutex_t
-------- T _ZNSt3__229__libcpp_throw_debug_functionERKNS_19__libcpp_debug_infoE
-------- W _ZNSt3__230__libcpp_thread_get_current_idEv
-------- W _ZNSt3__231__libcpp_recursive_mutex_unlockEP15pthread_mutex_t
-------- W _ZNSt3__232__libcpp_recursive_mutex_destroyEP15pthread_mutex_t
-------- W _ZNSt3__232__libcpp_recursive_mutex_trylockEP15pthread_mutex_t
-------- W _ZNSt3__234__libcpp_atomic_refcount_decrementIlEET_RS1_
-------- W _ZNSt3__234__libcpp_atomic_refcount_incrementIlEET_RS1_
-------- W _ZNSt3__238__input_arithmetic_with_numeric_limitsIicNS_11char_traitsIcEEEERNS_13basic_istreamIT0_T1_EES7_RT_
-------- W _ZNSt3__238__input_arithmetic_with_numeric_limitsIiwNS_11char_traitsIwEEEERNS_13basic_istreamIT0_T1_EES7_RT_
-------- W _ZNSt3__238__input_arithmetic_with_numeric_limitsIscNS_11char_traitsIcEEEERNS_13basic_istreamIT0_T1_EES7_RT_
-------- W _ZNSt3__238__input_arithmetic_with_numeric_limitsIswNS_11char_traitsIwEEEERNS_13basic_istreamIT0_T1_EES7_RT_
-------- D _ZNSt3__23cinE
-------- W _ZNSt3__23endIcLm10EEEPT_RAT0__S1_
-------- W _ZNSt3__23endIwLm10EEEPT_RAT0__S1_
-------- W _ZNSt3__23getILm0EJRKNS_4__fs10filesystem4pathERNS2_17directory_optionsERNS_10error_codeEEEERNS_13tuple_elementIXT_ENS_5tupleIJDpT0_EEEE4typeERSE_
-------- W _ZNSt3__23getILm0EJRNS_9allocatorINS_4__fs10filesystem12__dir_streamEEEEEERNS_13tuple_elementIXT_ENS_5tupleIJDpT0_EEEE4typeERSB_
-------- W _ZNSt3__23getILm1EJRKNS_4__fs10filesystem4pathERNS2_17directory_optionsERNS_10error_codeEEEERNS_13tuple_elementIXT_ENS_5tupleIJDpT0_EEEE4typeERSE_
-------- W _ZNSt3__23getILm2EJRKNS_4__fs10filesystem4pathERNS2_17directory_optionsERNS_10error_codeEEEERNS_13tuple_elementIXT_ENS_5tupleIJDpT0_EEEE4typeERSE_
-------- W _ZNSt3__23maxIPcEERKT_S4_S4_
-------- W _ZNSt3__23maxIPcNS_6__lessIS1_S1_EEEERKT_S6_S6_T0_
-------- W _ZNSt3__23maxIiEERKT_S3_S3_
-------- W _ZNSt3__23maxIiNS_6__lessIiiEEEERKT_S5_S5_T0_
-------- W _ZNSt3__23maxIlEERKT_S3_S3_
-------- W _ZNSt3__23maxIlNS_6__lessIllEEEERKT_S5_S5_T0_
-------- W _ZNSt3__23maxImEERKT_S3_S3_
-------- W _ZNSt3__23maxImNS_6__lessImmEEEERKT_S5_S5_T0_
-------- W _ZNSt3__23minIPcEERKT_S4_S4_
-------- W _ZNSt3__23minIPcNS_6__lessIS1_S1_EEEERKT_S6_S6_T0_
-------- W _ZNSt3__23minIlEERKT_S3_S3_
-------- W _ZNSt3__23minIlNS_6__lessIllEEEERKT_S5_S5_T0_
-------- W _ZNSt3__23minImEERKT_S3_S3_
-------- W _ZNSt3__23minImNS_6__lessImmEEEERKT_S5_S5_T0_
-------- T _ZNSt3__24__fs10filesystem10__absoluteERKNS1_4pathEPNS_10error_codeE
-------- T _ZNSt3__24__fs10filesystem10hash_valueERKNS1_4pathE
-------- W _ZNSt3__24__fs10filesystem10is_symlinkENS1_11file_statusE
-------- T _ZNSt3__24__fs10filesystem11__canonicalERKNS1_4pathEPNS_10error_codeE
-------- T _ZNSt3__24__fs10filesystem11__copy_fileERKNS1_4pathES4_NS1_12copy_optionsEPNS_10error_codeE
-------- T _ZNSt3__24__fs10filesystem11__file_sizeERKNS1_4pathEPNS_10error_codeE
-------- W _ZNSt3__24__fs10filesystem11file_status11permissionsENS1_5permsE
-------- W _ZNSt3__24__fs10filesystem11file_status4typeENS1_9file_typeE
-------- W _ZNSt3__24__fs10filesystem11file_statusC2ENS1_9file_typeENS1_5permsE
-------- W _ZNSt3__24__fs10filesystem11file_statusC2Ev
-------- W _ZNSt3__24__fs10filesystem11file_statusD2Ev
-------- W _ZNSt3__24__fs10filesystem12__dir_stream5closeEv
-------- W _ZNSt3__24__fs10filesystem12__dir_stream7advanceERNS_10error_codeE
-------- W _ZNSt3__24__fs10filesystem12__dir_streamC2EOS2_
-------- W _ZNSt3__24__fs10filesystem12__dir_streamC2ERKNS1_4pathENS1_17directory_optionsERNS_10error_codeE
-------- W _ZNSt3__24__fs10filesystem12__dir_streamD2Ev
-------- T _ZNSt3__24__fs10filesystem12__equivalentERKNS1_4pathES4_PNS_10error_codeE
-------- T _ZNSt3__24__fs10filesystem12__remove_allERKNS1_4pathEPNS_10error_codeE
-------- W _ZNSt3__24__fs10filesystem12is_directoryENS1_11file_statusE
-------- W _ZNSt3__24__fs10filesystem12status_knownENS1_11file_statusE
-------- T _ZNSt3__24__fs10filesystem13__fs_is_emptyERKNS1_4pathEPNS_10error_codeE
-------- T _ZNSt3__24__fs10filesystem13__permissionsERKNS1_4pathENS1_5permsENS1_12perm_optionsEPNS_10error_codeE
-------- T _ZNSt3__24__fs10filesystem13__resize_fileERKNS1_4pathEyPNS_10error_codeE
-------- T _ZNSt3__24__fs10filesystem14__copy_symlinkERKNS1_4pathES4_PNS_10error_codeE
-------- T _ZNSt3__24__fs10filesystem14__current_pathEPNS_10error_codeE
-------- T _ZNSt3__24__fs10filesystem14__current_pathERKNS1_4pathEPNS_10error_codeE
-------- W _ZNSt3__24__fs10filesystem14__is_separatorIcEENS_9enable_ifIXsr18__can_convert_charIT_EE5valueEbE4typeES4_
-------- T _ZNSt3__24__fs10filesystem14__read_symlinkERKNS1_4pathEPNS_10error_codeE
-------- T _ZNSt3__24__fs10filesystem15directory_entry12__do_refreshEv
-------- W _ZNSt3__24__fs10filesystem15directory_entry13__cached_data7__resetEv
-------- W _ZNSt3__24__fs10filesystem15directory_entry13__cached_dataC2Ev
-------- W _ZNSt3__24__fs10filesystem15directory_entry19__assign_iter_entryEONS1_4pathENS2_13__cached_dataE
-------- W _ZNSt3__24__fs10filesystem15directory_entry20__create_iter_resultENS1_9file_typeE
-------- W _ZNSt3__24__fs10filesystem15directory_entryC2EOS2_
-------- W _ZNSt3__24__fs10filesystem15directory_entryC2Ev
-------- W _ZNSt3__24__fs10filesystem15directory_entryD2Ev
-------- W _ZNSt3__24__fs10filesystem15is_regular_fileENS1_11file_statusE
-------- T _ZNSt3__24__fs10filesystem16_FilesystemClock3nowEv
-------- D _ZNSt3__24__fs10filesystem16_FilesystemClock9is_steadyE
-------- T _ZNSt3__24__fs10filesystem16__create_symlinkERKNS1_4pathES4_PNS_10error_codeE
-------- T _ZNSt3__24__fs10filesystem16__symlink_statusERKNS1_4pathEPNS_10error_codeE
-------- T _ZNSt3__24__fs10filesystem16filesystem_error13__create_whatEi
-------- T _ZNSt3__24__fs10filesystem16filesystem_errorD0Ev
-------- T _ZNSt3__24__fs10filesystem16filesystem_errorD1Ev
-------- T _ZNSt3__24__fs10filesystem16filesystem_errorD2Ev
-------- T _ZNSt3__24__fs10filesystem17__hard_link_countERKNS1_4pathEPNS_10error_codeE
-------- T _ZNSt3__24__fs10filesystem17__last_write_timeERKNS1_4pathENS_6chrono10time_pointINS1_16_FilesystemClockENS5_8durationInNS_5ratioILx1ELx1000000000EEEEEEEPNS_10error_codeE
-------- T _ZNSt3__24__fs10filesystem17__last_write_timeERKNS1_4pathEPNS_10error_codeE
-------- T _ZNSt3__24__fs10filesystem18__create_directoryERKNS1_4pathEPNS_10error_codeE
-------- T _ZNSt3__24__fs10filesystem18__create_directoryERKNS1_4pathES4_PNS_10error_codeE
-------- T _ZNSt3__24__fs10filesystem18__create_hard_linkERKNS1_4pathES4_PNS_10error_codeE
-------- T _ZNSt3__24__fs10filesystem18__weakly_canonicalERKNS1_4pathEPNS_10error_codeE
-------- T _ZNSt3__24__fs10filesystem18directory_iterator11__incrementEPNS_10error_codeE
-------- W _ZNSt3__24__fs10filesystem18directory_iterator9incrementERNS_10error_codeE
-------- T _ZNSt3__24__fs10filesystem18directory_iteratorC1ERKNS1_4pathEPNS_10error_codeENS1_17directory_optionsE
-------- W _ZNSt3__24__fs10filesystem18directory_iteratorC2ERKNS1_4pathE
-------- T _ZNSt3__24__fs10filesystem18directory_iteratorC2ERKNS1_4pathEPNS_10error_codeENS1_17directory_optionsE
-------- W _ZNSt3__24__fs10filesystem18directory_iteratorC2ERKNS1_4pathERNS_10error_codeE
-------- W _ZNSt3__24__fs10filesystem18directory_iteratorC2Ev
-------- W _ZNSt3__24__fs10filesystem18directory_iteratorD2Ev
-------- T _ZNSt3__24__fs10filesystem20__create_directoriesERKNS1_4pathEPNS_10error_codeE
-------- W _ZNSt3__24__fs10filesystem20__is_pathable_stringINS_12basic_stringIcNS_11char_traitsIcEENS_9allocatorIcEEEEvE11__range_endERKS8_
-------- W _ZNSt3__24__fs10filesystem20__is_pathable_stringINS_12basic_stringIcNS_11char_traitsIcEENS_9allocatorIcEEEEvE13__range_beginERKS8_
-------- W _ZNSt3__24__fs10filesystem20__is_pathable_stringINS_17basic_string_viewIcNS_11char_traitsIcEEEEvE11__range_endERKS6_
-------- W _ZNSt3__24__fs10filesystem20__is_pathable_stringINS_17basic_string_viewIcNS_11char_traitsIcEEEEvE13__range_beginERKS6_
-------- W _ZNSt3__24__fs10filesystem20__is_pathable_stringINS_17basic_string_viewIcNS_11char_traitsIcEEEEvE15__first_or_nullERKS6_
-------- T _ZNSt3__24__fs10filesystem21__temp_directory_pathEPNS_10error_codeE
-------- W _ZNSt3__24__fs10filesystem24__is_pathable_char_arrayIA1_cPccLb1EE11__range_endEPKc
-------- W _ZNSt3__24__fs10filesystem24__is_pathable_char_arrayIA1_cPccLb1EE13__range_beginEPKc
-------- W _ZNSt3__24__fs10filesystem24__is_pathable_char_arrayIA1_cPccLb1EE15__first_or_nullEPKc
-------- W _ZNSt3__24__fs10filesystem24__is_pathable_char_arrayIA2_cPccLb1EE11__range_endEPKc
-------- W _ZNSt3__24__fs10filesystem24__is_pathable_char_arrayIA2_cPccLb1EE13__range_beginEPKc
-------- W _ZNSt3__24__fs10filesystem24__is_pathable_char_arrayIA3_cPccLb1EE11__range_endEPKc
-------- W _ZNSt3__24__fs10filesystem24__is_pathable_char_arrayIA3_cPccLb1EE13__range_beginEPKc
-------- W _ZNSt3__24__fs10filesystem24__is_pathable_char_arrayIA3_cPccLb1EE15__first_or_nullEPKc
-------- W _ZNSt3__24__fs10filesystem24__is_pathable_char_arrayIA4097_cPccLb1EE11__range_endEPKc
-------- W _ZNSt3__24__fs10filesystem24__is_pathable_char_arrayIA4097_cPccLb1EE13__range_beginEPKc
-------- W _ZNSt3__24__fs10filesystem24__is_pathable_char_arrayIPKcS4_cLb1EE11__range_endES4_
-------- W _ZNSt3__24__fs10filesystem24__is_pathable_char_arrayIPKcS4_cLb1EE13__range_beginES4_
-------- W _ZNSt3__24__fs10filesystem24__is_pathable_char_arrayIPcS3_cLb1EE11__range_endEPKc
-------- W _ZNSt3__24__fs10filesystem24__is_pathable_char_arrayIPcS3_cLb1EE13__range_beginEPKc
-------- W _ZNSt3__24__fs10filesystem24__throw_filesystem_errorIJRNS_12basic_stringIcNS_11char_traitsIcEENS_9allocatorIcEEEERKNS1_4pathERKNS_10error_codeEEEEvDpOT_
-------- W _ZNSt3__24__fs10filesystem24__throw_filesystem_errorIJRNS_12basic_stringIcNS_11char_traitsIcEENS_9allocatorIcEEEERKNS1_4pathESC_RKNS_10error_codeEEEEvDpOT_
-------- W _ZNSt3__24__fs10filesystem24__throw_filesystem_errorIJRNS_12basic_stringIcNS_11char_traitsIcEENS_9allocatorIcEEEERKNS_10error_codeEEEEvDpOT_
-------- T _ZNSt3__24__fs10filesystem26__create_directory_symlinkERKNS1_4pathES4_PNS_10error_codeE
-------- T _ZNSt3__24__fs10filesystem28recursive_directory_iterator11__incrementEPNS_10error_codeE
-------- W _ZNSt3__24__fs10filesystem28recursive_directory_iterator12__shared_impC2Ev
-------- W _ZNSt3__24__fs10filesystem28recursive_directory_iterator12__shared_impD2Ev
-------- T _ZNSt3__24__fs10filesystem28recursive_directory_iterator15__try_recursionEPNS_10error_codeE
-------- T _ZNSt3__24__fs10filesystem28recursive_directory_iterator5__popEPNS_10error_codeE
-------- T _ZNSt3__24__fs10filesystem28recursive_directory_iterator9__advanceEPNS_10error_codeE
-------- T _ZNSt3__24__fs10filesystem28recursive_directory_iteratorC1ERKNS1_4pathENS1_17directory_optionsEPNS_10error_codeE
-------- T _ZNSt3__24__fs10filesystem28recursive_directory_iteratorC2ERKNS1_4pathENS1_17directory_optionsEPNS_10error_codeE
-------- W _ZNSt3__24__fs10filesystem4path13__assign_viewERKNS_17basic_string_viewIcNS_11char_traitsIcEEEE
-------- T _ZNSt3__24__fs10filesystem4path17replace_extensionERKS2_
-------- D _ZNSt3__24__fs10filesystem4path19preferred_separatorE
-------- W _ZNSt3__24__fs10filesystem4path20__source_is_absoluteIcEEbT_
-------- W _ZNSt3__24__fs10filesystem4path6appendIA1_cEENS_9enable_ifIXsr13__is_pathableIT_EE5valueERS2_E4typeERKS6_
-------- W _ZNSt3__24__fs10filesystem4path6appendIA3_cEENS_9enable_ifIXsr13__is_pathableIT_EE5valueERS2_E4typeERKS6_
-------- W _ZNSt3__24__fs10filesystem4path6appendINS_17basic_string_viewIcNS_11char_traitsIcEEEEEENS_9enable_ifIXsr13__is_pathableIT_EE5valueERS2_E4typeERKS9_
-------- W _ZNSt3__24__fs10filesystem4path6assignINS_17basic_string_viewIcNS_11char_traitsIcEEEEEENS_9enable_ifIXsr13__is_pathableIT_EE5valueERS2_E4typeERKS9_
-------- T _ZNSt3__24__fs10filesystem4path8iterator11__decrementEv
-------- T _ZNSt3__24__fs10filesystem4path8iterator11__incrementEv
-------- W _ZNSt3__24__fs10filesystem4path8iteratorC2Ev
-------- W _ZNSt3__24__fs10filesystem4path9__reserveEm
-------- W _ZNSt3__24__fs10filesystem4pathC2EONS_12basic_stringIcNS_11char_traitsIcEENS_9allocatorIcEEEENS2_6formatE
-------- W _ZNSt3__24__fs10filesystem4pathC2EOS2_
-------- W _ZNSt3__24__fs10filesystem4pathC2ERKS2_
-------- W _ZNSt3__24__fs10filesystem4pathC2Ev
-------- W _ZNSt3__24__fs10filesystem4pathC2IA1_cvEERKT_NS2_6formatE
-------- W _ZNSt3__24__fs10filesystem4pathC2IA2_cvEERKT_NS2_6formatE
-------- W _ZNSt3__24__fs10filesystem4pathC2IA4097_cvEERKT_NS2_6formatE
-------- W _ZNSt3__24__fs10filesystem4pathC2INS_12basic_stringIcNS_11char_traitsIcEENS_9allocatorIcEEEEvEERKT_NS2_6formatE
-------- W _ZNSt3__24__fs10filesystem4pathC2INS_17basic_string_viewIcNS_11char_traitsIcEEEEvEERKT_NS2_6formatE
-------- W _ZNSt3__24__fs10filesystem4pathC2IPKcvEERKT_NS2_6formatE
-------- W _ZNSt3__24__fs10filesystem4pathC2IPcvEERKT_NS2_6formatE
-------- W _ZNSt3__24__fs10filesystem4pathD2Ev
-------- W _ZNSt3__24__fs10filesystem4pathaSEOS2_
-------- W _ZNSt3__24__fs10filesystem4pathdVERKS2_
-------- W _ZNSt3__24__fs10filesystem4pathdVIA1_cEENS_9enable_ifIXsr13__is_pathableIT_EE5valueERS2_E4typeERKS6_
-------- W _ZNSt3__24__fs10filesystem4pathdVIA3_cEENS_9enable_ifIXsr13__is_pathableIT_EE5valueERS2_E4typeERKS6_
-------- W _ZNSt3__24__fs10filesystem4pathdVINS_17basic_string_viewIcNS_11char_traitsIcEEEEEENS_9enable_ifIXsr13__is_pathableIT_EE5valueERS2_E4typeERKS9_
-------- T _ZNSt3__24__fs10filesystem6__copyERKNS1_4pathES4_NS1_12copy_optionsEPNS_10error_codeE
-------- W _ZNSt3__24__fs10filesystem6existsENS1_11file_statusE
-------- W _ZNSt3__24__fs10filesystem6statusERKNS1_4pathERNS_10error_codeE
-------- T _ZNSt3__24__fs10filesystem7__spaceERKNS1_4pathEPNS_10error_codeE
-------- W _ZNSt3__24__fs10filesystem8_PathCVTIcE14__append_rangeIPKcEENS_9enable_ifIXsr21__is_forward_iteratorIT_EE5valueEvE4typeERNS_12basic_stringIcNS_11char_traitsIcEENS_9allocatorIcEEEES8_S8_
-------- W _ZNSt3__24__fs10filesystem8_PathCVTIcE15__append_sourceIA1_cEEvRNS_12basic_stringIcNS_11char_traitsIcEENS_9allocatorIcEEEERKT_
-------- W _ZNSt3__24__fs10filesystem8_PathCVTIcE15__append_sourceIA2_cEEvRNS_12basic_stringIcNS_11char_traitsIcEENS_9allocatorIcEEEERKT_
-------- W _ZNSt3__24__fs10filesystem8_PathCVTIcE15__append_sourceIA3_cEEvRNS_12basic_stringIcNS_11char_traitsIcEENS_9allocatorIcEEEERKT_
-------- W _ZNSt3__24__fs10filesystem8_PathCVTIcE15__append_sourceIA4097_cEEvRNS_12basic_stringIcNS_11char_traitsIcEENS_9allocatorIcEEEERKT_
-------- W _ZNSt3__24__fs10filesystem8_PathCVTIcE15__append_sourceINS_12basic_stringIcNS_11char_traitsIcEENS_9allocatorIcEEEEEEvRSA_RKT_
-------- W _ZNSt3__24__fs10filesystem8_PathCVTIcE15__append_sourceINS_17basic_string_viewIcNS_11char_traitsIcEEEEEEvRNS_12basic_stringIcS7_NS_9allocatorIcEEEERKT_
-------- W _ZNSt3__24__fs10filesystem8_PathCVTIcE15__append_sourceIPKcEEvRNS_12basic_stringIcNS_11char_traitsIcEENS_9allocatorIcEEEERKT_
-------- W _ZNSt3__24__fs10filesystem8_PathCVTIcE15__append_sourceIPcEEvRNS_12basic_stringIcNS_11char_traitsIcEENS_9allocatorIcEEEERKT_
-------- T _ZNSt3__24__fs10filesystem8__removeERKNS1_4pathEPNS_10error_codeE
-------- T _ZNSt3__24__fs10filesystem8__renameERKNS1_4pathES4_PNS_10error_codeE
-------- T _ZNSt3__24__fs10filesystem8__statusERKNS1_4pathEPNS_10error_codeE
-------- W _ZNSt3__24__fs10filesystem8is_otherENS1_11file_statusE
-------- W _ZNSt3__24__fs10filesystemaNERNS1_5permsES2_
-------- W _ZNSt3__24__fs10filesystemanENS1_12copy_optionsES2_
-------- W _ZNSt3__24__fs10filesystemanENS1_12perm_optionsES2_
-------- W _ZNSt3__24__fs10filesystemanENS1_17directory_optionsES2_
-------- W _ZNSt3__24__fs10filesystemanENS1_5permsES2_
-------- W _ZNSt3__24__fs10filesystemcoENS1_5permsE
-------- W _ZNSt3__24__fs10filesystemdvERKNS1_4pathES4_
-------- W _ZNSt3__24__fs10filesystemeqERKNS1_18directory_iteratorES4_
-------- W _ZNSt3__24__fs10filesystemneERKNS1_18directory_iteratorES4_
-------- W _ZNSt3__24__fs10filesystemoRERNS1_5permsES2_
-------- W _ZNSt3__24__fs10filesystemorENS1_12copy_optionsES2_
-------- W _ZNSt3__24__fs10filesystemorENS1_5permsES2_
-------- D _ZNSt3__24cerrE
-------- D _ZNSt3__24clogE
-------- W _ZNSt3__24copyINS_11__wrap_iterIPKcEEPcEET0_T_S7_S6_
-------- W _ZNSt3__24copyINS_11__wrap_iterIPKwEEPwEET0_T_S7_S6_
-------- W _ZNSt3__24copyINS_19istreambuf_iteratorIcNS_11char_traitsIcEEEENS_19ostreambuf_iteratorIcS3_EEEET0_T_S8_S7_
-------- W _ZNSt3__24copyIPPNS_6locale5facetES4_EET0_T_S6_S5_
-------- W _ZNSt3__24copyIPcNS_19ostreambuf_iteratorIcNS_11char_traitsIcEEEEEET0_T_S7_S6_
-------- W _ZNSt3__24copyIPwNS_19ostreambuf_iteratorIwNS_11char_traitsIwEEEEEET0_T_S7_S6_
-------- D _ZNSt3__24coutE
-------- W _ZNSt3__24findIPKccEET_S3_S3_RKT0_
-------- W _ZNSt3__24findIPKwwEET_S3_S3_RKT0_
-------- W _ZNSt3__24findIPPNS_8__i_nodeES2_EET_S4_S4_RKT0_
-------- W _ZNSt3__24findIPccEET_S2_S2_RKT0_
-------- W _ZNSt3__24findIPwwEET_S2_S2_RKT0_
-------- W _ZNSt3__24fposI11__mbstate_tE5stateES1_
-------- W _ZNSt3__24fposI11__mbstate_tEC2Ex
-------- W _ZNSt3__24moveINS_11__wrap_iterIPcEES3_EET0_T_S5_S4_
-------- W _ZNSt3__24moveINS_11__wrap_iterIPwEES3_EET0_T_S5_S4_
-------- W _ZNSt3__24moveIPPNS_4__fs10filesystem12__dir_streamES5_EET0_T_S7_S6_
-------- W _ZNSt3__24moveIRNS_10shared_ptrINS_4__fs10filesystem12__dir_streamEEEEEONS_16remove_referenceIT_E4typeEOS8_
-------- W _ZNSt3__24moveIRNS_10shared_ptrINS_4__fs10filesystem28recursive_directory_iterator12__shared_impEEEEEONS_16remove_referenceIT_E4typeEOS9_
-------- W _ZNSt3__24moveIRNS_12basic_stringIcNS_11char_traitsIcEENS_9allocatorIcEEEEEEONS_16remove_referenceIT_E4typeEOS9_
-------- W _ZNSt3__24moveIRNS_17__compressed_pairINS_12basic_stringIcNS_11char_traitsIcEENS_9allocatorIcEEE5__repES6_EEEEONS_16remove_referenceIT_E4typeEOSC_
-------- W _ZNSt3__24moveIRNS_17__compressed_pairINS_12basic_stringIwNS_11char_traitsIwEENS_9allocatorIwEEE5__repES6_EEEEONS_16remove_referenceIT_E4typeEOSC_
-------- W _ZNSt3__24moveIRNS_17basic_string_viewIcNS_11char_traitsIcEEEEEEONS_16remove_referenceIT_E4typeEOS7_
-------- W _ZNSt3__24moveIRNS_22__allocator_destructorINS_9allocatorINS_20__shared_ptr_emplaceINS_4__fs10filesystem12__dir_streamENS2_IS6_EEEEEEEEEEONS_16remove_referenceIT_E4typeEOSD_
-------- W _ZNSt3__24moveIRNS_22__allocator_destructorINS_9allocatorINS_20__shared_ptr_emplaceINS_4__fs10filesystem28recursive_directory_iterator12__shared_impENS2_IS7_EEEEEEEEEEONS_16remove_referenceIT_E4typeEOSE_
-------- W _ZNSt3__24moveIRNS_22__allocator_destructorINS_9allocatorINS_4__fs10filesystem12__dir_streamEEEEEEEONS_16remove_referenceIT_E4typeEOSA_
-------- W _ZNSt3__24moveIRNS_4__fs10filesystem12__dir_streamEEEONS_16remove_referenceIT_E4typeEOS6_
-------- W _ZNSt3__24moveIRNS_4__fs10filesystem15directory_entryEEEONS_16remove_referenceIT_E4typeEOS6_
-------- W _ZNSt3__24moveIRNS_4__fs10filesystem4pathEEEONS_16remove_referenceIT_E4typeEOS6_
-------- W _ZNSt3__24moveIRNS_4pairIPNS_18condition_variableEPNS_5mutexEEEEEONS_16remove_referenceIT_E4typeEOS9_
-------- W _ZNSt3__24moveIRNS_5tupleIJRKNS_4__fs10filesystem4pathERNS3_17directory_optionsERNS_10error_codeEEEEEEONS_16remove_referenceIT_E4typeEOSE_
-------- W _ZNSt3__24moveIRNS_5tupleIJRNS_9allocatorINS_4__fs10filesystem12__dir_streamEEEEEEEEONS_16remove_referenceIT_E4typeEOSB_
-------- W _ZNSt3__24moveIRNS_6localeEEEONS_16remove_referenceIT_E4typeEOS4_
-------- W _ZNSt3__24moveIRNS_9allocatorINS_4__fs10filesystem28recursive_directory_iterator12__shared_impEEEEEONS_16remove_referenceIT_E4typeEOS9_
-------- W _ZNSt3__24moveIRNS_9allocatorIcEEEEONS_16remove_referenceIT_E4typeEOS5_
-------- W _ZNSt3__24moveIRNS_9allocatorIwEEEEONS_16remove_referenceIT_E4typeEOS5_
-------- W _ZNSt3__24moveIRPFPvmEEEONS_16remove_referenceIT_E4typeEOS6_
-------- W _ZNSt3__24moveIRPFiP8_IO_FILEEEEONS_16remove_referenceIT_E4typeEOS7_
-------- W _ZNSt3__24moveIRPFvPvEEEONS_16remove_referenceIT_E4typeEOS6_
-------- W _ZNSt3__24moveIRPNS_17basic_string_viewIcNS_11char_traitsIcEEEEEEONS_16remove_referenceIT_E4typeEOS8_
-------- W _ZNSt3__24moveIRPNS_19__shared_weak_countEEEONS_16remove_referenceIT_E4typeEOS5_
-------- W _ZNSt3__24moveIRPNS_4__fs10filesystem12__dir_streamEEEONS_16remove_referenceIT_E4typeEOS7_
-------- W _ZNSt3__24moveIRPNS_4__fs10filesystem28recursive_directory_iterator12__shared_impEEEONS_16remove_referenceIT_E4typeEOS8_
-------- W _ZNSt3__24moveIRPNS_4pairINS_17basic_string_viewIcNS_11char_traitsIcEEEENS_4__fs10filesystem12PathPartKindEEEEEONS_16remove_referenceIT_E4typeEOSD_
-------- W _ZNSt3__24moveIRPNS_4pairIPNS_18condition_variableEPNS_5mutexEEEEEONS_16remove_referenceIT_E4typeEOSA_
-------- W _ZNSt3__24moveIRPPFvNS_8ios_base5eventERS1_iEEEONS_16remove_referenceIT_E4typeEOS9_
-------- W _ZNSt3__24moveIRPPNS_17__assoc_sub_stateEEEONS_16remove_referenceIT_E4typeEOS6_
-------- W _ZNSt3__24moveIRPPNS_4__fs10filesystem12__dir_streamEEEONS_16remove_referenceIT_E4typeEOS8_
-------- W _ZNSt3__24moveIRPPNS_6locale5facetEEEONS_16remove_referenceIT_E4typeEOS7_
-------- W _ZNSt3__24moveIRPPNS_8__i_nodeEEEONS_16remove_referenceIT_E4typeEOS6_
-------- W _ZNSt3__24moveIRPPvEEONS_16remove_referenceIT_E4typeEOS5_
-------- W _ZNSt3__24moveIRPcEEONS_16remove_referenceIT_E4typeEOS4_
-------- W _ZNSt3__24moveIRPiEEONS_16remove_referenceIT_E4typeEOS4_
-------- W _ZNSt3__24moveIRPlEEONS_16remove_referenceIT_E4typeEOS4_
-------- W _ZNSt3__24moveIRPwEEONS_16remove_referenceIT_E4typeEOS4_
-------- W _ZNSt3__24moveIRaEEONS_16remove_referenceIT_E4typeEOS3_
-------- W _ZNSt3__24moveIRcEEONS_16remove_referenceIT_E4typeEOS3_
-------- W _ZNSt3__24moveIRdEEONS_16remove_referenceIT_E4typeEOS3_
-------- W _ZNSt3__24moveIReEEONS_16remove_referenceIT_E4typeEOS3_
-------- W _ZNSt3__24moveIRfEEONS_16remove_referenceIT_E4typeEOS3_
-------- W _ZNSt3__24moveIRhEEONS_16remove_referenceIT_E4typeEOS3_
-------- W _ZNSt3__24moveIRiEEONS_16remove_referenceIT_E4typeEOS3_
-------- W _ZNSt3__24moveIRjEEONS_16remove_referenceIT_E4typeEOS3_
-------- W _ZNSt3__24moveIRlEEONS_16remove_referenceIT_E4typeEOS3_
-------- W _ZNSt3__24moveIRmEEONS_16remove_referenceIT_E4typeEOS3_
-------- W _ZNSt3__24moveIRsEEONS_16remove_referenceIT_E4typeEOS3_
-------- W _ZNSt3__24moveIRtEEONS_16remove_referenceIT_E4typeEOS3_
-------- W _ZNSt3__24moveIRwEEONS_16remove_referenceIT_E4typeEOS3_
-------- W _ZNSt3__24moveIRxEEONS_16remove_referenceIT_E4typeEOS3_
-------- W _ZNSt3__24moveIRyEEONS_16remove_referenceIT_E4typeEOS3_
-------- W _ZNSt3__24nextINS_11__wrap_iterIPcEEEENS_9enable_ifIXsr19__is_input_iteratorIT_EE5valueES5_E4typeES5_NS_15iterator_traitsIS5_E15difference_typeE
-------- W _ZNSt3__24nextINS_11__wrap_iterIPwEEEENS_9enable_ifIXsr19__is_input_iteratorIT_EE5valueES5_E4typeES5_NS_15iterator_traitsIS5_E15difference_typeE
-------- W _ZNSt3__24pairINS_17basic_string_viewIcNS_11char_traitsIcEEEENS_4__fs10filesystem12PathPartKindEEC2IRS4_RS7_Lb0EEEOT_OT0_
-------- W _ZNSt3__24pairINS_17basic_string_viewIcNS_11char_traitsIcEEEENS_4__fs10filesystem9file_typeEEC2ILb1ELb0EEEv
-------- W _ZNSt3__24pairINS_17basic_string_viewIcNS_11char_traitsIcEEEENS_4__fs10filesystem9file_typeEEC2IRA256_cS7_Lb0EEEOT_OT0_
-------- W _ZNSt3__24pairINS_17basic_string_viewIcNS_11char_traitsIcEEEES4_EC2IRKS4_RA1_KcLb0EEEOT_OT0_
-------- W _ZNSt3__24pairINS_17basic_string_viewIcNS_11char_traitsIcEEEES4_EC2IRKS4_S4_Lb0EEEOT_OT0_
-------- W _ZNSt3__24pairINS_17basic_string_viewIcNS_11char_traitsIcEEEES4_EC2IS4_S4_Lb0EEEOT_OT0_
-------- W _ZNSt3__24pairIPNS_18condition_variableEPNS_5mutexEEC2IRS2_RS4_Lb0EEEOT_OT0_
-------- W _ZNSt3__24prevINS_11__wrap_iterIPcEEEENS_9enable_ifIXsr27__is_bidirectional_iteratorIT_EE5valueES5_E4typeES5_NS_15iterator_traitsIS5_E15difference_typeE
-------- W _ZNSt3__24prevINS_11__wrap_iterIPwEEEENS_9enable_ifIXsr27__is_bidirectional_iteratorIT_EE5valueES5_E4typeES5_NS_15iterator_traitsIS5_E15difference_typeE
-------- T _ZNSt3__24stodERKNS_12basic_stringIcNS_11char_traitsIcEENS_9allocatorIcEEEEPm
-------- T _ZNSt3__24stodERKNS_12basic_stringIwNS_11char_traitsIwEENS_9allocatorIwEEEEPm
-------- T _ZNSt3__24stofERKNS_12basic_stringIcNS_11char_traitsIcEENS_9allocatorIcEEEEPm
-------- T _ZNSt3__24stofERKNS_12basic_stringIwNS_11char_traitsIwEENS_9allocatorIwEEEEPm
-------- T _ZNSt3__24stoiERKNS_12basic_stringIcNS_11char_traitsIcEENS_9allocatorIcEEEEPmi
-------- T _ZNSt3__24stoiERKNS_12basic_stringIwNS_11char_traitsIwEENS_9allocatorIwEEEEPmi
-------- T _ZNSt3__24stolERKNS_12basic_stringIcNS_11char_traitsIcEENS_9allocatorIcEEEEPmi
-------- T _ZNSt3__24stolERKNS_12basic_stringIwNS_11char_traitsIwEENS_9allocatorIwEEEEPmi
-------- W _ZNSt3__24swapINS_6localeEEENS_9enable_ifIXaasr21is_move_constructibleIT_EE5valuesr18is_move_assignableIS3_EE5valueEvE4typeERS3_S6_
-------- W _ZNSt3__24swapIPFPvmEEENS_9enable_ifIXaasr21is_move_constructibleIT_EE5valuesr18is_move_assignableIS5_EE5valueEvE4typeERS5_S8_
-------- W _ZNSt3__24swapIPFvPvEEENS_9enable_ifIXaasr21is_move_constructibleIT_EE5valuesr18is_move_assignableIS5_EE5valueEvE4typeERS5_S8_
-------- W _ZNSt3__24swapIPNS_17basic_string_viewIcNS_11char_traitsIcEEEEEENS_9enable_ifIXaasr21is_move_constructibleIT_EE5valuesr18is_move_assignableIS7_EE5valueEvE4typeERS7_SA_
-------- W _ZNSt3__24swapIPNS_19__shared_weak_countEEENS_9enable_ifIXaasr21is_move_constructibleIT_EE5valuesr18is_move_assignableIS4_EE5valueEvE4typeERS4_S7_
-------- W _ZNSt3__24swapIPNS_4__fs10filesystem12__dir_streamEEENS_9enable_ifIXaasr21is_move_constructibleIT_EE5valuesr18is_move_assignableIS6_EE5valueEvE4typeERS6_S9_
-------- W _ZNSt3__24swapIPNS_4__fs10filesystem28recursive_directory_iterator12__shared_impEEENS_9enable_ifIXaasr21is_move_constructibleIT_EE5valuesr18is_move_assignableIS7_EE5valueEvE4typeERS7_SA_
-------- W _ZNSt3__24swapIPNS_4pairINS_17basic_string_viewIcNS_11char_traitsIcEEEENS_4__fs10filesystem12PathPartKindEEEEENS_9enable_ifIXaasr21is_move_constructibleIT_EE5valuesr18is_move_assignableISC_EE5valueEvE4typeERSC_SF_
-------- W _ZNSt3__24swapIPNS_4pairIPNS_18condition_variableEPNS_5mutexEEEEENS_9enable_ifIXaasr21is_move_constructibleIT_EE5valuesr18is_move_assignableIS9_EE5valueEvE4typeERS9_SC_
-------- W _ZNSt3__24swapIPPFvNS_8ios_base5eventERS1_iEEENS_9enable_ifIXaasr21is_move_constructibleIT_EE5valuesr18is_move_assignableIS8_EE5valueEvE4typeERS8_SB_
-------- W _ZNSt3__24swapIPPNS_17__assoc_sub_stateEEENS_9enable_ifIXaasr21is_move_constructibleIT_EE5valuesr18is_move_assignableIS5_EE5valueEvE4typeERS5_S8_
-------- W _ZNSt3__24swapIPPNS_4__fs10filesystem12__dir_streamEEENS_9enable_ifIXaasr21is_move_constructibleIT_EE5valuesr18is_move_assignableIS7_EE5valueEvE4typeERS7_SA_
-------- W _ZNSt3__24swapIPPNS_6locale5facetEEENS_9enable_ifIXaasr21is_move_constructibleIT_EE5valuesr18is_move_assignableIS6_EE5valueEvE4typeERS6_S9_
-------- W _ZNSt3__24swapIPPNS_8__i_nodeEEENS_9enable_ifIXaasr21is_move_constructibleIT_EE5valuesr18is_move_assignableIS5_EE5valueEvE4typeERS5_S8_
-------- W _ZNSt3__24swapIPPvEENS_9enable_ifIXaasr21is_move_constructibleIT_EE5valuesr18is_move_assignableIS4_EE5valueEvE4typeERS4_S7_
-------- W _ZNSt3__24swapIPcEENS_9enable_ifIXaasr21is_move_constructibleIT_EE5valuesr18is_move_assignableIS3_EE5valueEvE4typeERS3_S6_
-------- W _ZNSt3__24swapIPiEENS_9enable_ifIXaasr21is_move_constructibleIT_EE5valuesr18is_move_assignableIS3_EE5valueEvE4typeERS3_S6_
-------- W _ZNSt3__24swapIPlEENS_9enable_ifIXaasr21is_move_constructibleIT_EE5valuesr18is_move_assignableIS3_EE5valueEvE4typeERS3_S6_
-------- W _ZNSt3__24swapIPwEENS_9enable_ifIXaasr21is_move_constructibleIT_EE5valuesr18is_move_assignableIS3_EE5valueEvE4typeERS3_S6_
-------- W _ZNSt3__24swapIaEENS_9enable_ifIXaasr21is_move_constructibleIT_EE5valuesr18is_move_assignableIS2_EE5valueEvE4typeERS2_S5_
-------- W _ZNSt3__24swapIcEENS_9enable_ifIXaasr21is_move_constructibleIT_EE5valuesr18is_move_assignableIS2_EE5valueEvE4typeERS2_S5_
-------- W _ZNSt3__24swapIdEENS_9enable_ifIXaasr21is_move_constructibleIT_EE5valuesr18is_move_assignableIS2_EE5valueEvE4typeERS2_S5_
-------- W _ZNSt3__24swapIeEENS_9enable_ifIXaasr21is_move_constructibleIT_EE5valuesr18is_move_assignableIS2_EE5valueEvE4typeERS2_S5_
-------- W _ZNSt3__24swapIfEENS_9enable_ifIXaasr21is_move_constructibleIT_EE5valuesr18is_move_assignableIS2_EE5valueEvE4typeERS2_S5_
-------- W _ZNSt3__24swapIhEENS_9enable_ifIXaasr21is_move_constructibleIT_EE5valuesr18is_move_assignableIS2_EE5valueEvE4typeERS2_S5_
-------- W _ZNSt3__24swapIiEENS_9enable_ifIXaasr21is_move_constructibleIT_EE5valuesr18is_move_assignableIS2_EE5valueEvE4typeERS2_S5_
-------- W _ZNSt3__24swapIjEENS_9enable_ifIXaasr21is_move_constructibleIT_EE5valuesr18is_move_assignableIS2_EE5valueEvE4typeERS2_S5_
-------- W _ZNSt3__24swapIlEENS_9enable_ifIXaasr21is_move_constructibleIT_EE5valuesr18is_move_assignableIS2_EE5valueEvE4typeERS2_S5_
-------- W _ZNSt3__24swapImEENS_9enable_ifIXaasr21is_move_constructibleIT_EE5valuesr18is_move_assignableIS2_EE5valueEvE4typeERS2_S5_
-------- W _ZNSt3__24swapIsEENS_9enable_ifIXaasr21is_move_constructibleIT_EE5valuesr18is_move_assignableIS2_EE5valueEvE4typeERS2_S5_
-------- W _ZNSt3__24swapItEENS_9enable_ifIXaasr21is_move_constructibleIT_EE5valuesr18is_move_assignableIS2_EE5valueEvE4typeERS2_S5_
-------- W _ZNSt3__24swapIwEENS_9enable_ifIXaasr21is_move_constructibleIT_EE5valuesr18is_move_assignableIS2_EE5valueEvE4typeERS2_S5_
-------- W _ZNSt3__24swapIxEENS_9enable_ifIXaasr21is_move_constructibleIT_EE5valuesr18is_move_assignableIS2_EE5valueEvE4typeERS2_S5_
-------- W _ZNSt3__24swapIyEENS_9enable_ifIXaasr21is_move_constructibleIT_EE5valuesr18is_move_assignableIS2_EE5valueEvE4typeERS2_S5_
-------- D _ZNSt3__24wcinE
-------- T _ZNSt3__25alignEmmRPvRm
-------- W _ZNSt3__25arrayI8timespecLm2EEixEm
-------- W _ZNSt3__25arrayIcLm256EE4dataEv
-------- T _ZNSt3__25ctypeIcE13classic_tableEv
-------- T _ZNSt3__25ctypeIcE21__classic_lower_tableEv
-------- T _ZNSt3__25ctypeIcE21__classic_upper_tableEv
-------- D _ZNSt3__25ctypeIcE2idE
-------- T _ZNSt3__25ctypeIcEC1EPKtbm
-------- T _ZNSt3__25ctypeIcEC2EPKtbm
-------- T _ZNSt3__25ctypeIcED0Ev
-------- T _ZNSt3__25ctypeIcED1Ev
-------- T _ZNSt3__25ctypeIcED2Ev
-------- D _ZNSt3__25ctypeIwE2idE
-------- W _ZNSt3__25ctypeIwEC2Em
-------- T _ZNSt3__25ctypeIwED0Ev
-------- T _ZNSt3__25ctypeIwED1Ev
-------- T _ZNSt3__25ctypeIwED2Ev
-------- W _ZNSt3__25dequeINS_4__fs10filesystem12__dir_streamENS_9allocatorIS3_EEE19__add_back_capacityEv
-------- W _ZNSt3__25dequeINS_4__fs10filesystem12__dir_streamENS_9allocatorIS3_EEE4backEv
-------- W _ZNSt3__25dequeINS_4__fs10filesystem12__dir_streamENS_9allocatorIS3_EEE8pop_backEv
-------- W _ZNSt3__25dequeINS_4__fs10filesystem12__dir_streamENS_9allocatorIS3_EEE9push_backEOS3_
-------- W _ZNSt3__25dequeINS_4__fs10filesystem12__dir_streamENS_9allocatorIS3_EEEC2Ev
-------- W _ZNSt3__25equalINS_11__wrap_iterIPcEES3_EEbT_S4_T0_
-------- W _ZNSt3__25equalINS_11__wrap_iterIPcEES3_NS_10__equal_toIccEEEEbT_S6_T0_T1_
-------- W _ZNSt3__25equalINS_11__wrap_iterIPwEES3_EEbT_S4_T0_
-------- W _ZNSt3__25equalINS_11__wrap_iterIPwEES3_NS_10__equal_toIwwEEEEbT_S6_T0_T1_
-------- W _ZNSt3__25mutex13native_handleEv
-------- T _ZNSt3__25mutex4lockEv
-------- T _ZNSt3__25mutex6unlockEv
-------- T _ZNSt3__25mutex8try_lockEv
-------- W _ZNSt3__25mutexC2Ev
-------- T _ZNSt3__25mutexD1Ev
-------- T _ZNSt3__25mutexD2Ev
-------- W _ZNSt3__25stackINS_4__fs10filesystem12__dir_streamENS_5dequeIS3_NS_9allocatorIS3_EEEEE3popEv
-------- W _ZNSt3__25stackINS_4__fs10filesystem12__dir_streamENS_5dequeIS3_NS_9allocatorIS3_EEEEE3topEv
-------- W _ZNSt3__25stackINS_4__fs10filesystem12__dir_streamENS_5dequeIS3_NS_9allocatorIS3_EEEEE4pushEOS3_
-------- W _ZNSt3__25stackINS_4__fs10filesystem12__dir_streamENS_5dequeIS3_NS_9allocatorIS3_EEEEEC2Ev
-------- W _ZNSt3__25stackINS_4__fs10filesystem12__dir_streamENS_5dequeIS3_NS_9allocatorIS3_EEEEED2Ev
-------- T _ZNSt3__25stoldERKNS_12basic_stringIcNS_11char_traitsIcEENS_9allocatorIcEEEEPm
-------- T _ZNSt3__25stoldERKNS_12basic_stringIwNS_11char_traitsIwEENS_9allocatorIwEEEEPm
-------- T _ZNSt3__25stollERKNS_12basic_stringIcNS_11char_traitsIcEENS_9allocatorIcEEEEPmi
-------- T _ZNSt3__25stollERKNS_12basic_stringIwNS_11char_traitsIwEENS_9allocatorIwEEEEPmi
-------- T _ZNSt3__25stoulERKNS_12basic_stringIcNS_11char_traitsIcEENS_9allocatorIcEEEEPmi
-------- T _ZNSt3__25stoulERKNS_12basic_stringIwNS_11char_traitsIwEENS_9allocatorIwEEEEPmi
-------- W _ZNSt3__25tupleIJRKNS_4__fs10filesystem4pathERNS2_17directory_optionsERNS_10error_codeEEEC2ILb1ELb0EEES5_S7_S9_
-------- W _ZNSt3__25tupleIJRNS_9allocatorINS_4__fs10filesystem12__dir_streamEEEEEC2ILb1ELb0EEES6_
-------- D _ZNSt3__25wcerrE
-------- D _ZNSt3__25wclogE
-------- D _ZNSt3__25wcoutE
-------- T _ZNSt3__26__clocEv
-------- W _ZNSt3__26__copyINS_11__wrap_iterIPKcEEPcEET0_T_S7_S6_
-------- W _ZNSt3__26__copyINS_11__wrap_iterIPKwEEPwEET0_T_S7_S6_
-------- W _ZNSt3__26__copyINS_19istreambuf_iteratorIcNS_11char_traitsIcEEEENS_19ostreambuf_iteratorIcS3_EEEET0_T_S8_S7_
-------- W _ZNSt3__26__copyIPNS_6locale5facetES3_EENS_9enable_ifIXaasr7is_sameINS_12remove_constIT_E4typeET0_EE5valuesr28is_trivially_copy_assignableIS9_EE5valueEPS9_E4typeEPS6_SD_SA_
-------- W _ZNSt3__26__copyIPcNS_19ostreambuf_iteratorIcNS_11char_traitsIcEEEEEET0_T_S7_S6_
-------- W _ZNSt3__26__copyIPwNS_19ostreambuf_iteratorIwNS_11char_traitsIwEEEEEET0_T_S7_S6_
-------- W _ZNSt3__26__moveIPNS_4__fs10filesystem12__dir_streamES4_EENS_9enable_ifIXaasr7is_sameINS_12remove_constIT_E4typeET0_EE5valuesr28is_trivially_copy_assignableISA_EE5valueEPSA_E4typeEPS7_SE_SB_
-------- W _ZNSt3__26__moveIccEENS_9enable_ifIXaasr7is_sameINS_12remove_constIT_E4typeET0_EE5valuesr28is_trivially_copy_assignableIS6_EE5valueEPS6_E4typeEPS3_SA_S7_
-------- W _ZNSt3__26__moveIwwEENS_9enable_ifIXaasr7is_sameINS_12remove_constIT_E4typeET0_EE5valuesr28is_trivially_copy_assignableIS6_EE5valueEPS6_E4typeEPS3_SA_S7_
-------- W _ZNSt3__26__sortIRNS_6__lessIaaEEPaEEvT0_S5_T_
-------- W _ZNSt3__26__sortIRNS_6__lessIccEEPcEEvT0_S5_T_
-------- W _ZNSt3__26__sortIRNS_6__lessIddEEPdEEvT0_S5_T_
-------- W _ZNSt3__26__sortIRNS_6__lessIeeEEPeEEvT0_S5_T_
-------- W _ZNSt3__26__sortIRNS_6__lessIffEEPfEEvT0_S5_T_
-------- W _ZNSt3__26__sortIRNS_6__lessIhhEEPhEEvT0_S5_T_
-------- W _ZNSt3__26__sortIRNS_6__lessIiiEEPiEEvT0_S5_T_
-------- W _ZNSt3__26__sortIRNS_6__lessIjjEEPjEEvT0_S5_T_
-------- W _ZNSt3__26__sortIRNS_6__lessIllEEPlEEvT0_S5_T_
-------- W _ZNSt3__26__sortIRNS_6__lessImmEEPmEEvT0_S5_T_
-------- W _ZNSt3__26__sortIRNS_6__lessIssEEPsEEvT0_S5_T_
-------- W _ZNSt3__26__sortIRNS_6__lessIttEEPtEEvT0_S5_T_
-------- W _ZNSt3__26__sortIRNS_6__lessIwwEEPwEEvT0_S5_T_
-------- W _ZNSt3__26__sortIRNS_6__lessIxxEEPxEEvT0_S5_T_
-------- W _ZNSt3__26__sortIRNS_6__lessIyyEEPyEEvT0_S5_T_
-------- W _ZNSt3__26chrono10time_pointINS0_12steady_clockENS0_8durationIxNS_5ratioILx1ELx1000000000EEEEEEC2ERKS6_
-------- W _ZNSt3__26chrono10time_pointINS0_12system_clockENS0_8durationIxNS_5ratioILx1ELx1000000EEEEEEC2ERKS6_
-------- W _ZNSt3__26chrono10time_pointINS_4__fs10filesystem16_FilesystemClockENS0_8durationInNS_5ratioILx1ELx1000000000EEEEEE3minEv
-------- W _ZNSt3__26chrono10time_pointINS_4__fs10filesystem16_FilesystemClockENS0_8durationInNS_5ratioILx1ELx1000000000EEEEEEC2ERKS8_
-------- W _ZNSt3__26chrono10time_pointINS_4__fs10filesystem16_FilesystemClockENS0_8durationInNS_5ratioILx1ELx1000000000EEEEEEC2Ev
-------- T _ZNSt3__26chrono12steady_clock3nowEv
-------- D _ZNSt3__26chrono12steady_clock9is_steadyE
-------- T _ZNSt3__26chrono12system_clock11from_time_tEl
-------- T _ZNSt3__26chrono12system_clock3nowEv
-------- D _ZNSt3__26chrono12system_clock9is_steadyE
-------- T _ZNSt3__26chrono12system_clock9to_time_tERKNS0_10time_pointIS1_NS0_8durationIxNS_5ratioILx1ELx1000000EEEEEEE
-------- W _ZNSt3__26chrono13duration_castINS0_8durationInNS_5ratioILx1ELx1000000000EEEEEnNS3_ILx1ELx1EEEEENS_9enable_ifIXsr13__is_durationIT_EE5valueES8_E4typeERKNS2_IT0_T1_EE
-------- W _ZNSt3__26chrono13duration_castINS0_8durationInNS_5ratioILx1ELx1000000000EEEEEnS4_EENS_9enable_ifIXsr13__is_durationIT_EE5valueES7_E4typeERKNS2_IT0_T1_EE
-------- W _ZNSt3__26chrono13duration_castINS0_8durationInNS_5ratioILx1ELx1EEEEEnNS3_ILx1ELx1000000000EEEEENS_9enable_ifIXsr13__is_durationIT_EE5valueES8_E4typeERKNS2_IT0_T1_EE
-------- W _ZNSt3__26chrono13duration_castINS0_8durationIxNS_5ratioILx1ELx1000000000EEEEExNS3_ILx1ELx1EEEEENS_9enable_ifIXsr13__is_durationIT_EE5valueES8_E4typeERKNS2_IT0_T1_EE
-------- W _ZNSt3__26chrono13duration_castINS0_8durationIxNS_5ratioILx1ELx1000000EEEEExNS3_ILx1ELx1EEEEENS_9enable_ifIXsr13__is_durationIT_EE5valueES8_E4typeERKNS2_IT0_T1_EE
-------- W _ZNSt3__26chrono13duration_castINS0_8durationIxNS_5ratioILx1ELx1EEEEExNS3_ILx1ELx1000000000EEEEENS_9enable_ifIXsr13__is_durationIT_EE5valueES8_E4typeERKNS2_IT0_T1_EE
-------- W _ZNSt3__26chrono13duration_castINS0_8durationIxNS_5ratioILx1ELx1EEEEExNS3_ILx1ELx1000000EEEEENS_9enable_ifIXsr13__is_durationIT_EE5valueES8_E4typeERKNS2_IT0_T1_EE
-------- W _ZNSt3__26chrono15duration_valuesInE3minEv
-------- W _ZNSt3__26chrono15duration_valuesInE4zeroEv
-------- W _ZNSt3__26chrono15duration_valuesIxE4zeroEv
-------- W _ZNSt3__26chrono8durationInNS_5ratioILx1ELx1000000000EEEE3minEv
-------- W _ZNSt3__26chrono8durationInNS_5ratioILx1ELx1000000000EEEE4zeroEv
-------- W _ZNSt3__26chrono8durationInNS_5ratioILx1ELx1000000000EEEEC2IlEERKT_PNS_9enable_ifIXaasr14is_convertibleIS6_nEE5valueooL_ZNS_17integral_constantIbLb0EE5valueEEntsr23treat_as_floating_pointIS6_EE5valueEvE4typeE
-------- W _ZNSt3__26chrono8durationInNS_5ratioILx1ELx1000000000EEEEC2InEERKT_PNS_9enable_ifIXaasr14is_convertibleIS6_nEE5valueooL_ZNS_17integral_constantIbLb0EE5valueEEntsr23treat_as_floating_pointIS6_EE5valueEvE4typeE
-------- W _ZNSt3__26chrono8durationInNS_5ratioILx1ELx1000000000EEEEC2InNS2_ILx1ELx1EEEEERKNS1_IT_T0_EEPNS_9enable_ifIXaasr13__no_overflowIS8_S3_EE5valueooL_ZNS_17integral_constantIbLb0EE5valueEEaaeqsr13__no_overflowIS8_S3_E4typeE3denLi1Entsr23treat_as_floating_pointIS7_EE5valueEvE4typeE
-------- W _ZNSt3__26chrono8durationInNS_5ratioILx1ELx1EEEEC2IiEERKT_PNS_9enable_ifIXaasr14is_convertibleIS6_nEE5valueooL_ZNS_17integral_constantIbLb0EE5valueEEntsr23treat_as_floating_pointIS6_EE5valueEvE4typeE
-------- W _ZNSt3__26chrono8durationInNS_5ratioILx1ELx1EEEEC2IlEERKT_PNS_9enable_ifIXaasr14is_convertibleIS6_nEE5valueooL_ZNS_17integral_constantIbLb0EE5valueEEntsr23treat_as_floating_pointIS6_EE5valueEvE4typeE
-------- W _ZNSt3__26chrono8durationInNS_5ratioILx1ELx1EEEEC2InEERKT_PNS_9enable_ifIXaasr14is_convertibleIS6_nEE5valueooL_ZNS_17integral_constantIbLb0EE5valueEEntsr23treat_as_floating_pointIS6_EE5valueEvE4typeE
-------- W _ZNSt3__26chrono8durationIxNS_5ratioILx1ELx1000000000EEEE4zeroEv
-------- W _ZNSt3__26chrono8durationIxNS_5ratioILx1ELx1000000000EEEEC2IlEERKT_PNS_9enable_ifIXaasr14is_convertibleIS6_xEE5valueooL_ZNS_17integral_constantIbLb0EE5valueEEntsr23treat_as_floating_pointIS6_EE5valueEvE4typeE
-------- W _ZNSt3__26chrono8durationIxNS_5ratioILx1ELx1000000000EEEEC2IxEERKT_PNS_9enable_ifIXaasr14is_convertibleIS6_xEE5valueooL_ZNS_17integral_constantIbLb0EE5valueEEntsr23treat_as_floating_pointIS6_EE5valueEvE4typeE
-------- W _ZNSt3__26chrono8durationIxNS_5ratioILx1ELx1000000000EEEEC2IxNS2_ILx1ELx1EEEEERKNS1_IT_T0_EEPNS_9enable_ifIXaasr13__no_overflowIS8_S3_EE5valueooL_ZNS_17integral_constantIbLb0EE5valueEEaaeqsr13__no_overflowIS8_S3_E4typeE3denLi1Entsr23treat_as_floating_pointIS7_EE5valueEvE4typeE
-------- W _ZNSt3__26chrono8durationIxNS_5ratioILx1ELx1000000EEEEC2IlEERKT_PNS_9enable_ifIXaasr14is_convertibleIS6_xEE5valueooL_ZNS_17integral_constantIbLb0EE5valueEEntsr23treat_as_floating_pointIS6_EE5valueEvE4typeE
-------- W _ZNSt3__26chrono8durationIxNS_5ratioILx1ELx1000000EEEEC2IxEERKT_PNS_9enable_ifIXaasr14is_convertibleIS6_xEE5valueooL_ZNS_17integral_constantIbLb0EE5valueEEntsr23treat_as_floating_pointIS6_EE5valueEvE4typeE
-------- W _ZNSt3__26chrono8durationIxNS_5ratioILx1ELx1000000EEEEC2IxNS2_ILx1ELx1EEEEERKNS1_IT_T0_EEPNS_9enable_ifIXaasr13__no_overflowIS8_S3_EE5valueooL_ZNS_17integral_constantIbLb0EE5valueEEaaeqsr13__no_overflowIS8_S3_E4typeE3denLi1Entsr23treat_as_floating_pointIS7_EE5valueEvE4typeE
-------- W _ZNSt3__26chrono8durationIxNS_5ratioILx1ELx1EEEEC2IlEERKT_PNS_9enable_ifIXaasr14is_convertibleIS6_xEE5valueooL_ZNS_17integral_constantIbLb0EE5valueEEntsr23treat_as_floating_pointIS6_EE5valueEvE4typeE
-------- W _ZNSt3__26chrono8durationIxNS_5ratioILx1ELx1EEEEC2IxEERKT_PNS_9enable_ifIXaasr14is_convertibleIS6_xEE5valueooL_ZNS_17integral_constantIbLb0EE5valueEEntsr23treat_as_floating_pointIS6_EE5valueEvE4typeE
-------- W _ZNSt3__26chronogtIxNS_5ratioILx1ELx1000000000EEExS3_EEbRKNS0_8durationIT_T0_EERKNS4_IT1_T2_EE
-------- W _ZNSt3__26chronoltIxNS_5ratioILx1ELx1000000000EEExS3_EEbRKNS0_8durationIT_T0_EERKNS4_IT1_T2_EE
-------- W _ZNSt3__26chronomiInNS_5ratioILx1ELx1000000000EEEnNS2_ILx1ELx1EEEEENS_11common_typeIJNS0_8durationIT_T0_EENS6_IT1_T2_EEEE4typeERKS9_RKSC_
-------- W _ZNSt3__26chronomiInNS_5ratioILx1ELx1EEEnNS2_ILx1ELx1000000000EEEEENS_11common_typeIJNS0_8durationIT_T0_EENS6_IT1_T2_EEEE4typeERKS9_RKSC_
-------- W _ZNSt3__26chronomiInNS_5ratioILx1ELx1EEEnS3_EENS_11common_typeIJNS0_8durationIT_T0_EENS5_IT1_T2_EEEE4typeERKS8_RKSB_
-------- W _ZNSt3__26chronomiIxNS_5ratioILx1ELx1000000000EEExNS2_ILx1ELx1EEEEENS_11common_typeIJNS0_8durationIT_T0_EENS6_IT1_T2_EEEE4typeERKS9_RKSC_
-------- W _ZNSt3__26chronoplInNS_5ratioILx1ELx1000000000EEEnNS2_ILx1ELx1EEEEENS_11common_typeIJNS0_8durationIT_T0_EENS6_IT1_T2_EEEE4typeERKS9_RKSC_
-------- W _ZNSt3__26chronoplInNS_5ratioILx1ELx1EEEnNS2_ILx1ELx1000000000EEEEENS_11common_typeIJNS0_8durationIT_T0_EENS6_IT1_T2_EEEE4typeERKS9_RKSC_
-------- W _ZNSt3__26chronoplInNS_5ratioILx1ELx1EEEnS3_EENS_11common_typeIJNS0_8durationIT_T0_EENS5_IT1_T2_EEEE4typeERKS8_RKSB_
-------- W _ZNSt3__26chronoplIxNS_5ratioILx1ELx1EEExNS2_ILx1ELx1000000000EEEEENS_11common_typeIJNS0_8durationIT_T0_EENS6_IT1_T2_EEEE4typeERKS9_RKSC_
-------- W _ZNSt3__26chronoplIxNS_5ratioILx1ELx1EEExNS2_ILx1ELx1000000EEEEENS_11common_typeIJNS0_8durationIT_T0_EENS6_IT1_T2_EEEE4typeERKS9_RKSC_
-------- T _ZNSt3__26futureIvE3getEv
-------- T _ZNSt3__26futureIvEC1EPNS_17__assoc_sub_stateE
-------- T _ZNSt3__26futureIvEC2EPNS_17__assoc_sub_stateE
-------- T _ZNSt3__26futureIvED1Ev
-------- T _ZNSt3__26futureIvED2Ev
-------- T _ZNSt3__26gslice6__initEm
-------- T _ZNSt3__26locale14__install_ctorERKS0_PNS0_5facetEl
-------- T _ZNSt3__26locale2id5__getEv
-------- T _ZNSt3__26locale2id6__initEv
-------- D _ZNSt3__26locale2id9__next_idE
-------- D _ZNSt3__26locale3allE
-------- D _ZNSt3__26locale4noneE
-------- D _ZNSt3__26locale4timeE
-------- T _ZNSt3__26locale5__imp11make_globalEv
-------- W _ZNSt3__26locale5__imp12install_fromINS_10moneypunctIcLb0EEEEEvRKS1_
-------- W _ZNSt3__26locale5__imp12install_fromINS_10moneypunctIcLb1EEEEEvRKS1_
-------- W _ZNSt3__26locale5__imp12install_fromINS_10moneypunctIwLb0EEEEEvRKS1_
-------- W _ZNSt3__26locale5__imp12install_fromINS_10moneypunctIwLb1EEEEEvRKS1_
-------- W _ZNSt3__26locale5__imp12install_fromINS_5ctypeIcEEEEvRKS1_
-------- W _ZNSt3__26locale5__imp12install_fromINS_5ctypeIwEEEEvRKS1_
-------- W _ZNSt3__26locale5__imp12install_fromINS_7codecvtIDic11__mbstate_tEEEEvRKS1_
-------- W _ZNSt3__26locale5__imp12install_fromINS_7codecvtIDsc11__mbstate_tEEEEvRKS1_
-------- W _ZNSt3__26locale5__imp12install_fromINS_7codecvtIcc11__mbstate_tEEEEvRKS1_
-------- W _ZNSt3__26locale5__imp12install_fromINS_7codecvtIwc11__mbstate_tEEEEvRKS1_
-------- W _ZNSt3__26locale5__imp12install_fromINS_7collateIcEEEEvRKS1_
-------- W _ZNSt3__26locale5__imp12install_fromINS_7collateIwEEEEvRKS1_
-------- W _ZNSt3__26locale5__imp12install_fromINS_7num_getIcNS_19istreambuf_iteratorIcNS_11char_traitsIcEEEEEEEEvRKS1_
-------- W _ZNSt3__26locale5__imp12install_fromINS_7num_getIwNS_19istreambuf_iteratorIwNS_11char_traitsIwEEEEEEEEvRKS1_
-------- W _ZNSt3__26locale5__imp12install_fromINS_7num_putIcNS_19ostreambuf_iteratorIcNS_11char_traitsIcEEEEEEEEvRKS1_
-------- W _ZNSt3__26locale5__imp12install_fromINS_7num_putIwNS_19ostreambuf_iteratorIwNS_11char_traitsIwEEEEEEEEvRKS1_
-------- W _ZNSt3__26locale5__imp12install_fromINS_8messagesIcEEEEvRKS1_
-------- W _ZNSt3__26locale5__imp12install_fromINS_8messagesIwEEEEvRKS1_
-------- W _ZNSt3__26locale5__imp12install_fromINS_8numpunctIcEEEEvRKS1_
-------- W _ZNSt3__26locale5__imp12install_fromINS_8numpunctIwEEEEvRKS1_
-------- W _ZNSt3__26locale5__imp12install_fromINS_8time_getIcNS_19istreambuf_iteratorIcNS_11char_traitsIcEEEEEEEEvRKS1_
-------- W _ZNSt3__26locale5__imp12install_fromINS_8time_getIwNS_19istreambuf_iteratorIwNS_11char_traitsIwEEEEEEEEvRKS1_
-------- W _ZNSt3__26locale5__imp12install_fromINS_8time_putIcNS_19ostreambuf_iteratorIcNS_11char_traitsIcEEEEEEEEvRKS1_
-------- W _ZNSt3__26locale5__imp12install_fromINS_8time_putIwNS_19ostreambuf_iteratorIwNS_11char_traitsIwEEEEEEEEvRKS1_
-------- W _ZNSt3__26locale5__imp12install_fromINS_9money_getIcNS_19istreambuf_iteratorIcNS_11char_traitsIcEEEEEEEEvRKS1_
-------- W _ZNSt3__26locale5__imp12install_fromINS_9money_getIwNS_19istreambuf_iteratorIwNS_11char_traitsIwEEEEEEEEvRKS1_
-------- W _ZNSt3__26locale5__imp12install_fromINS_9money_putIcNS_19ostreambuf_iteratorIcNS_11char_traitsIcEEEEEEEEvRKS1_
-------- W _ZNSt3__26locale5__imp12install_fromINS_9money_putIwNS_19ostreambuf_iteratorIwNS_11char_traitsIwEEEEEEEEvRKS1_
-------- T _ZNSt3__26locale5__imp12make_classicEv
-------- T _ZNSt3__26locale5__imp7installEPNS0_5facetEl
-------- W _ZNSt3__26locale5__imp7installINS_10moneypunctIcLb0EEEEEvPT_
-------- W _ZNSt3__26locale5__imp7installINS_10moneypunctIcLb1EEEEEvPT_
-------- W _ZNSt3__26locale5__imp7installINS_10moneypunctIwLb0EEEEEvPT_
-------- W _ZNSt3__26locale5__imp7installINS_10moneypunctIwLb1EEEEEvPT_
-------- W _ZNSt3__26locale5__imp7installINS_12ctype_bynameIcEEEEvPT_
-------- W _ZNSt3__26locale5__imp7installINS_12ctype_bynameIwEEEEvPT_
-------- W _ZNSt3__26locale5__imp7installINS_14codecvt_bynameIDic11__mbstate_tEEEEvPT_
-------- W _ZNSt3__26locale5__imp7installINS_14codecvt_bynameIDsc11__mbstate_tEEEEvPT_
-------- W _ZNSt3__26locale5__imp7installINS_14codecvt_bynameIcc11__mbstate_tEEEEvPT_
-------- W _ZNSt3__26locale5__imp7installINS_14codecvt_bynameIwc11__mbstate_tEEEEvPT_
-------- W _ZNSt3__26locale5__imp7installINS_14collate_bynameIcEEEEvPT_
-------- W _ZNSt3__26locale5__imp7installINS_14collate_bynameIwEEEEvPT_
-------- W _ZNSt3__26locale5__imp7installINS_15messages_bynameIcEEEEvPT_
-------- W _ZNSt3__26locale5__imp7installINS_15messages_bynameIwEEEEvPT_
-------- W _ZNSt3__26locale5__imp7installINS_15numpunct_bynameIcEEEEvPT_
-------- W _ZNSt3__26locale5__imp7installINS_15numpunct_bynameIwEEEEvPT_
-------- W _ZNSt3__26locale5__imp7installINS_15time_get_bynameIcNS_19istreambuf_iteratorIcNS_11char_traitsIcEEEEEEEEvPT_
-------- W _ZNSt3__26locale5__imp7installINS_15time_get_bynameIwNS_19istreambuf_iteratorIwNS_11char_traitsIwEEEEEEEEvPT_
-------- W _ZNSt3__26locale5__imp7installINS_15time_put_bynameIcNS_19ostreambuf_iteratorIcNS_11char_traitsIcEEEEEEEEvPT_
-------- W _ZNSt3__26locale5__imp7installINS_15time_put_bynameIwNS_19ostreambuf_iteratorIwNS_11char_traitsIwEEEEEEEEvPT_
-------- W _ZNSt3__26locale5__imp7installINS_17moneypunct_bynameIcLb0EEEEEvPT_
-------- W _ZNSt3__26locale5__imp7installINS_17moneypunct_bynameIcLb1EEEEEvPT_
-------- W _ZNSt3__26locale5__imp7installINS_17moneypunct_bynameIwLb0EEEEEvPT_
-------- W _ZNSt3__26locale5__imp7installINS_17moneypunct_bynameIwLb1EEEEEvPT_
-------- W _ZNSt3__26locale5__imp7installINS_5ctypeIcEEEEvPT_
-------- W _ZNSt3__26locale5__imp7installINS_5ctypeIwEEEEvPT_
-------- W _ZNSt3__26locale5__imp7installINS_7codecvtIDic11__mbstate_tEEEEvPT_
-------- W _ZNSt3__26locale5__imp7installINS_7codecvtIDsc11__mbstate_tEEEEvPT_
-------- W _ZNSt3__26locale5__imp7installINS_7codecvtIcc11__mbstate_tEEEEvPT_
-------- W _ZNSt3__26locale5__imp7installINS_7codecvtIwc11__mbstate_tEEEEvPT_
-------- W _ZNSt3__26locale5__imp7installINS_7collateIcEEEEvPT_
-------- W _ZNSt3__26locale5__imp7installINS_7collateIwEEEEvPT_
-------- W _ZNSt3__26locale5__imp7installINS_7num_getIcNS_19istreambuf_iteratorIcNS_11char_traitsIcEEEEEEEEvPT_
-------- W _ZNSt3__26locale5__imp7installINS_7num_getIwNS_19istreambuf_iteratorIwNS_11char_traitsIwEEEEEEEEvPT_
-------- W _ZNSt3__26locale5__imp7installINS_7num_putIcNS_19ostreambuf_iteratorIcNS_11char_traitsIcEEEEEEEEvPT_
-------- W _ZNSt3__26locale5__imp7installINS_7num_putIwNS_19ostreambuf_iteratorIwNS_11char_traitsIwEEEEEEEEvPT_
-------- W _ZNSt3__26locale5__imp7installINS_8messagesIcEEEEvPT_
-------- W _ZNSt3__26locale5__imp7installINS_8messagesIwEEEEvPT_
-------- W _ZNSt3__26locale5__imp7installINS_8numpunctIcEEEEvPT_
-------- W _ZNSt3__26locale5__imp7installINS_8numpunctIwEEEEvPT_
-------- W _ZNSt3__26locale5__imp7installINS_8time_getIcNS_19istreambuf_iteratorIcNS_11char_traitsIcEEEEEEEEvPT_
-------- W _ZNSt3__26locale5__imp7installINS_8time_getIwNS_19istreambuf_iteratorIwNS_11char_traitsIwEEEEEEEEvPT_
-------- W _ZNSt3__26locale5__imp7installINS_8time_putIcNS_19ostreambuf_iteratorIcNS_11char_traitsIcEEEEEEEEvPT_
-------- W _ZNSt3__26locale5__imp7installINS_8time_putIwNS_19ostreambuf_iteratorIwNS_11char_traitsIwEEEEEEEEvPT_
-------- W _ZNSt3__26locale5__imp7installINS_9money_getIcNS_19istreambuf_iteratorIcNS_11char_traitsIcEEEEEEEEvPT_
-------- W _ZNSt3__26locale5__imp7installINS_9money_getIwNS_19istreambuf_iteratorIwNS_11char_traitsIwEEEEEEEEvPT_
-------- W _ZNSt3__26locale5__imp7installINS_9money_putIcNS_19ostreambuf_iteratorIcNS_11char_traitsIcEEEEEEEEvPT_
-------- W _ZNSt3__26locale5__imp7installINS_9money_putIwNS_19ostreambuf_iteratorIwNS_11char_traitsIwEEEEEEEEvPT_
-------- T _ZNSt3__26locale5__impC1ERKNS_12basic_stringIcNS_11char_traitsIcEENS_9allocatorIcEEEEm
-------- T _ZNSt3__26locale5__impC1ERKS1_
-------- T _ZNSt3__26locale5__impC1ERKS1_PNS0_5facetEl
-------- T _ZNSt3__26locale5__impC1ERKS1_RKNS_12basic_stringIcNS_11char_traitsIcEENS_9allocatorIcEEEEi
-------- T _ZNSt3__26locale5__impC1ERKS1_S3_i
-------- T _ZNSt3__26locale5__impC1Em
-------- T _ZNSt3__26locale5__impC2ERKNS_12basic_stringIcNS_11char_traitsIcEENS_9allocatorIcEEEEm
-------- T _ZNSt3__26locale5__impC2ERKS1_
-------- T _ZNSt3__26locale5__impC2ERKS1_PNS0_5facetEl
-------- T _ZNSt3__26locale5__impC2ERKS1_RKNS_12basic_stringIcNS_11char_traitsIcEENS_9allocatorIcEEEEi
-------- T _ZNSt3__26locale5__impC2ERKS1_S3_i
-------- T _ZNSt3__26locale5__impC2Em
-------- T _ZNSt3__26locale5__impD0Ev
-------- T _ZNSt3__26locale5__impD1Ev
-------- T _ZNSt3__26locale5__impD2Ev
-------- D _ZNSt3__26locale5ctypeE
-------- T _ZNSt3__26locale5facet16__on_zero_sharedEv
-------- W _ZNSt3__26locale5facetC2Em
-------- T _ZNSt3__26locale5facetD0Ev
-------- T _ZNSt3__26locale5facetD1Ev
-------- T _ZNSt3__26locale5facetD2Ev
-------- T _ZNSt3__26locale6globalERKS0_
-------- T _ZNSt3__26locale7classicEv
-------- D _ZNSt3__26locale7collateE
-------- D _ZNSt3__26locale7numericE
-------- T _ZNSt3__26locale8__globalEv
-------- D _ZNSt3__26locale8messagesE
-------- D _ZNSt3__26locale8monetaryE
-------- T _ZNSt3__26localeC1EPKc
-------- T _ZNSt3__26localeC1ERKNS_12basic_stringIcNS_11char_traitsIcEENS_9allocatorIcEEEE
-------- T _ZNSt3__26localeC1ERKS0_
-------- T _ZNSt3__26localeC1ERKS0_PKci
-------- T _ZNSt3__26localeC1ERKS0_RKNS_12basic_stringIcNS_11char_traitsIcEENS_9allocatorIcEEEEi
-------- T _ZNSt3__26localeC1ERKS0_S2_i
-------- T _ZNSt3__26localeC1Ev
-------- T _ZNSt3__26localeC2EPKc
-------- T _ZNSt3__26localeC2ERKNS_12basic_stringIcNS_11char_traitsIcEENS_9allocatorIcEEEE
-------- T _ZNSt3__26localeC2ERKS0_
-------- T _ZNSt3__26localeC2ERKS0_PKci
-------- T _ZNSt3__26localeC2ERKS0_RKNS_12basic_stringIcNS_11char_traitsIcEENS_9allocatorIcEEEEi
-------- T _ZNSt3__26localeC2ERKS0_S2_i
-------- T _ZNSt3__26localeC2Ev
-------- T _ZNSt3__26localeD1Ev
-------- T _ZNSt3__26localeD2Ev
-------- T _ZNSt3__26localeaSERKS0_
-------- W _ZNSt3__26rotateINS_11__wrap_iterIPcEEEET_S4_S4_S4_
-------- W _ZNSt3__26rotateINS_11__wrap_iterIPwEEEET_S4_S4_S4_
-------- T _ZNSt3__26stoullERKNS_12basic_stringIcNS_11char_traitsIcEENS_9allocatorIcEEEEPmi
-------- T _ZNSt3__26stoullERKNS_12basic_stringIwNS_11char_traitsIwEENS_9allocatorIwEEEEPmi
-------- T _ZNSt3__26thread20hardware_concurrencyEv
-------- T _ZNSt3__26thread4joinEv
-------- T _ZNSt3__26thread6detachEv
-------- T _ZNSt3__26threadD1Ev
-------- T _ZNSt3__26threadD2Ev
-------- W _ZNSt3__26vectorINS_17basic_string_viewIcNS_11char_traitsIcEEEENS_9allocatorIS4_EEE11__make_iterEPS4_
-------- W _ZNSt3__26vectorINS_17basic_string_viewIcNS_11char_traitsIcEEEENS_9allocatorIS4_EEE21__push_back_slow_pathIS4_EEvOT_
-------- W _ZNSt3__26vectorINS_17basic_string_viewIcNS_11char_traitsIcEEEENS_9allocatorIS4_EEE24__RAII_IncreaseAnnotator6__doneEv
-------- W _ZNSt3__26vectorINS_17basic_string_viewIcNS_11char_traitsIcEEEENS_9allocatorIS4_EEE24__RAII_IncreaseAnnotatorC2ERKS7_m
-------- W _ZNSt3__26vectorINS_17basic_string_viewIcNS_11char_traitsIcEEEENS_9allocatorIS4_EEE26__invalidate_all_iteratorsEv
-------- W _ZNSt3__26vectorINS_17basic_string_viewIcNS_11char_traitsIcEEEENS_9allocatorIS4_EEE26__swap_out_circular_bufferERNS_14__split_bufferIS4_RS6_EE
-------- W _ZNSt3__26vectorINS_17basic_string_viewIcNS_11char_traitsIcEEEENS_9allocatorIS4_EEE3endEv
-------- W _ZNSt3__26vectorINS_17basic_string_viewIcNS_11char_traitsIcEEEENS_9allocatorIS4_EEE4rendEv
-------- W _ZNSt3__26vectorINS_17basic_string_viewIcNS_11char_traitsIcEEEENS_9allocatorIS4_EEE5beginEv
-------- W _ZNSt3__26vectorINS_17basic_string_viewIcNS_11char_traitsIcEEEENS_9allocatorIS4_EEE6rbeginEv
-------- W _ZNSt3__26vectorINS_17basic_string_viewIcNS_11char_traitsIcEEEENS_9allocatorIS4_EEE9push_backEOS4_
-------- W _ZNSt3__26vectorINS_17basic_string_viewIcNS_11char_traitsIcEEEENS_9allocatorIS4_EEEC2Ev
-------- W _ZNSt3__26vectorINS_17basic_string_viewIcNS_11char_traitsIcEEEENS_9allocatorIS4_EEED2Ev
-------- W _ZNSt3__26vectorINS_4pairINS_17basic_string_viewIcNS_11char_traitsIcEEEENS_4__fs10filesystem12PathPartKindEEENS_9allocatorIS9_EEE11__make_iterEPS9_
-------- W _ZNSt3__26vectorINS_4pairINS_17basic_string_viewIcNS_11char_traitsIcEEEENS_4__fs10filesystem12PathPartKindEEENS_9allocatorIS9_EEE12emplace_backIJRS5_RS8_EEEvDpOT_
-------- W _ZNSt3__26vectorINS_4pairINS_17basic_string_viewIcNS_11char_traitsIcEEEENS_4__fs10filesystem12PathPartKindEEENS_9allocatorIS9_EEE17__destruct_at_endEPS9_
-------- W _ZNSt3__26vectorINS_4pairINS_17basic_string_viewIcNS_11char_traitsIcEEEENS_4__fs10filesystem12PathPartKindEEENS_9allocatorIS9_EEE24__RAII_IncreaseAnnotator6__doneEv
-------- W _ZNSt3__26vectorINS_4pairINS_17basic_string_viewIcNS_11char_traitsIcEEEENS_4__fs10filesystem12PathPartKindEEENS_9allocatorIS9_EEE24__RAII_IncreaseAnnotatorC2ERKSC_m
-------- W _ZNSt3__26vectorINS_4pairINS_17basic_string_viewIcNS_11char_traitsIcEEEENS_4__fs10filesystem12PathPartKindEEENS_9allocatorIS9_EEE24__emplace_back_slow_pathIJRS5_RS8_EEEvDpOT_
-------- W _ZNSt3__26vectorINS_4pairINS_17basic_string_viewIcNS_11char_traitsIcEEEENS_4__fs10filesystem12PathPartKindEEENS_9allocatorIS9_EEE26__invalidate_all_iteratorsEv
-------- W _ZNSt3__26vectorINS_4pairINS_17basic_string_viewIcNS_11char_traitsIcEEEENS_4__fs10filesystem12PathPartKindEEENS_9allocatorIS9_EEE26__swap_out_circular_bufferERNS_14__split_bufferIS9_RSB_EE
-------- W _ZNSt3__26vectorINS_4pairINS_17basic_string_viewIcNS_11char_traitsIcEEEENS_4__fs10filesystem12PathPartKindEEENS_9allocatorIS9_EEE27__invalidate_iterators_pastEPS9_
-------- W _ZNSt3__26vectorINS_4pairINS_17basic_string_viewIcNS_11char_traitsIcEEEENS_4__fs10filesystem12PathPartKindEEENS_9allocatorIS9_EEE3endEv
-------- W _ZNSt3__26vectorINS_4pairINS_17basic_string_viewIcNS_11char_traitsIcEEEENS_4__fs10filesystem12PathPartKindEEENS_9allocatorIS9_EEE4backEv
-------- W _ZNSt3__26vectorINS_4pairINS_17basic_string_viewIcNS_11char_traitsIcEEEENS_4__fs10filesystem12PathPartKindEEENS_9allocatorIS9_EEE5beginEv
-------- W _ZNSt3__26vectorINS_4pairINS_17basic_string_viewIcNS_11char_traitsIcEEEENS_4__fs10filesystem12PathPartKindEEENS_9allocatorIS9_EEE7reserveEm
-------- W _ZNSt3__26vectorINS_4pairINS_17basic_string_viewIcNS_11char_traitsIcEEEENS_4__fs10filesystem12PathPartKindEEENS_9allocatorIS9_EEE8pop_backEv
-------- W _ZNSt3__26vectorINS_4pairINS_17basic_string_viewIcNS_11char_traitsIcEEEENS_4__fs10filesystem12PathPartKindEEENS_9allocatorIS9_EEEC2Ev
-------- W _ZNSt3__26vectorINS_4pairINS_17basic_string_viewIcNS_11char_traitsIcEEEENS_4__fs10filesystem12PathPartKindEEENS_9allocatorIS9_EEED2Ev
-------- W _ZNSt3__26vectorINS_4pairIPNS_18condition_variableEPNS_5mutexEEENS_18__hidden_allocatorIS6_EEE11__make_iterEPS6_
-------- W _ZNSt3__26vectorINS_4pairIPNS_18condition_variableEPNS_5mutexEEENS_18__hidden_allocatorIS6_EEE21__push_back_slow_pathIS6_EEvOT_
-------- W _ZNSt3__26vectorINS_4pairIPNS_18condition_variableEPNS_5mutexEEENS_18__hidden_allocatorIS6_EEE24__RAII_IncreaseAnnotator6__doneEv
-------- W _ZNSt3__26vectorINS_4pairIPNS_18condition_variableEPNS_5mutexEEENS_18__hidden_allocatorIS6_EEE24__RAII_IncreaseAnnotatorC2ERKS9_m
-------- W _ZNSt3__26vectorINS_4pairIPNS_18condition_variableEPNS_5mutexEEENS_18__hidden_allocatorIS6_EEE26__invalidate_all_iteratorsEv
-------- W _ZNSt3__26vectorINS_4pairIPNS_18condition_variableEPNS_5mutexEEENS_18__hidden_allocatorIS6_EEE26__swap_out_circular_bufferERNS_14__split_bufferIS6_RS8_EE
-------- W _ZNSt3__26vectorINS_4pairIPNS_18condition_variableEPNS_5mutexEEENS_18__hidden_allocatorIS6_EEE3endEv
-------- W _ZNSt3__26vectorINS_4pairIPNS_18condition_variableEPNS_5mutexEEENS_18__hidden_allocatorIS6_EEE5beginEv
-------- W _ZNSt3__26vectorINS_4pairIPNS_18condition_variableEPNS_5mutexEEENS_18__hidden_allocatorIS6_EEE9push_backEOS6_
-------- W _ZNSt3__26vectorINS_4pairIPNS_18condition_variableEPNS_5mutexEEENS_18__hidden_allocatorIS6_EEEC2Ev
-------- W _ZNSt3__26vectorINS_4pairIPNS_18condition_variableEPNS_5mutexEEENS_18__hidden_allocatorIS6_EEED2Ev
-------- W _ZNSt3__26vectorIPNS_17__assoc_sub_stateENS_18__hidden_allocatorIS2_EEE11__make_iterEPS2_
-------- W _ZNSt3__26vectorIPNS_17__assoc_sub_stateENS_18__hidden_allocatorIS2_EEE21__push_back_slow_pathIRKS2_EEvOT_
-------- W _ZNSt3__26vectorIPNS_17__assoc_sub_stateENS_18__hidden_allocatorIS2_EEE24__RAII_IncreaseAnnotator6__doneEv
-------- W _ZNSt3__26vectorIPNS_17__assoc_sub_stateENS_18__hidden_allocatorIS2_EEE24__RAII_IncreaseAnnotatorC2ERKS5_m
-------- W _ZNSt3__26vectorIPNS_17__assoc_sub_stateENS_18__hidden_allocatorIS2_EEE26__invalidate_all_iteratorsEv
-------- W _ZNSt3__26vectorIPNS_17__assoc_sub_stateENS_18__hidden_allocatorIS2_EEE26__swap_out_circular_bufferERNS_14__split_bufferIS2_RS4_EE
-------- W _ZNSt3__26vectorIPNS_17__assoc_sub_stateENS_18__hidden_allocatorIS2_EEE3endEv
-------- W _ZNSt3__26vectorIPNS_17__assoc_sub_stateENS_18__hidden_allocatorIS2_EEE5beginEv
-------- W _ZNSt3__26vectorIPNS_17__assoc_sub_stateENS_18__hidden_allocatorIS2_EEE9push_backERKS2_
-------- W _ZNSt3__26vectorIPNS_17__assoc_sub_stateENS_18__hidden_allocatorIS2_EEEC2Ev
-------- W _ZNSt3__26vectorIPNS_17__assoc_sub_stateENS_18__hidden_allocatorIS2_EEED2Ev
-------- W _ZNSt3__26vectorIPNS_6locale5facetENS_15__sso_allocatorIS3_Lm28EEEE11__vallocateEm
-------- W _ZNSt3__26vectorIPNS_6locale5facetENS_15__sso_allocatorIS3_Lm28EEEE13__vdeallocateEv
-------- W _ZNSt3__26vectorIPNS_6locale5facetENS_15__sso_allocatorIS3_Lm28EEEE17__destruct_at_endEPS3_
-------- W _ZNSt3__26vectorIPNS_6locale5facetENS_15__sso_allocatorIS3_Lm28EEEE18__construct_at_endEm
-------- W _ZNSt3__26vectorIPNS_6locale5facetENS_15__sso_allocatorIS3_Lm28EEEE18__construct_at_endIPS3_EENS_9enable_ifIXsr21__is_forward_iteratorIT_EE5valueEvE4typeESA_SA_m
-------- W _ZNSt3__26vectorIPNS_6locale5facetENS_15__sso_allocatorIS3_Lm28EEEE24__RAII_IncreaseAnnotator6__doneEv
-------- W _ZNSt3__26vectorIPNS_6locale5facetENS_15__sso_allocatorIS3_Lm28EEEE24__RAII_IncreaseAnnotatorC2ERKS6_m
-------- W _ZNSt3__26vectorIPNS_6locale5facetENS_15__sso_allocatorIS3_Lm28EEEE26__invalidate_all_iteratorsEv
-------- W _ZNSt3__26vectorIPNS_6locale5facetENS_15__sso_allocatorIS3_Lm28EEEE26__swap_out_circular_bufferERNS_14__split_bufferIS3_RS5_EE
-------- W _ZNSt3__26vectorIPNS_6locale5facetENS_15__sso_allocatorIS3_Lm28EEEE27__invalidate_iterators_pastEPS3_
-------- W _ZNSt3__26vectorIPNS_6locale5facetENS_15__sso_allocatorIS3_Lm28EEEE5clearEv
-------- W _ZNSt3__26vectorIPNS_6locale5facetENS_15__sso_allocatorIS3_Lm28EEEE6assignIPS3_EENS_9enable_ifIXaasr21__is_forward_iteratorIT_EE5valuesr16is_constructibleIS3_NS_15iterator_traitsISA_E9referenceEEE5valueEvE4typeESA_SA_
-------- W _ZNSt3__26vectorIPNS_6locale5facetENS_15__sso_allocatorIS3_Lm28EEEE6resizeEm
-------- W _ZNSt3__26vectorIPNS_6locale5facetENS_15__sso_allocatorIS3_Lm28EEEE8__appendEm
-------- W _ZNSt3__26vectorIPNS_6locale5facetENS_15__sso_allocatorIS3_Lm28EEEEC2Em
-------- W _ZNSt3__26vectorIPNS_6locale5facetENS_15__sso_allocatorIS3_Lm28EEEED2Ev
-------- W _ZNSt3__26vectorIPNS_6locale5facetENS_15__sso_allocatorIS3_Lm28EEEEaSERKS6_
-------- W _ZNSt3__26vectorIPNS_6locale5facetENS_15__sso_allocatorIS3_Lm28EEEEixEm
-------- W _ZNSt3__27__sort3IRNS_6__lessIaaEEPaEEjT0_S5_S5_T_
-------- W _ZNSt3__27__sort3IRNS_6__lessIccEEPcEEjT0_S5_S5_T_
-------- W _ZNSt3__27__sort3IRNS_6__lessIddEEPdEEjT0_S5_S5_T_
-------- W _ZNSt3__27__sort3IRNS_6__lessIeeEEPeEEjT0_S5_S5_T_
-------- W _ZNSt3__27__sort3IRNS_6__lessIffEEPfEEjT0_S5_S5_T_
-------- W _ZNSt3__27__sort3IRNS_6__lessIhhEEPhEEjT0_S5_S5_T_
-------- W _ZNSt3__27__sort3IRNS_6__lessIiiEEPiEEjT0_S5_S5_T_
-------- W _ZNSt3__27__sort3IRNS_6__lessIjjEEPjEEjT0_S5_S5_T_
-------- W _ZNSt3__27__sort3IRNS_6__lessIllEEPlEEjT0_S5_S5_T_
-------- W _ZNSt3__27__sort3IRNS_6__lessImmEEPmEEjT0_S5_S5_T_
-------- W _ZNSt3__27__sort3IRNS_6__lessIssEEPsEEjT0_S5_S5_T_
-------- W _ZNSt3__27__sort3IRNS_6__lessIttEEPtEEjT0_S5_S5_T_
-------- W _ZNSt3__27__sort3IRNS_6__lessIwwEEPwEEjT0_S5_S5_T_
-------- W _ZNSt3__27__sort3IRNS_6__lessIxxEEPxEEjT0_S5_S5_T_
-------- W _ZNSt3__27__sort3IRNS_6__lessIyyEEPyEEjT0_S5_S5_T_
-------- W _ZNSt3__27__sort4IRNS_6__lessIaaEEPaEEjT0_S5_S5_S5_T_
-------- W _ZNSt3__27__sort4IRNS_6__lessIccEEPcEEjT0_S5_S5_S5_T_
-------- W _ZNSt3__27__sort4IRNS_6__lessIddEEPdEEjT0_S5_S5_S5_T_
-------- W _ZNSt3__27__sort4IRNS_6__lessIeeEEPeEEjT0_S5_S5_S5_T_
-------- W _ZNSt3__27__sort4IRNS_6__lessIffEEPfEEjT0_S5_S5_S5_T_
-------- W _ZNSt3__27__sort4IRNS_6__lessIhhEEPhEEjT0_S5_S5_S5_T_
-------- W _ZNSt3__27__sort4IRNS_6__lessIiiEEPiEEjT0_S5_S5_S5_T_
-------- W _ZNSt3__27__sort4IRNS_6__lessIjjEEPjEEjT0_S5_S5_S5_T_
-------- W _ZNSt3__27__sort4IRNS_6__lessIllEEPlEEjT0_S5_S5_S5_T_
-------- W _ZNSt3__27__sort4IRNS_6__lessImmEEPmEEjT0_S5_S5_S5_T_
-------- W _ZNSt3__27__sort4IRNS_6__lessIssEEPsEEjT0_S5_S5_S5_T_
-------- W _ZNSt3__27__sort4IRNS_6__lessIttEEPtEEjT0_S5_S5_S5_T_
-------- W _ZNSt3__27__sort4IRNS_6__lessIwwEEPwEEjT0_S5_S5_S5_T_
-------- W _ZNSt3__27__sort4IRNS_6__lessIxxEEPxEEjT0_S5_S5_S5_T_
-------- W _ZNSt3__27__sort4IRNS_6__lessIyyEEPyEEjT0_S5_S5_S5_T_
-------- W _ZNSt3__27__sort5IRNS_6__lessIaaEEPaEEjT0_S5_S5_S5_S5_T_
-------- W _ZNSt3__27__sort5IRNS_6__lessIccEEPcEEjT0_S5_S5_S5_S5_T_
-------- W _ZNSt3__27__sort5IRNS_6__lessIddEEPdEEjT0_S5_S5_S5_S5_T_
-------- W _ZNSt3__27__sort5IRNS_6__lessIeeEEPeEEjT0_S5_S5_S5_S5_T_
-------- W _ZNSt3__27__sort5IRNS_6__lessIffEEPfEEjT0_S5_S5_S5_S5_T_
-------- W _ZNSt3__27__sort5IRNS_6__lessIhhEEPhEEjT0_S5_S5_S5_S5_T_
-------- W _ZNSt3__27__sort5IRNS_6__lessIiiEEPiEEjT0_S5_S5_S5_S5_T_
-------- W _ZNSt3__27__sort5IRNS_6__lessIjjEEPjEEjT0_S5_S5_S5_S5_T_
-------- W _ZNSt3__27__sort5IRNS_6__lessIllEEPlEEjT0_S5_S5_S5_S5_T_
-------- W _ZNSt3__27__sort5IRNS_6__lessImmEEPmEEjT0_S5_S5_S5_S5_T_
-------- W _ZNSt3__27__sort5IRNS_6__lessIssEEPsEEjT0_S5_S5_S5_S5_T_
-------- W _ZNSt3__27__sort5IRNS_6__lessIttEEPtEEjT0_S5_S5_S5_S5_T_
-------- W _ZNSt3__27__sort5IRNS_6__lessIwwEEPwEEjT0_S5_S5_S5_S5_T_
-------- W _ZNSt3__27__sort5IRNS_6__lessIxxEEPxEEjT0_S5_S5_S5_S5_T_
-------- W _ZNSt3__27__sort5IRNS_6__lessIyyEEPyEEjT0_S5_S5_S5_S5_T_
-------- W _ZNSt3__27advanceINS_11__wrap_iterIPcEEEEvRT_NS_15iterator_traitsIS4_E15difference_typeE
-------- W _ZNSt3__27advanceINS_11__wrap_iterIPwEEEEvRT_NS_15iterator_traitsIS4_E15difference_typeE
-------- W _ZNSt3__27advanceIPKjEEvRT_NS_15iterator_traitsIS3_E15difference_typeE
-------- W _ZNSt3__27advanceIPPNS_6locale5facetEEEvRT_NS_15iterator_traitsIS5_E15difference_typeE
-------- D _ZNSt3__27codecvtIDic11__mbstate_tE2idE
-------- W _ZNSt3__27codecvtIDic11__mbstate_tEC2EPKcm
-------- W _ZNSt3__27codecvtIDic11__mbstate_tEC2Em
-------- T _ZNSt3__27codecvtIDic11__mbstate_tED0Ev
-------- T _ZNSt3__27codecvtIDic11__mbstate_tED1Ev
-------- T _ZNSt3__27codecvtIDic11__mbstate_tED2Ev
-------- D _ZNSt3__27codecvtIDsc11__mbstate_tE2idE
-------- W _ZNSt3__27codecvtIDsc11__mbstate_tEC2EPKcm
-------- W _ZNSt3__27codecvtIDsc11__mbstate_tEC2Em
-------- T _ZNSt3__27codecvtIDsc11__mbstate_tED0Ev
-------- T _ZNSt3__27codecvtIDsc11__mbstate_tED1Ev
-------- T _ZNSt3__27codecvtIDsc11__mbstate_tED2Ev
-------- D _ZNSt3__27codecvtIcc11__mbstate_tE2idE
-------- W _ZNSt3__27codecvtIcc11__mbstate_tEC2EPKcm
-------- W _ZNSt3__27codecvtIcc11__mbstate_tEC2Em
-------- T _ZNSt3__27codecvtIcc11__mbstate_tED0Ev
-------- T _ZNSt3__27codecvtIcc11__mbstate_tED1Ev
-------- T _ZNSt3__27codecvtIcc11__mbstate_tED2Ev
-------- D _ZNSt3__27codecvtIwc11__mbstate_tE2idE
-------- T _ZNSt3__27codecvtIwc11__mbstate_tEC1EPKcm
-------- T _ZNSt3__27codecvtIwc11__mbstate_tEC1Em
-------- T _ZNSt3__27codecvtIwc11__mbstate_tEC2EPKcm
-------- T _ZNSt3__27codecvtIwc11__mbstate_tEC2Em
-------- T _ZNSt3__27codecvtIwc11__mbstate_tED0Ev
-------- T _ZNSt3__27codecvtIwc11__mbstate_tED1Ev
-------- T _ZNSt3__27codecvtIwc11__mbstate_tED2Ev
-------- W _ZNSt3__27collateIcE2idE
-------- W _ZNSt3__27collateIcEC2Em
-------- W _ZNSt3__27collateIcED0Ev
-------- W _ZNSt3__27collateIcED1Ev
-------- W _ZNSt3__27collateIcED2Ev
-------- W _ZNSt3__27collateIwE2idE
-------- W _ZNSt3__27collateIwEC2Em
-------- W _ZNSt3__27collateIwED0Ev
-------- W _ZNSt3__27collateIwED1Ev
-------- W _ZNSt3__27collateIwED2Ev
-------- W _ZNSt3__27forwardIDnEEOT_RNS_16remove_referenceIS1_E4typeE
-------- W _ZNSt3__27forwardINS_17basic_string_viewIcNS_11char_traitsIcEEEEEEOT_RNS_16remove_referenceIS5_E4typeE
-------- W _ZNSt3__27forwardINS_22__allocator_destructorINS_9allocatorINS_20__shared_ptr_emplaceINS_4__fs10filesystem12__dir_streamENS2_IS6_EEEEEEEEEEOT_RNS_16remove_referenceISB_E4typeE
-------- W _ZNSt3__27forwardINS_22__allocator_destructorINS_9allocatorINS_20__shared_ptr_emplaceINS_4__fs10filesystem28recursive_directory_iterator12__shared_impENS2_IS7_EEEEEEEEEEOT_RNS_16remove_referenceISC_E4typeE
-------- W _ZNSt3__27forwardINS_22__allocator_destructorINS_9allocatorINS_4__fs10filesystem12__dir_streamEEEEEEEOT_RNS_16remove_referenceIS8_E4typeE
-------- W _ZNSt3__27forwardINS_4__fs10filesystem12__dir_streamEEEOT_RNS_16remove_referenceIS4_E4typeE
-------- W _ZNSt3__27forwardINS_4__fs10filesystem9file_typeEEEOT_RNS_16remove_referenceIS4_E4typeE
-------- W _ZNSt3__27forwardINS_4pairIPNS_18condition_variableEPNS_5mutexEEEEEOT_RNS_16remove_referenceIS7_E4typeE
-------- W _ZNSt3__27forwardINS_9allocatorINS_4__fs10filesystem28recursive_directory_iterator12__shared_impEEEEEOT_RNS_16remove_referenceIS7_E4typeE
-------- W _ZNSt3__27forwardINS_9allocatorIcEEEEOT_RNS_16remove_referenceIS3_E4typeE
-------- W _ZNSt3__27forwardINS_9allocatorIwEEEEOT_RNS_16remove_referenceIS3_E4typeE
-------- W _ZNSt3__27forwardIPFiP8_IO_FILEEEEOT_RNS_16remove_referenceIS5_E4typeE
-------- W _ZNSt3__27forwardIPFvPvEEEOT_RNS_16remove_referenceIS4_E4typeE
-------- W _ZNSt3__27forwardIPNS_4__fs10filesystem12__dir_streamEEEOT_RNS_16remove_referenceIS5_E4typeE
-------- W _ZNSt3__27forwardIRA1_KcEEOT_RNS_16remove_referenceIS4_E4typeE
-------- W _ZNSt3__27forwardIRA256_cEEOT_RNS_16remove_referenceIS3_E4typeE
-------- W _ZNSt3__27forwardIRKNS_17basic_string_viewIcNS_11char_traitsIcEEEEEEOT_RNS_16remove_referenceIS7_E4typeE
-------- W _ZNSt3__27forwardIRKNS_4__fs10filesystem4pathEEEOT_RNS_16remove_referenceIS6_E4typeE
-------- W _ZNSt3__27forwardIRKNS_9allocatorIcEEEEOT_RNS_16remove_referenceIS5_E4typeE
-------- W _ZNSt3__27forwardIRKNS_9allocatorIwEEEEOT_RNS_16remove_referenceIS5_E4typeE
-------- W _ZNSt3__27forwardIRKPNS_17__assoc_sub_stateEEEOT_RNS_16remove_referenceIS5_E4typeE
-------- W _ZNSt3__27forwardIRKPNS_4__fs10filesystem12__dir_streamEEEOT_RNS_16remove_referenceIS7_E4typeE
-------- W _ZNSt3__27forwardIRNS_10error_codeEEEOT_RNS_16remove_referenceIS3_E4typeE
-------- W _ZNSt3__27forwardIRNS_15__sso_allocatorIPNS_6locale5facetELm28EEEEEOT_RNS_16remove_referenceIS7_E4typeE
-------- W _ZNSt3__27forwardIRNS_17basic_string_viewIcNS_11char_traitsIcEEEEEEOT_RNS_16remove_referenceIS6_E4typeE
-------- W _ZNSt3__27forwardIRNS_18__hidden_allocatorINS_4pairIPNS_18condition_variableEPNS_5mutexEEEEEEEOT_RNS_16remove_referenceISA_E4typeE
-------- W _ZNSt3__27forwardIRNS_18__hidden_allocatorIPNS_17__assoc_sub_stateEEEEEOT_RNS_16remove_referenceIS6_E4typeE
-------- W _ZNSt3__27forwardIRNS_4__fs10filesystem12PathPartKindEEEOT_RNS_16remove_referenceIS5_E4typeE
-------- W _ZNSt3__27forwardIRNS_4__fs10filesystem17directory_optionsEEEOT_RNS_16remove_referenceIS5_E4typeE
-------- W _ZNSt3__27forwardIRNS_9allocatorINS_17basic_string_viewIcNS_11char_traitsIcEEEEEEEEOT_RNS_16remove_referenceIS8_E4typeE
-------- W _ZNSt3__27forwardIRNS_9allocatorINS_4__fs10filesystem12__dir_streamEEEEEOT_RNS_16remove_referenceIS7_E4typeE
-------- W _ZNSt3__27forwardIRNS_9allocatorINS_4pairINS_17basic_string_viewIcNS_11char_traitsIcEEEENS_4__fs10filesystem12PathPartKindEEEEEEEOT_RNS_16remove_referenceISD_E4typeE
-------- W _ZNSt3__27forwardIRNS_9allocatorIPNS_4__fs10filesystem12__dir_streamEEEEEOT_RNS_16remove_referenceIS8_E4typeE
-------- W _ZNSt3__27forwardIRP8_IO_FILEEEOT_RNS_16remove_referenceIS4_E4typeE
-------- W _ZNSt3__27forwardIRPNS_14__shared_countEEEOT_RNS_16remove_referenceIS4_E4typeE
-------- W _ZNSt3__27forwardIRPNS_18condition_variableEEEOT_RNS_16remove_referenceIS4_E4typeE
-------- W _ZNSt3__27forwardIRPNS_20__shared_ptr_emplaceINS_4__fs10filesystem12__dir_streamENS_9allocatorIS4_EEEEEEOT_RNS_16remove_referenceISA_E4typeE
-------- W _ZNSt3__27forwardIRPNS_20__shared_ptr_emplaceINS_4__fs10filesystem28recursive_directory_iterator12__shared_impENS_9allocatorIS5_EEEEEEOT_RNS_16remove_referenceISB_E4typeE
-------- W _ZNSt3__27forwardIRPNS_4__fs10filesystem12__dir_streamEEEOT_RNS_16remove_referenceIS6_E4typeE
-------- W _ZNSt3__27forwardIRPNS_5mutexEEEOT_RNS_16remove_referenceIS4_E4typeE
-------- W _ZNSt3__27forwardIRPNS_6locale5facetEEEOT_RNS_16remove_referenceIS5_E4typeE
-------- W _ZNSt3__27forwardIRPPFvNS_8ios_base5eventERS1_iEEEOT_RNS_16remove_referenceIS8_E4typeE
-------- W _ZNSt3__27forwardIRPPvEEOT_RNS_16remove_referenceIS4_E4typeE
-------- W _ZNSt3__27forwardIRPcEEOT_RNS_16remove_referenceIS3_E4typeE
-------- W _ZNSt3__27forwardIRPhEEOT_RNS_16remove_referenceIS3_E4typeE
-------- W _ZNSt3__27forwardIRPiEEOT_RNS_16remove_referenceIS3_E4typeE
-------- W _ZNSt3__27forwardIRPjEEOT_RNS_16remove_referenceIS3_E4typeE
-------- W _ZNSt3__27forwardIRPlEEOT_RNS_16remove_referenceIS3_E4typeE
-------- W _ZNSt3__27forwardIRPwEEOT_RNS_16remove_referenceIS3_E4typeE
-------- W _ZNSt3__27forwardIiEEOT_RNS_16remove_referenceIS1_E4typeE
-------- W _ZNSt3__27num_getIcNS_19istreambuf_iteratorIcNS_11char_traitsIcEEEEE2idE
-------- W _ZNSt3__27num_getIcNS_19istreambuf_iteratorIcNS_11char_traitsIcEEEEEC2Em
-------- W _ZNSt3__27num_getIcNS_19istreambuf_iteratorIcNS_11char_traitsIcEEEEED0Ev
-------- W _ZNSt3__27num_getIwNS_19istreambuf_iteratorIwNS_11char_traitsIwEEEEE2idE
-------- W _ZNSt3__27num_getIwNS_19istreambuf_iteratorIwNS_11char_traitsIwEEEEEC2Em
-------- W _ZNSt3__27num_getIwNS_19istreambuf_iteratorIwNS_11char_traitsIwEEEEED0Ev
-------- W _ZNSt3__27num_putIcNS_19ostreambuf_iteratorIcNS_11char_traitsIcEEEEE2idE
-------- W _ZNSt3__27num_putIcNS_19ostreambuf_iteratorIcNS_11char_traitsIcEEEEEC2Em
-------- W _ZNSt3__27num_putIcNS_19ostreambuf_iteratorIcNS_11char_traitsIcEEEEED0Ev
-------- W _ZNSt3__27num_putIwNS_19ostreambuf_iteratorIwNS_11char_traitsIwEEEEE2idE
-------- W _ZNSt3__27num_putIwNS_19ostreambuf_iteratorIwNS_11char_traitsIwEEEEEC2Em
-------- W _ZNSt3__27num_putIwNS_19ostreambuf_iteratorIwNS_11char_traitsIwEEEEED0Ev
-------- T _ZNSt3__27promiseIvE10get_futureEv
-------- T _ZNSt3__27promiseIvE13set_exceptionESt13exception_ptr
-------- T _ZNSt3__27promiseIvE24set_value_at_thread_exitEv
-------- T _ZNSt3__27promiseIvE28set_exception_at_thread_exitESt13exception_ptr
-------- T _ZNSt3__27promiseIvE9set_valueEv
-------- T _ZNSt3__27promiseIvEC1Ev
-------- T _ZNSt3__27promiseIvEC2Ev
-------- T _ZNSt3__27promiseIvED1Ev
-------- T _ZNSt3__27promiseIvED2Ev
-------- W _ZNSt3__27reverseIPcEEvT_S2_
-------- W _ZNSt3__27reverseIPjEEvT_S2_
-------- W _ZNSt3__27reverseIPwEEvT_S2_
-------- W _ZNSt3__27unitbufERNS_8ios_baseE
-------- T _ZNSt3__28__c_node5__addEPNS_8__i_nodeE
-------- T _ZNSt3__28__c_node8__removeEPNS_8__i_nodeE
-------- T _ZNSt3__28__c_nodeD0Ev
-------- T _ZNSt3__28__c_nodeD1Ev
-------- T _ZNSt3__28__c_nodeD2Ev
-------- T _ZNSt3__28__get_dbEv
-------- W _ZNSt3__28__i_nodeC2EPvPS0_PNS_8__c_nodeE
-------- T _ZNSt3__28__i_nodeD1Ev
-------- T _ZNSt3__28__i_nodeD2Ev
-------- W _ZNSt3__28__rotateINS_11__wrap_iterIPcEEEET_S4_S4_S4_NS_26random_access_iterator_tagE
-------- W _ZNSt3__28__rotateINS_11__wrap_iterIPwEEEET_S4_S4_S4_NS_26random_access_iterator_tagE
-------- T _ZNSt3__28__rs_getEv
-------- T _ZNSt3__28__sp_mut4lockEv
-------- T _ZNSt3__28__sp_mut6unlockEv
-------- W _ZNSt3__28__sp_mutC2EPv
-------- W _ZNSt3__28distanceIPKNS_12basic_stringIcNS_11char_traitsIcEENS_9allocatorIcEEEEEENS_15iterator_traitsIT_E15difference_typeESA_SA_
-------- W _ZNSt3__28distanceIPKNS_12basic_stringIwNS_11char_traitsIwEENS_9allocatorIwEEEEEENS_15iterator_traitsIT_E15difference_typeESA_SA_
-------- W _ZNSt3__28distanceIPKcEENS_15iterator_traitsIT_E15difference_typeES4_S4_
-------- W _ZNSt3__28distanceIPKjEENS_15iterator_traitsIT_E15difference_typeES4_S4_
-------- W _ZNSt3__28distanceIPKwEENS_15iterator_traitsIT_E15difference_typeES4_S4_
-------- W _ZNSt3__28distanceIPNS_12basic_stringIcNS_11char_traitsIcEENS_9allocatorIcEEEEEENS_15iterator_traitsIT_E15difference_typeES9_S9_
-------- W _ZNSt3__28distanceIPNS_12basic_stringIwNS_11char_traitsIwEENS_9allocatorIwEEEEEENS_15iterator_traitsIT_E15difference_typeES9_S9_
-------- W _ZNSt3__28distanceIPPNS_6locale5facetEEENS_15iterator_traitsIT_E15difference_typeES6_S6_
-------- W _ZNSt3__28distanceIPcEENS_15iterator_traitsIT_E15difference_typeES3_S3_
-------- W _ZNSt3__28distanceIPwEENS_15iterator_traitsIT_E15difference_typeES3_S3_
-------- W _ZNSt3__28ios_base10exceptionsEj
-------- D _ZNSt3__28ios_base10floatfieldE
-------- D _ZNSt3__28ios_base10scientificE
-------- D _ZNSt3__28ios_base11adjustfieldE
-------- T _ZNSt3__28ios_base15sync_with_stdioEb
-------- T _ZNSt3__28ios_base16__call_callbacksENS0_5eventE
-------- T _ZNSt3__28ios_base17register_callbackEPFvNS0_5eventERS0_iEi
-------- D _ZNSt3__28ios_base2inE
-------- T _ZNSt3__28ios_base33__set_badbit_and_consider_rethrowEv
-------- T _ZNSt3__28ios_base34__set_failbit_and_consider_rethrowEv
-------- D _ZNSt3__28ios_base3appE
-------- D _ZNSt3__28ios_base3ateE
-------- D _ZNSt3__28ios_base3decE
-------- D _ZNSt3__28ios_base3hexE
-------- D _ZNSt3__28ios_base3octE
-------- D _ZNSt3__28ios_base3outE
-------- T _ZNSt3__28ios_base4InitC1Ev
-------- T _ZNSt3__28ios_base4InitC2Ev
-------- T _ZNSt3__28ios_base4InitD1Ev
-------- T _ZNSt3__28ios_base4InitD2Ev
-------- T _ZNSt3__28ios_base4initEPv
-------- D _ZNSt3__28ios_base4leftE
-------- T _ZNSt3__28ios_base4moveERS0_
-------- W _ZNSt3__28ios_base4setfEj
-------- T _ZNSt3__28ios_base4swapERS0_
-------- T _ZNSt3__28ios_base5clearEj
-------- D _ZNSt3__28ios_base5fixedE
-------- T _ZNSt3__28ios_base5imbueERKNS_6localeE
-------- T _ZNSt3__28ios_base5iwordEi
-------- T _ZNSt3__28ios_base5pwordEi
-------- D _ZNSt3__28ios_base5rightE
-------- D _ZNSt3__28ios_base5truncE
-------- W _ZNSt3__28ios_base5widthEl
-------- D _ZNSt3__28ios_base6badbitE
-------- D _ZNSt3__28ios_base6binaryE
-------- D _ZNSt3__28ios_base6eofbitE
-------- D _ZNSt3__28ios_base6skipwsE
-------- T _ZNSt3__28ios_base6xallocEv
-------- T _ZNSt3__28ios_base7copyfmtERKS0_
-------- D _ZNSt3__28ios_base7failbitE
-------- T _ZNSt3__28ios_base7failureC1EPKcRKNS_10error_codeE
-------- T _ZNSt3__28ios_base7failureC1ERKNS_12basic_stringIcNS_11char_traitsIcEENS_9allocatorIcEEEERKNS_10error_codeE
-------- T _ZNSt3__28ios_base7failureC2EPKcRKNS_10error_codeE
-------- T _ZNSt3__28ios_base7failureC2ERKNS_12basic_stringIcNS_11char_traitsIcEENS_9allocatorIcEEEERKNS_10error_codeE
-------- T _ZNSt3__28ios_base7failureD0Ev
-------- T _ZNSt3__28ios_base7failureD1Ev
-------- T _ZNSt3__28ios_base7failureD2Ev
-------- D _ZNSt3__28ios_base7goodbitE
-------- D _ZNSt3__28ios_base7showposE
-------- D _ZNSt3__28ios_base7unitbufE
-------- D _ZNSt3__28ios_base8internalE
-------- W _ZNSt3__28ios_base8setstateEj
-------- D _ZNSt3__28ios_base8showbaseE
-------- D _ZNSt3__28ios_base9__xindex_E
-------- D _ZNSt3__28ios_base9basefieldE
-------- D _ZNSt3__28ios_base9boolalphaE
-------- D _ZNSt3__28ios_base9showpointE
-------- D _ZNSt3__28ios_base9uppercaseE
-------- W _ZNSt3__28ios_baseC2Ev
-------- T _ZNSt3__28ios_baseD0Ev
-------- T _ZNSt3__28ios_baseD1Ev
-------- T _ZNSt3__28ios_baseD2Ev
-------- W _ZNSt3__28messagesIcE2idE
-------- W _ZNSt3__28messagesIcEC2Em
-------- W _ZNSt3__28messagesIcED0Ev
-------- W _ZNSt3__28messagesIwE2idE
-------- W _ZNSt3__28messagesIwEC2Em
-------- W _ZNSt3__28messagesIwED0Ev
-------- D _ZNSt3__28numpunctIcE2idE
-------- T _ZNSt3__28numpunctIcEC1Em
-------- T _ZNSt3__28numpunctIcEC2Em
-------- T _ZNSt3__28numpunctIcED0Ev
-------- T _ZNSt3__28numpunctIcED1Ev
-------- T _ZNSt3__28numpunctIcED2Ev
-------- D _ZNSt3__28numpunctIwE2idE
-------- T _ZNSt3__28numpunctIwEC1Em
-------- T _ZNSt3__28numpunctIwEC2Em
-------- T _ZNSt3__28numpunctIwED0Ev
-------- T _ZNSt3__28numpunctIwED1Ev
-------- T _ZNSt3__28numpunctIwED2Ev
-------- W _ZNSt3__28time_getIcNS_19istreambuf_iteratorIcNS_11char_traitsIcEEEEE2idE
-------- W _ZNSt3__28time_getIcNS_19istreambuf_iteratorIcNS_11char_traitsIcEEEEEC2Em
-------- W _ZNSt3__28time_getIcNS_19istreambuf_iteratorIcNS_11char_traitsIcEEEEED0Ev
-------- W _ZNSt3__28time_getIcNS_19istreambuf_iteratorIcNS_11char_traitsIcEEEEED2Ev
-------- W _ZNSt3__28time_getIwNS_19istreambuf_iteratorIwNS_11char_traitsIwEEEEE2idE
-------- W _ZNSt3__28time_getIwNS_19istreambuf_iteratorIwNS_11char_traitsIwEEEEEC2Em
-------- W _ZNSt3__28time_getIwNS_19istreambuf_iteratorIwNS_11char_traitsIwEEEEED0Ev
-------- W _ZNSt3__28time_getIwNS_19istreambuf_iteratorIwNS_11char_traitsIwEEEEED2Ev
-------- W _ZNSt3__28time_putIcNS_19ostreambuf_iteratorIcNS_11char_traitsIcEEEEE2idE
-------- W _ZNSt3__28time_putIcNS_19ostreambuf_iteratorIcNS_11char_traitsIcEEEEEC2ERKNS_12basic_stringIcS3_NS_9allocatorIcEEEEm
-------- W _ZNSt3__28time_putIcNS_19ostreambuf_iteratorIcNS_11char_traitsIcEEEEEC2Em
-------- W _ZNSt3__28time_putIcNS_19ostreambuf_iteratorIcNS_11char_traitsIcEEEEED0Ev
-------- W _ZNSt3__28time_putIcNS_19ostreambuf_iteratorIcNS_11char_traitsIcEEEEED2Ev
-------- W _ZNSt3__28time_putIwNS_19ostreambuf_iteratorIwNS_11char_traitsIwEEEEE2idE
-------- W _ZNSt3__28time_putIwNS_19ostreambuf_iteratorIwNS_11char_traitsIwEEEEEC2ERKNS_12basic_stringIcNS2_IcEENS_9allocatorIcEEEEm
-------- W _ZNSt3__28time_putIwNS_19ostreambuf_iteratorIwNS_11char_traitsIwEEEEEC2Em
-------- W _ZNSt3__28time_putIwNS_19ostreambuf_iteratorIwNS_11char_traitsIwEEEEED0Ev
-------- W _ZNSt3__28time_putIwNS_19ostreambuf_iteratorIwNS_11char_traitsIwEEEEED2Ev
-------- W _ZNSt3__28valarrayImE6resizeEmm
-------- W _ZNSt3__28valarrayImE7__clearEm
-------- W _ZNSt3__28valarrayImEC1Em
-------- W _ZNSt3__28valarrayImEC2Em
-------- W _ZNSt3__28valarrayImED1Ev
-------- W _ZNSt3__28valarrayImED2Ev
-------- W _ZNSt3__28valarrayImEixEm
-------- W _ZNSt3__29__advanceINS_11__wrap_iterIPcEEEEvRT_NS_15iterator_traitsIS4_E15difference_typeENS_26random_access_iterator_tagE
-------- W _ZNSt3__29__advanceINS_11__wrap_iterIPwEEEEvRT_NS_15iterator_traitsIS4_E15difference_typeENS_26random_access_iterator_tagE
-------- W _ZNSt3__29__advanceIPKjEEvRT_NS_15iterator_traitsIS3_E15difference_typeENS_26random_access_iterator_tagE
-------- W _ZNSt3__29__advanceIPPNS_6locale5facetEEEvRT_NS_15iterator_traitsIS5_E15difference_typeENS_26random_access_iterator_tagE
-------- W _ZNSt3__29__num_getIcE17__stage2_int_loopEciPcRS2_RjcRKNS_12basic_stringIcNS_11char_traitsIcEENS_9allocatorIcEEEEPjRSD_PKc
-------- W _ZNSt3__29__num_getIcE17__stage2_int_prepERNS_8ios_baseERc
-------- W _ZNSt3__29__num_getIcE19__stage2_float_loopEcRbRcPcRS4_ccRKNS_12basic_stringIcNS_11char_traitsIcEENS_9allocatorIcEEEEPjRSE_RjS4_
-------- W _ZNSt3__29__num_getIcE19__stage2_float_prepERNS_8ios_baseEPcRcS5_
-------- W _ZNSt3__29__num_getIwE17__stage2_int_loopEwiPcRS2_RjwRKNS_12basic_stringIcNS_11char_traitsIcEENS_9allocatorIcEEEEPjRSD_PKw
-------- W _ZNSt3__29__num_getIwE17__stage2_int_prepERNS_8ios_baseERw
-------- W _ZNSt3__29__num_getIwE19__stage2_float_loopEwRbRcPcRS4_wwRKNS_12basic_stringIcNS_11char_traitsIcEENS_9allocatorIcEEEEPjRSE_RjPw
-------- W _ZNSt3__29__num_getIwE19__stage2_float_prepERNS_8ios_baseEPwRwS5_
-------- W _ZNSt3__29__num_putIcE21__widen_and_group_intEPcS2_S2_S2_RS2_S3_RKNS_6localeE
-------- W _ZNSt3__29__num_putIcE23__widen_and_group_floatEPcS2_S2_S2_RS2_S3_RKNS_6localeE
-------- W _ZNSt3__29__num_putIwE21__widen_and_group_intEPcS2_S2_PwRS3_S4_RKNS_6localeE
-------- W _ZNSt3__29__num_putIwE23__widen_and_group_floatEPcS2_S2_PwRS3_S4_RKNS_6localeE
-------- W _ZNSt3__29__reverseIPcEEvT_S2_NS_26random_access_iterator_tagE
-------- W _ZNSt3__29__reverseIPjEEvT_S2_NS_26random_access_iterator_tagE
-------- W _ZNSt3__29__reverseIPwEEvT_S2_NS_26random_access_iterator_tagE
-------- W _ZNSt3__29addressofIKcEEPT_RS2_
-------- W _ZNSt3__29addressofIKwEEPT_RS2_
-------- W _ZNSt3__29addressofINS_12basic_stringIcNS_11char_traitsIcEENS_9allocatorIcEEEEEEPT_RS7_
-------- W _ZNSt3__29addressofINS_12basic_stringIwNS_11char_traitsIwEENS_9allocatorIwEEEEEEPT_RS7_
-------- W _ZNSt3__29addressofINS_20__shared_ptr_emplaceINS_4__fs10filesystem12__dir_streamENS_9allocatorIS4_EEEEEEPT_RS8_
-------- W _ZNSt3__29addressofINS_20__shared_ptr_emplaceINS_4__fs10filesystem28recursive_directory_iterator12__shared_impENS_9allocatorIS5_EEEEEEPT_RS9_
-------- W _ZNSt3__29addressofINS_4__fs10filesystem12__dir_streamEEEPT_RS4_
-------- W _ZNSt3__29addressofINS_4__fs10filesystem28recursive_directory_iterator12__shared_impEEEPT_RS5_
-------- W _ZNSt3__29addressofINS_4pairIPNS_18condition_variableEPNS_5mutexEEEEEPT_RS7_
-------- W _ZNSt3__29addressofINS_5mutexEEEPT_RS2_
-------- W _ZNSt3__29addressofIcEEPT_RS1_
-------- W _ZNSt3__29addressofIwEEPT_RS1_
-------- W _ZNSt3__29allocatorINS_17basic_string_viewIcNS_11char_traitsIcEEEEE10deallocateEPS4_m
-------- W _ZNSt3__29allocatorINS_17basic_string_viewIcNS_11char_traitsIcEEEEE7destroyEPS4_
-------- W _ZNSt3__29allocatorINS_17basic_string_viewIcNS_11char_traitsIcEEEEE8allocateEmPKv
-------- W _ZNSt3__29allocatorINS_17basic_string_viewIcNS_11char_traitsIcEEEEE9constructIS4_JS4_EEEvPT_DpOT0_
-------- W _ZNSt3__29allocatorINS_17basic_string_viewIcNS_11char_traitsIcEEEEEC2Ev
-------- W _ZNSt3__29allocatorINS_20__shared_ptr_emplaceINS_4__fs10filesystem12__dir_streamENS0_IS4_EEEEE10deallocateEPS6_m
-------- W _ZNSt3__29allocatorINS_20__shared_ptr_emplaceINS_4__fs10filesystem12__dir_streamENS0_IS4_EEEEE8allocateEmPKv
-------- W _ZNSt3__29allocatorINS_20__shared_ptr_emplaceINS_4__fs10filesystem12__dir_streamENS0_IS4_EEEEEC2Ev
-------- W _ZNSt3__29allocatorINS_20__shared_ptr_emplaceINS_4__fs10filesystem12__dir_streamENS0_IS4_EEEEEC2IS4_EERKNS0_IT_EE
-------- W _ZNSt3__29allocatorINS_20__shared_ptr_emplaceINS_4__fs10filesystem28recursive_directory_iterator12__shared_impENS0_IS5_EEEEE10deallocateEPS7_m
-------- W _ZNSt3__29allocatorINS_20__shared_ptr_emplaceINS_4__fs10filesystem28recursive_directory_iterator12__shared_impENS0_IS5_EEEEE8allocateEmPKv
-------- W _ZNSt3__29allocatorINS_20__shared_ptr_emplaceINS_4__fs10filesystem28recursive_directory_iterator12__shared_impENS0_IS5_EEEEEC2Ev
-------- W _ZNSt3__29allocatorINS_20__shared_ptr_emplaceINS_4__fs10filesystem28recursive_directory_iterator12__shared_impENS0_IS5_EEEEEC2IS5_EERKNS0_IT_EE
-------- W _ZNSt3__29allocatorINS_4__fs10filesystem12__dir_streamEE10deallocateEPS3_m
-------- W _ZNSt3__29allocatorINS_4__fs10filesystem12__dir_streamEE7destroyEPS3_
-------- W _ZNSt3__29allocatorINS_4__fs10filesystem12__dir_streamEE8allocateEmPKv
-------- W _ZNSt3__29allocatorINS_4__fs10filesystem12__dir_streamEE9constructIS3_JS3_EEEvPT_DpOT0_
-------- W _ZNSt3__29allocatorINS_4__fs10filesystem12__dir_streamEEC2Ev
-------- W _ZNSt3__29allocatorINS_4__fs10filesystem12__dir_streamEEC2INS_20__shared_ptr_emplaceIS3_S4_EEEERKNS0_IT_EE
-------- W _ZNSt3__29allocatorINS_4__fs10filesystem28recursive_directory_iterator12__shared_impEEC2INS_20__shared_ptr_emplaceIS4_S5_EEEERKNS0_IT_EE
-------- W _ZNSt3__29allocatorINS_4pairINS_17basic_string_viewIcNS_11char_traitsIcEEEENS_4__fs10filesystem12PathPartKindEEEE10deallocateEPS9_m
-------- W _ZNSt3__29allocatorINS_4pairINS_17basic_string_viewIcNS_11char_traitsIcEEEENS_4__fs10filesystem12PathPartKindEEEE7destroyEPS9_
-------- W _ZNSt3__29allocatorINS_4pairINS_17basic_string_viewIcNS_11char_traitsIcEEEENS_4__fs10filesystem12PathPartKindEEEE8allocateEmPKv
-------- W _ZNSt3__29allocatorINS_4pairINS_17basic_string_viewIcNS_11char_traitsIcEEEENS_4__fs10filesystem12PathPartKindEEEE9constructIS9_JRS5_RS8_EEEvPT_DpOT0_
-------- W _ZNSt3__29allocatorINS_4pairINS_17basic_string_viewIcNS_11char_traitsIcEEEENS_4__fs10filesystem12PathPartKindEEEEC2Ev
-------- W _ZNSt3__29allocatorIPNS_4__fs10filesystem12__dir_streamEE10deallocateEPS4_m
-------- W _ZNSt3__29allocatorIPNS_4__fs10filesystem12__dir_streamEE7destroyEPS4_
-------- W _ZNSt3__29allocatorIPNS_4__fs10filesystem12__dir_streamEE8allocateEmPKv
-------- W _ZNSt3__29allocatorIPNS_4__fs10filesystem12__dir_streamEE9constructIS4_JRKS4_EEEvPT_DpOT0_
-------- W _ZNSt3__29allocatorIPNS_4__fs10filesystem12__dir_streamEE9constructIS4_JS4_EEEvPT_DpOT0_
-------- W _ZNSt3__29allocatorIPNS_4__fs10filesystem12__dir_streamEEC2Ev
-------- W _ZNSt3__29allocatorIcE10deallocateEPcm
-------- W _ZNSt3__29allocatorIcE8allocateEmPKv
-------- W _ZNSt3__29allocatorIcEC2Ev
-------- W _ZNSt3__29allocatorIwE10deallocateEPwm
-------- W _ZNSt3__29allocatorIwE8allocateEmPKv
-------- W _ZNSt3__29allocatorIwEC2Ev
-------- W _ZNSt3__29basic_iosIcNS_11char_traitsIcEEE10exceptionsEj
-------- W _ZNSt3__29basic_iosIcNS_11char_traitsIcEEE3tieEPNS_13basic_ostreamIcS2_EE
-------- W _ZNSt3__29basic_iosIcNS_11char_traitsIcEEE4initEPNS_15basic_streambufIcS2_EE
-------- W _ZNSt3__29basic_iosIcNS_11char_traitsIcEEE5clearEj
-------- W _ZNSt3__29basic_iosIcNS_11char_traitsIcEEE7copyfmtERKS3_
-------- W _ZNSt3__29basic_iosIcNS_11char_traitsIcEEE8setstateEj
-------- W _ZNSt3__29basic_iosIcNS_11char_traitsIcEEEC2Ev
-------- W _ZNSt3__29basic_iosIcNS_11char_traitsIcEEED0Ev
-------- W _ZNSt3__29basic_iosIcNS_11char_traitsIcEEED1Ev
-------- W _ZNSt3__29basic_iosIcNS_11char_traitsIcEEED2Ev
-------- W _ZNSt3__29basic_iosIwNS_11char_traitsIwEEE10exceptionsEj
-------- W _ZNSt3__29basic_iosIwNS_11char_traitsIwEEE3tieEPNS_13basic_ostreamIwS2_EE
-------- W _ZNSt3__29basic_iosIwNS_11char_traitsIwEEE4initEPNS_15basic_streambufIwS2_EE
-------- W _ZNSt3__29basic_iosIwNS_11char_traitsIwEEE5clearEj
-------- W _ZNSt3__29basic_iosIwNS_11char_traitsIwEEE7copyfmtERKS3_
-------- W _ZNSt3__29basic_iosIwNS_11char_traitsIwEEE8setstateEj
-------- W _ZNSt3__29basic_iosIwNS_11char_traitsIwEEEC2Ev
-------- W _ZNSt3__29basic_iosIwNS_11char_traitsIwEEED0Ev
-------- W _ZNSt3__29basic_iosIwNS_11char_traitsIwEEED1Ev
-------- W _ZNSt3__29basic_iosIwNS_11char_traitsIwEEED2Ev
-------- W _ZNSt3__29has_facetINS_7codecvtIcc11__mbstate_tEEEEbRKNS_6localeE
-------- W _ZNSt3__29iter_swapIPcS1_EEvT_T0_
-------- W _ZNSt3__29iter_swapIPjS1_EEvT_T0_
-------- W _ZNSt3__29iter_swapIPwS1_EEvT_T0_
-------- W _ZNSt3__29money_getIcNS_19istreambuf_iteratorIcNS_11char_traitsIcEEEEE2idE
-------- W _ZNSt3__29money_getIcNS_19istreambuf_iteratorIcNS_11char_traitsIcEEEEE8__do_getERS4_S4_bRKNS_6localeEjRjRbRKNS_5ctypeIcEERNS_10unique_ptrIcPFvPvEEERPcSM_
-------- W _ZNSt3__29money_getIcNS_19istreambuf_iteratorIcNS_11char_traitsIcEEEEEC2Em
-------- W _ZNSt3__29money_getIcNS_19istreambuf_iteratorIcNS_11char_traitsIcEEEEED0Ev
-------- W _ZNSt3__29money_getIwNS_19istreambuf_iteratorIwNS_11char_traitsIwEEEEE2idE
-------- W _ZNSt3__29money_getIwNS_19istreambuf_iteratorIwNS_11char_traitsIwEEEEE8__do_getERS4_S4_bRKNS_6localeEjRjRbRKNS_5ctypeIwEERNS_10unique_ptrIwPFvPvEEERPwSM_
-------- W _ZNSt3__29money_getIwNS_19istreambuf_iteratorIwNS_11char_traitsIwEEEEEC2Em
-------- W _ZNSt3__29money_getIwNS_19istreambuf_iteratorIwNS_11char_traitsIwEEEEED0Ev
-------- W _ZNSt3__29money_putIcNS_19ostreambuf_iteratorIcNS_11char_traitsIcEEEEE2idE
-------- W _ZNSt3__29money_putIcNS_19ostreambuf_iteratorIcNS_11char_traitsIcEEEEEC2Em
-------- W _ZNSt3__29money_putIcNS_19ostreambuf_iteratorIcNS_11char_traitsIcEEEEED0Ev
-------- W _ZNSt3__29money_putIwNS_19ostreambuf_iteratorIwNS_11char_traitsIwEEEEE2idE
-------- W _ZNSt3__29money_putIwNS_19ostreambuf_iteratorIwNS_11char_traitsIwEEEEEC2Em
-------- W _ZNSt3__29money_putIwNS_19ostreambuf_iteratorIwNS_11char_traitsIwEEEEED0Ev
-------- T _ZNSt3__29strstreamD0Ev
-------- T _ZNSt3__29strstreamD1Ev
-------- T _ZNSt3__29strstreamD2Ev
-------- T _ZNSt3__29to_stringEd
-------- T _ZNSt3__29to_stringEe
-------- T _ZNSt3__29to_stringEf
-------- T _ZNSt3__29to_stringEi
-------- T _ZNSt3__29to_stringEj
-------- T _ZNSt3__29to_stringEl
-------- T _ZNSt3__29to_stringEm
-------- T _ZNSt3__29to_stringEx
-------- T _ZNSt3__29to_stringEy
-------- W _ZNSt3__29use_facetINS_10moneypunctIcLb0EEEEERKT_RKNS_6localeE
-------- W _ZNSt3__29use_facetINS_10moneypunctIcLb1EEEEERKT_RKNS_6localeE
-------- W _ZNSt3__29use_facetINS_10moneypunctIwLb0EEEEERKT_RKNS_6localeE
-------- W _ZNSt3__29use_facetINS_10moneypunctIwLb1EEEEERKT_RKNS_6localeE
-------- W _ZNSt3__29use_facetINS_5ctypeIcEEEERKT_RKNS_6localeE
-------- W _ZNSt3__29use_facetINS_5ctypeIwEEEERKT_RKNS_6localeE
-------- W _ZNSt3__29use_facetINS_7codecvtIcc11__mbstate_tEEEERKT_RKNS_6localeE
-------- W _ZNSt3__29use_facetINS_7codecvtIwc11__mbstate_tEEEERKT_RKNS_6localeE
-------- W _ZNSt3__29use_facetINS_7num_getIcNS_19istreambuf_iteratorIcNS_11char_traitsIcEEEEEEEERKT_RKNS_6localeE
-------- W _ZNSt3__29use_facetINS_7num_getIwNS_19istreambuf_iteratorIwNS_11char_traitsIwEEEEEEEERKT_RKNS_6localeE
-------- W _ZNSt3__29use_facetINS_7num_putIcNS_19ostreambuf_iteratorIcNS_11char_traitsIcEEEEEEEERKT_RKNS_6localeE
-------- W _ZNSt3__29use_facetINS_7num_putIwNS_19ostreambuf_iteratorIwNS_11char_traitsIwEEEEEEEERKT_RKNS_6localeE
-------- W _ZNSt3__29use_facetINS_8numpunctIcEEEERKT_RKNS_6localeE
-------- W _ZNSt3__29use_facetINS_8numpunctIwEEEERKT_RKNS_6localeE
-------- W _ZNSt3__2eqERKNS_10error_codeERKNS_15error_conditionE
-------- W _ZNSt3__2eqERKNS_15error_conditionES2_
-------- W _ZNSt3__2eqERKNS_16__deque_iteratorINS_4__fs10filesystem12__dir_streamEPS3_RS3_PS4_lLl0EEES9_
-------- W _ZNSt3__2eqI11__mbstate_tEEbRKNS_4fposIT_EES6_
-------- W _ZNSt3__2eqINS_4__fs10filesystem12__dir_streamES3_EEbRKNS_10shared_ptrIT_EERKNS4_IT0_EE
-------- W _ZNSt3__2eqINS_9allocatorIcEEEEbRKNS_12basic_stringIcNS_11char_traitsIcEET_EES9_
-------- W _ZNSt3__2eqIPKcPcEEbRKNS_11__wrap_iterIT_EERKNS4_IT0_EE
-------- W _ZNSt3__2eqIPKcS2_EEbRKNS_11__wrap_iterIT_EERKNS3_IT0_EE
-------- W _ZNSt3__2eqIPKwPwEEbRKNS_11__wrap_iterIT_EERKNS4_IT0_EE
-------- W _ZNSt3__2eqIPKwS2_EEbRKNS_11__wrap_iterIT_EERKNS3_IT0_EE
-------- W _ZNSt3__2eqIPNS_17basic_string_viewIcNS_11char_traitsIcEEEES5_EEbRKNS_11__wrap_iterIT_EERKNS6_IT0_EE
-------- W _ZNSt3__2eqIPNS_4pairINS_17basic_string_viewIcNS_11char_traitsIcEEEENS_4__fs10filesystem12PathPartKindEEESA_EEbRKNS_11__wrap_iterIT_EERKNSB_IT0_EE
-------- W _ZNSt3__2eqIPNS_4pairIPNS_18condition_variableEPNS_5mutexEEES7_EEbRKNS_11__wrap_iterIT_EERKNS8_IT0_EE
-------- W _ZNSt3__2eqIPPNS_17__assoc_sub_stateES3_EEbRKNS_11__wrap_iterIT_EERKNS4_IT0_EE
-------- W _ZNSt3__2eqIPcS1_EEbRKNS_11__wrap_iterIT_EERKNS2_IT0_EE
-------- W _ZNSt3__2eqIPwS1_EEbRKNS_11__wrap_iterIT_EERKNS2_IT0_EE
-------- W _ZNSt3__2eqIcNS_11char_traitsIcEEEEbNS_17basic_string_viewIT_T0_EENS_11common_typeIJS6_EE4typeE
-------- W _ZNSt3__2eqIcNS_11char_traitsIcEEEEbNS_17basic_string_viewIT_T0_EES6_
-------- W _ZNSt3__2eqIcNS_11char_traitsIcEEEEbRKNS_19istreambuf_iteratorIT_T0_EES8_
-------- W _ZNSt3__2eqIcNS_11char_traitsIcEENS_9allocatorIcEEEEbRKNS_12basic_stringIT_T0_T1_EEPKS6_
-------- W _ZNSt3__2eqIcPFvPvEEEbRKNS_10unique_ptrIT_T0_EEDn
-------- W _ZNSt3__2eqIwNS_11char_traitsIwEEEEbRKNS_19istreambuf_iteratorIT_T0_EES8_
-------- W _ZNSt3__2eqIwPFvPvEEEbRKNS_10unique_ptrIT_T0_EEDn
-------- W _ZNSt3__2miIPKcPcEEDTmicldtfp_4baseEcldtfp0_4baseEERKNS_11__wrap_iterIT_EERKNS5_IT0_EE
-------- W _ZNSt3__2miIPKwPwEEDTmicldtfp_4baseEcldtfp0_4baseEERKNS_11__wrap_iterIT_EERKNS5_IT0_EE
-------- W _ZNSt3__2miIPcS1_EEDTmicldtfp_4baseEcldtfp0_4baseEERKNS_11__wrap_iterIT_EERKNS3_IT0_EE
-------- W _ZNSt3__2miIPwS1_EEDTmicldtfp_4baseEcldtfp0_4baseEERKNS_11__wrap_iterIT_EERKNS3_IT0_EE
-------- W _ZNSt3__2neERKNS_16__deque_iteratorINS_4__fs10filesystem12__dir_streamEPS3_RS3_PS4_lLl0EEES9_
-------- W _ZNSt3__2neINS_11__wrap_iterIPNS_17basic_string_viewIcNS_11char_traitsIcEEEEEES7_EEbRKNS_16reverse_iteratorIT_EERKNS8_IT0_EE
-------- W _ZNSt3__2neIPKcEEbRKNS_11__wrap_iterIT_EES7_
-------- W _ZNSt3__2neIPKcPcEEbRKNS_11__wrap_iterIT_EERKNS4_IT0_EE
-------- W _ZNSt3__2neIPKwEEbRKNS_11__wrap_iterIT_EES7_
-------- W _ZNSt3__2neIPKwPwEEbRKNS_11__wrap_iterIT_EERKNS4_IT0_EE
-------- W _ZNSt3__2neIPNS_17basic_string_viewIcNS_11char_traitsIcEEEEEEbRKNS_11__wrap_iterIT_EESA_
-------- W _ZNSt3__2neIPNS_4pairINS_17basic_string_viewIcNS_11char_traitsIcEEEENS_4__fs10filesystem12PathPartKindEEEEEbRKNS_11__wrap_iterIT_EESF_
-------- W _ZNSt3__2neIPNS_4pairIPNS_18condition_variableEPNS_5mutexEEEEEbRKNS_11__wrap_iterIT_EESC_
-------- W _ZNSt3__2neIPPNS_17__assoc_sub_stateEEEbRKNS_11__wrap_iterIT_EES8_
-------- W _ZNSt3__2neIPPNS_4__fs10filesystem12__dir_streamES5_EEbRKNS_13move_iteratorIT_EERKNS6_IT0_EE
-------- W _ZNSt3__2neIPcEEbRKNS_11__wrap_iterIT_EES6_
-------- W _ZNSt3__2neIPwEEbRKNS_11__wrap_iterIT_EES6_
-------- W _ZNSt3__2neIcNS_11char_traitsIcEEEEbNS_17basic_string_viewIT_T0_EENS_11common_typeIJS6_EE4typeE
-------- W _ZNSt3__2neIcNS_11char_traitsIcEEEEbNS_17basic_string_viewIT_T0_EES6_
-------- W _ZNSt3__2neIcNS_11char_traitsIcEEEEbRKNS_19istreambuf_iteratorIT_T0_EES8_
-------- W _ZNSt3__2neIcNS_11char_traitsIcEENS_9allocatorIcEEEEbRKNS_12basic_stringIT_T0_T1_EEPKS6_
-------- W _ZNSt3__2neIwNS_11char_traitsIwEEEEbRKNS_19istreambuf_iteratorIT_T0_EES8_
-------- W _ZNSt3__2plIcNS_11char_traitsIcEENS_9allocatorIcEEEENS_12basic_stringIT_T0_T1_EEOS9_PKS6_
-------- W _ZNSt3__2plIcNS_11char_traitsIcEENS_9allocatorIcEEEENS_12basic_stringIT_T0_T1_EEOS9_SA_
-------- W _ZNSt3__2plIcNS_11char_traitsIcEENS_9allocatorIcEEEENS_12basic_stringIT_T0_T1_EEPKS6_OS9_
-------- W _ZNSt3__2plIcNS_11char_traitsIcEENS_9allocatorIcEEEENS_12basic_stringIT_T0_T1_EEPKS6_RKS9_
-------- W _ZNSt3__2plIcNS_11char_traitsIcEENS_9allocatorIcEEEENS_12basic_stringIT_T0_T1_EERKS9_PKS6_
-------- W _ZNSt9exceptionC2Ev
-------- T _ZSt17__throw_bad_allocv
-------- T _ZSt17current_exceptionv
-------- T _ZSt17rethrow_exceptionSt13exception_ptr
-------- T _ZSt18uncaught_exceptionv
-------- T _ZSt19uncaught_exceptionsv
-------- D _ZSt7nothrow
-------- W _ZSteqRKSt13exception_ptrS1_
-------- W _ZStneRKSt13exception_ptrS1_
-------- D _ZTCNSt3__210istrstreamE0_NS_13basic_istreamIcNS_11char_traitsIcEEEE
-------- D _ZTCNSt3__210ostrstreamE0_NS_13basic_ostreamIcNS_11char_traitsIcEEEE
-------- W _ZTCNSt3__214basic_ifstreamIcNS_11char_traitsIcEEEE0_NS_13basic_istreamIcS2_EE
-------- W _ZTCNSt3__214basic_iostreamIcNS_11char_traitsIcEEEE0_NS_13basic_istreamIcS2_EE
-------- W _ZTCNSt3__214basic_iostreamIcNS_11char_traitsIcEEEE8_NS_13basic_ostreamIcS2_EE
-------- W _ZTCNSt3__214basic_ofstreamIcNS_11char_traitsIcEEEE0_NS_13basic_ostreamIcS2_EE
-------- D _ZTCNSt3__29strstreamE0_NS_13basic_istreamIcNS_11char_traitsIcEEEE
-------- D _ZTCNSt3__29strstreamE0_NS_14basic_iostreamIcNS_11char_traitsIcEEEE
-------- D _ZTCNSt3__29strstreamE8_NS_13basic_ostreamIcNS_11char_traitsIcEEEE
-------- D _ZTINSt12experimental15fundamentals_v112bad_any_castE
-------- W _ZTINSt12experimental15fundamentals_v13pmr15memory_resourceE
-------- W _ZTINSt12experimental15fundamentals_v13pmr26__null_memory_resource_impE
-------- W _ZTINSt12experimental15fundamentals_v13pmr32__new_delete_memory_resource_impE
-------- D _ZTINSt12experimental19bad_optional_accessE
-------- W _ZTINSt3__210__stdinbufIcEE
-------- W _ZTINSt3__210__stdinbufIwEE
-------- W _ZTINSt3__210__time_getE
-------- W _ZTINSt3__210__time_putE
-------- W _ZTINSt3__210ctype_baseE
-------- D _ZTINSt3__210istrstreamE
-------- W _ZTINSt3__210money_baseE
-------- W _ZTINSt3__210moneypunctIcLb0EEE
-------- W _ZTINSt3__210moneypunctIcLb1EEE
-------- W _ZTINSt3__210moneypunctIwLb0EEE
-------- W _ZTINSt3__210moneypunctIwLb1EEE
-------- D _ZTINSt3__210ostrstreamE
-------- W _ZTINSt3__211__money_getIcEE
-------- W _ZTINSt3__211__money_getIwEE
-------- W _ZTINSt3__211__money_putIcEE
-------- W _ZTINSt3__211__money_putIwEE
-------- W _ZTINSt3__211__stdoutbufIcEE
-------- W _ZTINSt3__211__stdoutbufIwEE
-------- D _ZTINSt3__211regex_errorE
-------- D _ZTINSt3__212__do_messageE
-------- D _ZTINSt3__212bad_weak_ptrE
-------- W _ZTINSt3__212codecvt_baseE
-------- D _ZTINSt3__212ctype_bynameIcEE
-------- D _ZTINSt3__212ctype_bynameIwEE
-------- D _ZTINSt3__212future_errorE
-------- D _ZTINSt3__212strstreambufE
-------- D _ZTINSt3__212system_errorE
-------- W _ZTINSt3__213basic_filebufIcNS_11char_traitsIcEEEE
-------- W _ZTINSt3__213basic_istreamIcNS_11char_traitsIcEEEE
-------- W _ZTINSt3__213basic_istreamIwNS_11char_traitsIwEEEE
-------- W _ZTINSt3__213basic_ostreamIcNS_11char_traitsIcEEEE
-------- W _ZTINSt3__213basic_ostreamIwNS_11char_traitsIwEEEE
-------- W _ZTINSt3__213messages_baseE
-------- D _ZTINSt3__214__codecvt_utf8IDiEE
-------- D _ZTINSt3__214__codecvt_utf8IDsEE
-------- D _ZTINSt3__214__codecvt_utf8IwEE
-------- W _ZTINSt3__214__num_get_baseE
-------- W _ZTINSt3__214__num_put_baseE
-------- D _ZTINSt3__214__shared_countE
-------- W _ZTINSt3__214basic_ifstreamIcNS_11char_traitsIcEEEE
-------- W _ZTINSt3__214basic_iostreamIcNS_11char_traitsIcEEEE
-------- W _ZTINSt3__214basic_ofstreamIcNS_11char_traitsIcEEEE
-------- W _ZTINSt3__214codecvt_bynameIDic11__mbstate_tEE
-------- W _ZTINSt3__214codecvt_bynameIDsc11__mbstate_tEE
-------- W _ZTINSt3__214codecvt_bynameIcc11__mbstate_tEE
-------- W _ZTINSt3__214codecvt_bynameIwc11__mbstate_tEE
-------- D _ZTINSt3__214collate_bynameIcEE
-------- D _ZTINSt3__214collate_bynameIwEE
-------- D _ZTINSt3__214error_categoryE
-------- D _ZTINSt3__215__codecvt_utf16IDiLb0EEE
-------- D _ZTINSt3__215__codecvt_utf16IDiLb1EEE
-------- D _ZTINSt3__215__codecvt_utf16IDsLb0EEE
-------- D _ZTINSt3__215__codecvt_utf16IDsLb1EEE
-------- D _ZTINSt3__215__codecvt_utf16IwLb0EEE
-------- D _ZTINSt3__215__codecvt_utf16IwLb1EEE
-------- W _ZTINSt3__215__time_get_tempIcEE
-------- W _ZTINSt3__215__time_get_tempIwEE
-------- W _ZTINSt3__215basic_streambufIcNS_11char_traitsIcEEEE
-------- W _ZTINSt3__215basic_streambufIwNS_11char_traitsIwEEEE
-------- W _ZTINSt3__215messages_bynameIcEE
-------- W _ZTINSt3__215messages_bynameIwEE
-------- D _ZTINSt3__215numpunct_bynameIcEE
-------- D _ZTINSt3__215numpunct_bynameIwEE
-------- W _ZTINSt3__215time_get_bynameIcNS_19istreambuf_iteratorIcNS_11char_traitsIcEEEEEE
-------- W _ZTINSt3__215time_get_bynameIwNS_19istreambuf_iteratorIwNS_11char_traitsIwEEEEEE
-------- W _ZTINSt3__215time_put_bynameIcNS_19ostreambuf_iteratorIcNS_11char_traitsIcEEEEEE
-------- W _ZTINSt3__215time_put_bynameIwNS_19ostreambuf_iteratorIwNS_11char_traitsIwEEEEEE
-------- D _ZTINSt3__216__narrow_to_utf8ILm16EEE
-------- D _ZTINSt3__216__narrow_to_utf8ILm32EEE
-------- D _ZTINSt3__217__assoc_sub_stateE
-------- D _ZTINSt3__217__widen_from_utf8ILm16EEE
-------- D _ZTINSt3__217__widen_from_utf8ILm32EEE
-------- D _ZTINSt3__217bad_function_callE
-------- W _ZTINSt3__217moneypunct_bynameIcLb0EEE
-------- W _ZTINSt3__217moneypunct_bynameIcLb1EEE
-------- W _ZTINSt3__217moneypunct_bynameIwLb0EEE
-------- W _ZTINSt3__217moneypunct_bynameIwLb1EEE
-------- W _ZTINSt3__218__time_get_storageIcEE
-------- W _ZTINSt3__218__time_get_storageIwEE
-------- D _ZTINSt3__219__iostream_categoryE
-------- D _ZTINSt3__219__shared_weak_countE
-------- D _ZTINSt3__220__codecvt_utf8_utf16IDiEE
-------- D _ZTINSt3__220__codecvt_utf8_utf16IDsEE
-------- D _ZTINSt3__220__codecvt_utf8_utf16IwEE
-------- W _ZTINSt3__220__shared_ptr_emplaceINS_4__fs10filesystem12__dir_streamENS_9allocatorIS3_EEEE
-------- W _ZTINSt3__220__shared_ptr_emplaceINS_4__fs10filesystem28recursive_directory_iterator12__shared_impENS_9allocatorIS4_EEEE
-------- W _ZTINSt3__220__time_get_c_storageIcEE
-------- W _ZTINSt3__220__time_get_c_storageIwEE
-------- D _ZTINSt3__223__future_error_categoryE
-------- D _ZTINSt3__223__system_error_categoryE
-------- D _ZTINSt3__224__generic_error_categoryE
-------- D _ZTINSt3__224__libcpp_debug_exceptionE
-------- D _ZTINSt3__24__fs10filesystem16filesystem_errorE
-------- D _ZTINSt3__25ctypeIcEE
-------- D _ZTINSt3__25ctypeIwEE
-------- D _ZTINSt3__26locale5__impE
-------- D _ZTINSt3__26locale5facetE
-------- D _ZTINSt3__27codecvtIDic11__mbstate_tEE
-------- D _ZTINSt3__27codecvtIDsc11__mbstate_tEE
-------- D _ZTINSt3__27codecvtIcc11__mbstate_tEE
-------- D _ZTINSt3__27codecvtIwc11__mbstate_tEE
-------- W _ZTINSt3__27collateIcEE
-------- W _ZTINSt3__27collateIwEE
-------- W _ZTINSt3__27num_getIcNS_19istreambuf_iteratorIcNS_11char_traitsIcEEEEEE
-------- W _ZTINSt3__27num_getIwNS_19istreambuf_iteratorIwNS_11char_traitsIwEEEEEE
-------- W _ZTINSt3__27num_putIcNS_19ostreambuf_iteratorIcNS_11char_traitsIcEEEEEE
-------- W _ZTINSt3__27num_putIwNS_19ostreambuf_iteratorIwNS_11char_traitsIwEEEEEE
-------- D _ZTINSt3__28__c_nodeE
-------- D _ZTINSt3__28ios_base7failureE
-------- D _ZTINSt3__28ios_baseE
-------- W _ZTINSt3__28messagesIcEE
-------- W _ZTINSt3__28messagesIwEE
-------- D _ZTINSt3__28numpunctIcEE
-------- D _ZTINSt3__28numpunctIwEE
-------- W _ZTINSt3__28time_getIcNS_19istreambuf_iteratorIcNS_11char_traitsIcEEEEEE
-------- W _ZTINSt3__28time_getIwNS_19istreambuf_iteratorIwNS_11char_traitsIwEEEEEE
-------- W _ZTINSt3__28time_putIcNS_19ostreambuf_iteratorIcNS_11char_traitsIcEEEEEE
-------- W _ZTINSt3__28time_putIwNS_19ostreambuf_iteratorIwNS_11char_traitsIwEEEEEE
-------- W _ZTINSt3__29__num_getIcEE
-------- W _ZTINSt3__29__num_getIwEE
-------- W _ZTINSt3__29__num_putIcEE
-------- W _ZTINSt3__29__num_putIwEE
-------- W _ZTINSt3__29basic_iosIcNS_11char_traitsIcEEEE
-------- W _ZTINSt3__29basic_iosIwNS_11char_traitsIwEEEE
-------- W _ZTINSt3__29money_getIcNS_19istreambuf_iteratorIcNS_11char_traitsIcEEEEEE
-------- W _ZTINSt3__29money_getIwNS_19istreambuf_iteratorIwNS_11char_traitsIwEEEEEE
-------- W _ZTINSt3__29money_putIcNS_19ostreambuf_iteratorIcNS_11char_traitsIcEEEEEE
-------- W _ZTINSt3__29money_putIwNS_19ostreambuf_iteratorIwNS_11char_traitsIwEEEEEE
-------- D _ZTINSt3__29strstreamE
-------- W _ZTINSt3__29time_baseE
-------- D _ZTISt12bad_any_cast
-------- D _ZTISt16nested_exception
-------- D _ZTISt18bad_variant_access
-------- D _ZTISt19bad_optional_access
-------- D _ZTSNSt12experimental15fundamentals_v112bad_any_castE
-------- W _ZTSNSt12experimental15fundamentals_v13pmr15memory_resourceE
-------- W _ZTSNSt12experimental15fundamentals_v13pmr26__null_memory_resource_impE
-------- W _ZTSNSt12experimental15fundamentals_v13pmr32__new_delete_memory_resource_impE
-------- D _ZTSNSt12experimental19bad_optional_accessE
-------- W _ZTSNSt3__210__stdinbufIcEE
-------- W _ZTSNSt3__210__stdinbufIwEE
-------- W _ZTSNSt3__210__time_getE
-------- W _ZTSNSt3__210__time_putE
-------- W _ZTSNSt3__210ctype_baseE
-------- D _ZTSNSt3__210istrstreamE
-------- W _ZTSNSt3__210money_baseE
-------- W _ZTSNSt3__210moneypunctIcLb0EEE
-------- W _ZTSNSt3__210moneypunctIcLb1EEE
-------- W _ZTSNSt3__210moneypunctIwLb0EEE
-------- W _ZTSNSt3__210moneypunctIwLb1EEE
-------- D _ZTSNSt3__210ostrstreamE
-------- W _ZTSNSt3__211__money_getIcEE
-------- W _ZTSNSt3__211__money_getIwEE
-------- W _ZTSNSt3__211__money_putIcEE
-------- W _ZTSNSt3__211__money_putIwEE
-------- W _ZTSNSt3__211__stdoutbufIcEE
-------- W _ZTSNSt3__211__stdoutbufIwEE
-------- D _ZTSNSt3__211regex_errorE
-------- D _ZTSNSt3__212__do_messageE
-------- D _ZTSNSt3__212bad_weak_ptrE
-------- W _ZTSNSt3__212codecvt_baseE
-------- D _ZTSNSt3__212ctype_bynameIcEE
-------- D _ZTSNSt3__212ctype_bynameIwEE
-------- D _ZTSNSt3__212future_errorE
-------- D _ZTSNSt3__212strstreambufE
-------- D _ZTSNSt3__212system_errorE
-------- W _ZTSNSt3__213basic_filebufIcNS_11char_traitsIcEEEE
-------- W _ZTSNSt3__213basic_istreamIcNS_11char_traitsIcEEEE
-------- W _ZTSNSt3__213basic_istreamIwNS_11char_traitsIwEEEE
-------- W _ZTSNSt3__213basic_ostreamIcNS_11char_traitsIcEEEE
-------- W _ZTSNSt3__213basic_ostreamIwNS_11char_traitsIwEEEE
-------- W _ZTSNSt3__213messages_baseE
-------- D _ZTSNSt3__214__codecvt_utf8IDiEE
-------- D _ZTSNSt3__214__codecvt_utf8IDsEE
-------- D _ZTSNSt3__214__codecvt_utf8IwEE
-------- W _ZTSNSt3__214__num_get_baseE
-------- W _ZTSNSt3__214__num_put_baseE
-------- D _ZTSNSt3__214__shared_countE
-------- W _ZTSNSt3__214basic_ifstreamIcNS_11char_traitsIcEEEE
-------- W _ZTSNSt3__214basic_iostreamIcNS_11char_traitsIcEEEE
-------- W _ZTSNSt3__214basic_ofstreamIcNS_11char_traitsIcEEEE
-------- W _ZTSNSt3__214codecvt_bynameIDic11__mbstate_tEE
-------- W _ZTSNSt3__214codecvt_bynameIDsc11__mbstate_tEE
-------- W _ZTSNSt3__214codecvt_bynameIcc11__mbstate_tEE
-------- W _ZTSNSt3__214codecvt_bynameIwc11__mbstate_tEE
-------- D _ZTSNSt3__214collate_bynameIcEE
-------- D _ZTSNSt3__214collate_bynameIwEE
-------- D _ZTSNSt3__214error_categoryE
-------- D _ZTSNSt3__215__codecvt_utf16IDiLb0EEE
-------- D _ZTSNSt3__215__codecvt_utf16IDiLb1EEE
-------- D _ZTSNSt3__215__codecvt_utf16IDsLb0EEE
-------- D _ZTSNSt3__215__codecvt_utf16IDsLb1EEE
-------- D _ZTSNSt3__215__codecvt_utf16IwLb0EEE
-------- D _ZTSNSt3__215__codecvt_utf16IwLb1EEE
-------- W _ZTSNSt3__215__time_get_tempIcEE
-------- W _ZTSNSt3__215__time_get_tempIwEE
-------- W _ZTSNSt3__215basic_streambufIcNS_11char_traitsIcEEEE
-------- W _ZTSNSt3__215basic_streambufIwNS_11char_traitsIwEEEE
-------- W _ZTSNSt3__215messages_bynameIcEE
-------- W _ZTSNSt3__215messages_bynameIwEE
-------- D _ZTSNSt3__215numpunct_bynameIcEE
-------- D _ZTSNSt3__215numpunct_bynameIwEE
-------- W _ZTSNSt3__215time_get_bynameIcNS_19istreambuf_iteratorIcNS_11char_traitsIcEEEEEE
-------- W _ZTSNSt3__215time_get_bynameIwNS_19istreambuf_iteratorIwNS_11char_traitsIwEEEEEE
-------- W _ZTSNSt3__215time_put_bynameIcNS_19ostreambuf_iteratorIcNS_11char_traitsIcEEEEEE
-------- W _ZTSNSt3__215time_put_bynameIwNS_19ostreambuf_iteratorIwNS_11char_traitsIwEEEEEE
-------- D _ZTSNSt3__216__narrow_to_utf8ILm16EEE
-------- D _ZTSNSt3__216__narrow_to_utf8ILm32EEE
-------- D _ZTSNSt3__217__assoc_sub_stateE
-------- D _ZTSNSt3__217__widen_from_utf8ILm16EEE
-------- D _ZTSNSt3__217__widen_from_utf8ILm32EEE
-------- D _ZTSNSt3__217bad_function_callE
-------- W _ZTSNSt3__217moneypunct_bynameIcLb0EEE
-------- W _ZTSNSt3__217moneypunct_bynameIcLb1EEE
-------- W _ZTSNSt3__217moneypunct_bynameIwLb0EEE
-------- W _ZTSNSt3__217moneypunct_bynameIwLb1EEE
-------- W _ZTSNSt3__218__time_get_storageIcEE
-------- W _ZTSNSt3__218__time_get_storageIwEE
-------- D _ZTSNSt3__219__iostream_categoryE
-------- D _ZTSNSt3__219__shared_weak_countE
-------- D _ZTSNSt3__220__codecvt_utf8_utf16IDiEE
-------- D _ZTSNSt3__220__codecvt_utf8_utf16IDsEE
-------- D _ZTSNSt3__220__codecvt_utf8_utf16IwEE
-------- W _ZTSNSt3__220__shared_ptr_emplaceINS_4__fs10filesystem12__dir_streamENS_9allocatorIS3_EEEE
-------- W _ZTSNSt3__220__shared_ptr_emplaceINS_4__fs10filesystem28recursive_directory_iterator12__shared_impENS_9allocatorIS4_EEEE
-------- W _ZTSNSt3__220__time_get_c_storageIcEE
-------- W _ZTSNSt3__220__time_get_c_storageIwEE
-------- D _ZTSNSt3__223__future_error_categoryE
-------- D _ZTSNSt3__223__system_error_categoryE
-------- D _ZTSNSt3__224__generic_error_categoryE
-------- D _ZTSNSt3__224__libcpp_debug_exceptionE
-------- D _ZTSNSt3__24__fs10filesystem16filesystem_errorE
-------- D _ZTSNSt3__25ctypeIcEE
-------- D _ZTSNSt3__25ctypeIwEE
-------- D _ZTSNSt3__26locale5__impE
-------- D _ZTSNSt3__26locale5facetE
-------- D _ZTSNSt3__27codecvtIDic11__mbstate_tEE
-------- D _ZTSNSt3__27codecvtIDsc11__mbstate_tEE
-------- D _ZTSNSt3__27codecvtIcc11__mbstate_tEE
-------- D _ZTSNSt3__27codecvtIwc11__mbstate_tEE
-------- W _ZTSNSt3__27collateIcEE
-------- W _ZTSNSt3__27collateIwEE
-------- W _ZTSNSt3__27num_getIcNS_19istreambuf_iteratorIcNS_11char_traitsIcEEEEEE
-------- W _ZTSNSt3__27num_getIwNS_19istreambuf_iteratorIwNS_11char_traitsIwEEEEEE
-------- W _ZTSNSt3__27num_putIcNS_19ostreambuf_iteratorIcNS_11char_traitsIcEEEEEE
-------- W _ZTSNSt3__27num_putIwNS_19ostreambuf_iteratorIwNS_11char_traitsIwEEEEEE
-------- D _ZTSNSt3__28__c_nodeE
-------- D _ZTSNSt3__28ios_base7failureE
-------- D _ZTSNSt3__28ios_baseE
-------- W _ZTSNSt3__28messagesIcEE
-------- W _ZTSNSt3__28messagesIwEE
-------- D _ZTSNSt3__28numpunctIcEE
-------- D _ZTSNSt3__28numpunctIwEE
-------- W _ZTSNSt3__28time_getIcNS_19istreambuf_iteratorIcNS_11char_traitsIcEEEEEE
-------- W _ZTSNSt3__28time_getIwNS_19istreambuf_iteratorIwNS_11char_traitsIwEEEEEE
-------- W _ZTSNSt3__28time_putIcNS_19ostreambuf_iteratorIcNS_11char_traitsIcEEEEEE
-------- W _ZTSNSt3__28time_putIwNS_19ostreambuf_iteratorIwNS_11char_traitsIwEEEEEE
-------- W _ZTSNSt3__29__num_getIcEE
-------- W _ZTSNSt3__29__num_getIwEE
-------- W _ZTSNSt3__29__num_putIcEE
-------- W _ZTSNSt3__29__num_putIwEE
-------- W _ZTSNSt3__29basic_iosIcNS_11char_traitsIcEEEE
-------- W _ZTSNSt3__29basic_iosIwNS_11char_traitsIwEEEE
-------- W _ZTSNSt3__29money_getIcNS_19istreambuf_iteratorIcNS_11char_traitsIcEEEEEE
-------- W _ZTSNSt3__29money_getIwNS_19istreambuf_iteratorIwNS_11char_traitsIwEEEEEE
-------- W _ZTSNSt3__29money_putIcNS_19ostreambuf_iteratorIcNS_11char_traitsIcEEEEEE
-------- W _ZTSNSt3__29money_putIwNS_19ostreambuf_iteratorIwNS_11char_traitsIwEEEEEE
-------- D _ZTSNSt3__29strstreamE
-------- W _ZTSNSt3__29time_baseE
-------- D _ZTSSt12bad_any_cast
-------- D _ZTSSt16nested_exception
-------- D _ZTSSt18bad_variant_access
-------- D _ZTSSt19bad_optional_access
-------- D _ZTTNSt3__210istrstreamE
-------- D _ZTTNSt3__210ostrstreamE
-------- W _ZTTNSt3__213basic_istreamIcNS_11char_traitsIcEEEE
-------- W _ZTTNSt3__213basic_istreamIwNS_11char_traitsIwEEEE
-------- W _ZTTNSt3__213basic_ostreamIcNS_11char_traitsIcEEEE
-------- W _ZTTNSt3__213basic_ostreamIwNS_11char_traitsIwEEEE
-------- W _ZTTNSt3__214basic_ifstreamIcNS_11char_traitsIcEEEE
-------- W _ZTTNSt3__214basic_iostreamIcNS_11char_traitsIcEEEE
-------- W _ZTTNSt3__214basic_ofstreamIcNS_11char_traitsIcEEEE
-------- D _ZTTNSt3__29strstreamE
-------- D _ZTVNSt12experimental15fundamentals_v112bad_any_castE
-------- W _ZTVNSt12experimental15fundamentals_v13pmr15memory_resourceE
-------- W _ZTVNSt12experimental15fundamentals_v13pmr26__null_memory_resource_impE
-------- W _ZTVNSt12experimental15fundamentals_v13pmr32__new_delete_memory_resource_impE
-------- D _ZTVNSt12experimental19bad_optional_accessE
-------- W _ZTVNSt3__210__stdinbufIcEE
-------- W _ZTVNSt3__210__stdinbufIwEE
-------- D _ZTVNSt3__210istrstreamE
-------- W _ZTVNSt3__210moneypunctIcLb0EEE
-------- W _ZTVNSt3__210moneypunctIcLb1EEE
-------- W _ZTVNSt3__210moneypunctIwLb0EEE
-------- W _ZTVNSt3__210moneypunctIwLb1EEE
-------- D _ZTVNSt3__210ostrstreamE
-------- W _ZTVNSt3__211__stdoutbufIcEE
-------- W _ZTVNSt3__211__stdoutbufIwEE
-------- D _ZTVNSt3__211regex_errorE
-------- D _ZTVNSt3__212__do_messageE
-------- D _ZTVNSt3__212bad_weak_ptrE
-------- D _ZTVNSt3__212ctype_bynameIcEE
-------- D _ZTVNSt3__212ctype_bynameIwEE
-------- D _ZTVNSt3__212future_errorE
-------- D _ZTVNSt3__212strstreambufE
-------- D _ZTVNSt3__212system_errorE
-------- W _ZTVNSt3__213basic_filebufIcNS_11char_traitsIcEEEE
-------- W _ZTVNSt3__213basic_istreamIcNS_11char_traitsIcEEEE
-------- W _ZTVNSt3__213basic_istreamIwNS_11char_traitsIwEEEE
-------- W _ZTVNSt3__213basic_ostreamIcNS_11char_traitsIcEEEE
-------- W _ZTVNSt3__213basic_ostreamIwNS_11char_traitsIwEEEE
-------- D _ZTVNSt3__214__codecvt_utf8IDiEE
-------- D _ZTVNSt3__214__codecvt_utf8IDsEE
-------- D _ZTVNSt3__214__codecvt_utf8IwEE
-------- D _ZTVNSt3__214__shared_countE
-------- W _ZTVNSt3__214basic_ifstreamIcNS_11char_traitsIcEEEE
-------- W _ZTVNSt3__214basic_iostreamIcNS_11char_traitsIcEEEE
-------- W _ZTVNSt3__214basic_ofstreamIcNS_11char_traitsIcEEEE
-------- W _ZTVNSt3__214codecvt_bynameIDic11__mbstate_tEE
-------- W _ZTVNSt3__214codecvt_bynameIDsc11__mbstate_tEE
-------- W _ZTVNSt3__214codecvt_bynameIcc11__mbstate_tEE
-------- W _ZTVNSt3__214codecvt_bynameIwc11__mbstate_tEE
-------- D _ZTVNSt3__214collate_bynameIcEE
-------- D _ZTVNSt3__214collate_bynameIwEE
-------- D _ZTVNSt3__214error_categoryE
-------- D _ZTVNSt3__215__codecvt_utf16IDiLb0EEE
-------- D _ZTVNSt3__215__codecvt_utf16IDiLb1EEE
-------- D _ZTVNSt3__215__codecvt_utf16IDsLb0EEE
-------- D _ZTVNSt3__215__codecvt_utf16IDsLb1EEE
-------- D _ZTVNSt3__215__codecvt_utf16IwLb0EEE
-------- D _ZTVNSt3__215__codecvt_utf16IwLb1EEE
-------- W _ZTVNSt3__215__time_get_tempIcEE
-------- W _ZTVNSt3__215__time_get_tempIwEE
-------- W _ZTVNSt3__215basic_streambufIcNS_11char_traitsIcEEEE
-------- W _ZTVNSt3__215basic_streambufIwNS_11char_traitsIwEEEE
-------- W _ZTVNSt3__215messages_bynameIcEE
-------- W _ZTVNSt3__215messages_bynameIwEE
-------- D _ZTVNSt3__215numpunct_bynameIcEE
-------- D _ZTVNSt3__215numpunct_bynameIwEE
-------- W _ZTVNSt3__215time_get_bynameIcNS_19istreambuf_iteratorIcNS_11char_traitsIcEEEEEE
-------- W _ZTVNSt3__215time_get_bynameIwNS_19istreambuf_iteratorIwNS_11char_traitsIwEEEEEE
-------- W _ZTVNSt3__215time_put_bynameIcNS_19ostreambuf_iteratorIcNS_11char_traitsIcEEEEEE
-------- W _ZTVNSt3__215time_put_bynameIwNS_19ostreambuf_iteratorIwNS_11char_traitsIwEEEEEE
-------- D _ZTVNSt3__216__narrow_to_utf8ILm16EEE
-------- D _ZTVNSt3__216__narrow_to_utf8ILm32EEE
-------- D _ZTVNSt3__217__assoc_sub_stateE
-------- D _ZTVNSt3__217__widen_from_utf8ILm16EEE
-------- D _ZTVNSt3__217__widen_from_utf8ILm32EEE
-------- D _ZTVNSt3__217bad_function_callE
-------- W _ZTVNSt3__217moneypunct_bynameIcLb0EEE
-------- W _ZTVNSt3__217moneypunct_bynameIcLb1EEE
-------- W _ZTVNSt3__217moneypunct_bynameIwLb0EEE
-------- W _ZTVNSt3__217moneypunct_bynameIwLb1EEE
-------- D _ZTVNSt3__219__iostream_categoryE
-------- D _ZTVNSt3__219__shared_weak_countE
-------- D _ZTVNSt3__220__codecvt_utf8_utf16IDiEE
-------- D _ZTVNSt3__220__codecvt_utf8_utf16IDsEE
-------- D _ZTVNSt3__220__codecvt_utf8_utf16IwEE
-------- W _ZTVNSt3__220__shared_ptr_emplaceINS_4__fs10filesystem12__dir_streamENS_9allocatorIS3_EEEE
-------- W _ZTVNSt3__220__shared_ptr_emplaceINS_4__fs10filesystem28recursive_directory_iterator12__shared_impENS_9allocatorIS4_EEEE
-------- W _ZTVNSt3__220__time_get_c_storageIcEE
-------- W _ZTVNSt3__220__time_get_c_storageIwEE
-------- D _ZTVNSt3__223__future_error_categoryE
-------- D _ZTVNSt3__223__system_error_categoryE
-------- D _ZTVNSt3__224__generic_error_categoryE
-------- D _ZTVNSt3__224__libcpp_debug_exceptionE
-------- D _ZTVNSt3__24__fs10filesystem16filesystem_errorE
-------- D _ZTVNSt3__25ctypeIcEE
-------- D _ZTVNSt3__25ctypeIwEE
-------- D _ZTVNSt3__26locale5__impE
-------- D _ZTVNSt3__26locale5facetE
-------- D _ZTVNSt3__27codecvtIDic11__mbstate_tEE
-------- D _ZTVNSt3__27codecvtIDsc11__mbstate_tEE
-------- D _ZTVNSt3__27codecvtIcc11__mbstate_tEE
-------- D _ZTVNSt3__27codecvtIwc11__mbstate_tEE
-------- W _ZTVNSt3__27collateIcEE
-------- W _ZTVNSt3__27collateIwEE
-------- W _ZTVNSt3__27num_getIcNS_19istreambuf_iteratorIcNS_11char_traitsIcEEEEEE
-------- W _ZTVNSt3__27num_getIwNS_19istreambuf_iteratorIwNS_11char_traitsIwEEEEEE
-------- W _ZTVNSt3__27num_putIcNS_19ostreambuf_iteratorIcNS_11char_traitsIcEEEEEE
-------- W _ZTVNSt3__27num_putIwNS_19ostreambuf_iteratorIwNS_11char_traitsIwEEEEEE
-------- D _ZTVNSt3__28__c_nodeE
-------- D _ZTVNSt3__28ios_base7failureE
-------- D _ZTVNSt3__28ios_baseE
-------- W _ZTVNSt3__28messagesIcEE
-------- W _ZTVNSt3__28messagesIwEE
-------- D _ZTVNSt3__28numpunctIcEE
-------- D _ZTVNSt3__28numpunctIwEE
-------- W _ZTVNSt3__28time_getIcNS_19istreambuf_iteratorIcNS_11char_traitsIcEEEEEE
-------- W _ZTVNSt3__28time_getIwNS_19istreambuf_iteratorIwNS_11char_traitsIwEEEEEE
-------- W _ZTVNSt3__28time_putIcNS_19ostreambuf_iteratorIcNS_11char_traitsIcEEEEEE
-------- W _ZTVNSt3__28time_putIwNS_19ostreambuf_iteratorIwNS_11char_traitsIwEEEEEE
-------- W _ZTVNSt3__29basic_iosIcNS_11char_traitsIcEEEE
-------- W _ZTVNSt3__29basic_iosIwNS_11char_traitsIwEEEE
-------- W _ZTVNSt3__29money_getIcNS_19istreambuf_iteratorIcNS_11char_traitsIcEEEEEE
-------- W _ZTVNSt3__29money_getIwNS_19istreambuf_iteratorIwNS_11char_traitsIwEEEEEE
-------- W _ZTVNSt3__29money_putIcNS_19ostreambuf_iteratorIcNS_11char_traitsIcEEEEEE
-------- W _ZTVNSt3__29money_putIwNS_19ostreambuf_iteratorIwNS_11char_traitsIwEEEEEE
-------- D _ZTVNSt3__29strstreamE
-------- D _ZTVSt12bad_any_cast
-------- D _ZTVSt16nested_exception
-------- D _ZTVSt18bad_variant_access
-------- D _ZTVSt19bad_optional_access
-------- W _ZThn8_NKSt3__215time_get_bynameIcNS_19istreambuf_iteratorIcNS_11char_traitsIcEEEEE3__XEv
-------- W _ZThn8_NKSt3__215time_get_bynameIcNS_19istreambuf_iteratorIcNS_11char_traitsIcEEEEE3__cEv
-------- W _ZThn8_NKSt3__215time_get_bynameIcNS_19istreambuf_iteratorIcNS_11char_traitsIcEEEEE3__rEv
-------- W _ZThn8_NKSt3__215time_get_bynameIcNS_19istreambuf_iteratorIcNS_11char_traitsIcEEEEE3__xEv
-------- W _ZThn8_NKSt3__215time_get_bynameIcNS_19istreambuf_iteratorIcNS_11char_traitsIcEEEEE7__am_pmEv
-------- W _ZThn8_NKSt3__215time_get_bynameIcNS_19istreambuf_iteratorIcNS_11char_traitsIcEEEEE7__weeksEv
-------- W _ZThn8_NKSt3__215time_get_bynameIcNS_19istreambuf_iteratorIcNS_11char_traitsIcEEEEE8__monthsEv
-------- W _ZThn8_NKSt3__215time_get_bynameIwNS_19istreambuf_iteratorIwNS_11char_traitsIwEEEEE3__XEv
-------- W _ZThn8_NKSt3__215time_get_bynameIwNS_19istreambuf_iteratorIwNS_11char_traitsIwEEEEE3__cEv
-------- W _ZThn8_NKSt3__215time_get_bynameIwNS_19istreambuf_iteratorIwNS_11char_traitsIwEEEEE3__rEv
-------- W _ZThn8_NKSt3__215time_get_bynameIwNS_19istreambuf_iteratorIwNS_11char_traitsIwEEEEE3__xEv
-------- W _ZThn8_NKSt3__215time_get_bynameIwNS_19istreambuf_iteratorIwNS_11char_traitsIwEEEEE7__am_pmEv
-------- W _ZThn8_NKSt3__215time_get_bynameIwNS_19istreambuf_iteratorIwNS_11char_traitsIwEEEEE7__weeksEv
-------- W _ZThn8_NKSt3__215time_get_bynameIwNS_19istreambuf_iteratorIwNS_11char_traitsIwEEEEE8__monthsEv
-------- W _ZThn8_NSt3__214basic_iostreamIcNS_11char_traitsIcEEED0Ev
-------- W _ZThn8_NSt3__214basic_iostreamIcNS_11char_traitsIcEEED1Ev
-------- T _ZThn8_NSt3__29strstreamD0Ev
-------- T _ZThn8_NSt3__29strstreamD1Ev
-------- T _ZTv0_n12_NSt3__210istrstreamD0Ev
-------- T _ZTv0_n12_NSt3__210istrstreamD1Ev
-------- T _ZTv0_n12_NSt3__210ostrstreamD0Ev
-------- T _ZTv0_n12_NSt3__210ostrstreamD1Ev
-------- W _ZTv0_n12_NSt3__213basic_istreamIcNS_11char_traitsIcEEED0Ev
-------- W _ZTv0_n12_NSt3__213basic_istreamIcNS_11char_traitsIcEEED1Ev
-------- W _ZTv0_n12_NSt3__213basic_istreamIwNS_11char_traitsIwEEED0Ev
-------- W _ZTv0_n12_NSt3__213basic_istreamIwNS_11char_traitsIwEEED1Ev
-------- W _ZTv0_n12_NSt3__213basic_ostreamIcNS_11char_traitsIcEEED0Ev
-------- W _ZTv0_n12_NSt3__213basic_ostreamIcNS_11char_traitsIcEEED1Ev
-------- W _ZTv0_n12_NSt3__213basic_ostreamIwNS_11char_traitsIwEEED0Ev
-------- W _ZTv0_n12_NSt3__213basic_ostreamIwNS_11char_traitsIwEEED1Ev
-------- W _ZTv0_n12_NSt3__214basic_ifstreamIcNS_11char_traitsIcEEED0Ev
-------- W _ZTv0_n12_NSt3__214basic_ifstreamIcNS_11char_traitsIcEEED1Ev
-------- W _ZTv0_n12_NSt3__214basic_iostreamIcNS_11char_traitsIcEEED0Ev
-------- W _ZTv0_n12_NSt3__214basic_iostreamIcNS_11char_traitsIcEEED1Ev
-------- W _ZTv0_n12_NSt3__214basic_ofstreamIcNS_11char_traitsIcEEED0Ev
-------- W _ZTv0_n12_NSt3__214basic_ofstreamIcNS_11char_traitsIcEEED1Ev
-------- T _ZTv0_n12_NSt3__29strstreamD0Ev
-------- T _ZTv0_n12_NSt3__29strstreamD1Ev
-------- W _ZZNSt3__24__fs10filesystem15directory_entry20__create_iter_resultENS1_9file_typeEENKUlvE_clEv
-------- W _ZdaPv
-------- W _ZdaPvRKSt9nothrow_t
-------- W _ZdaPvSt11align_val_t
-------- W _ZdaPvSt11align_val_tRKSt9nothrow_t
-------- W _ZdaPvm
-------- W _ZdaPvmSt11align_val_t
-------- W _ZdlPv
-------- W _ZdlPvRKSt9nothrow_t
-------- W _ZdlPvSt11align_val_t
-------- W _ZdlPvSt11align_val_tRKSt9nothrow_t
-------- W _ZdlPvm
-------- W _ZdlPvmSt11align_val_t
-------- W _Znam
-------- W _ZnamRKSt9nothrow_t
-------- W _ZnamSt11align_val_t
-------- W _ZnamSt11align_val_tRKSt9nothrow_t
-------- W _Znwm
-------- W _ZnwmRKSt9nothrow_t
-------- W _ZnwmSt11align_val_t
-------- W _ZnwmSt11align_val_tRKSt9nothrow_t
-------- T __muloti4
