         T _ZN10__cxxabiv116__enum_type_infoD0Ev
         T _ZN10__cxxabiv116__enum_type_infoD1Ev
         T _ZN10__cxxabiv116__enum_type_infoD2Ev
         T _ZN10__cxxabiv116__shim_type_infoD0Ev
         T _ZN10__cxxabiv116__shim_type_infoD1Ev
         T _ZN10__cxxabiv116__shim_type_infoD2Ev
         T _ZN10__cxxabiv117__array_type_infoD0Ev
         T _ZN10__cxxabiv117__array_type_infoD1Ev
         T _ZN10__cxxabiv117__array_type_infoD2Ev
         T _ZN10__cxxabiv117__class_type_infoD0Ev
         T _ZN10__cxxabiv117__class_type_infoD1Ev
         T _ZN10__cxxabiv117__class_type_infoD2Ev
         T _ZN10__cxxabiv117__pbase_type_infoD0Ev
         T _ZN10__cxxabiv117__pbase_type_infoD1Ev
         T _ZN10__cxxabiv117__pbase_type_infoD2Ev
         T _ZN10__cxxabiv119__pointer_type_infoD0Ev
         T _ZN10__cxxabiv119__pointer_type_infoD1Ev
         T _ZN10__cxxabiv119__pointer_type_infoD2Ev
         T _ZN10__cxxabiv120__function_type_infoD0Ev
         T _ZN10__cxxabiv120__function_type_infoD1Ev
         T _ZN10__cxxabiv120__function_type_infoD2Ev
         T _ZN10__cxxabiv120__si_class_type_infoD0Ev
         T _ZN10__cxxabiv120__si_class_type_infoD1Ev
         T _ZN10__cxxabiv120__si_class_type_infoD2Ev
         T _ZN10__cxxabiv121__vmi_class_type_infoD0Ev
         T _ZN10__cxxabiv121__vmi_class_type_infoD1Ev
         T _ZN10__cxxabiv121__vmi_class_type_infoD2Ev
         T _ZN10__cxxabiv123__fundamental_type_infoD0Ev
         T _ZN10__cxxabiv123__fundamental_type_infoD1Ev
         T _ZN10__cxxabiv123__fundamental_type_infoD2Ev
         T _ZN10__cxxabiv129__pointer_to_member_type_infoD0Ev
         T _ZN10__cxxabiv129__pointer_to_member_type_infoD1Ev
         T _ZN10__cxxabiv129__pointer_to_member_type_infoD2Ev
         C _ZN10__cxxabiv18is_equalEPKSt9type_infoS2_b
         T _ZNK10__cxxabiv116__enum_type_info9can_catchEPKNS_16__shim_type_infoERPv
         T _ZNK10__cxxabiv116__shim_type_info5noop1Ev
         T _ZNK10__cxxabiv116__shim_type_info5noop2Ev
         T _ZNK10__cxxabiv117__array_type_info9can_catchEPKNS_16__shim_type_infoERPv
         T _ZNK10__cxxabiv117__class_type_info16search_above_dstEPNS_19__dynamic_cast_infoEPKvS4_ib
         T _ZNK10__cxxabiv117__class_type_info16search_below_dstEPNS_19__dynamic_cast_infoEPKvib
         T _ZNK10__cxxabiv117__class_type_info24process_found_base_classEPNS_19__dynamic_cast_infoEPvi
         T _ZNK10__cxxabiv117__class_type_info27has_unambiguous_public_baseEPNS_19__dynamic_cast_infoEPvi
         T _ZNK10__cxxabiv117__class_type_info29process_static_type_above_dstEPNS_19__dynamic_cast_infoEPKvS4_i
         T _ZNK10__cxxabiv117__class_type_info29process_static_type_below_dstEPNS_19__dynamic_cast_infoEPKvi
         T _ZNK10__cxxabiv117__class_type_info9can_catchEPKNS_16__shim_type_infoERPv
         T _ZNK10__cxxabiv117__pbase_type_info9can_catchEPKNS_16__shim_type_infoERPv
         T _ZNK10__cxxabiv119__pointer_type_info9can_catchEPKNS_16__shim_type_infoERPv
         T _ZNK10__cxxabiv120__function_type_info9can_catchEPKNS_16__shim_type_infoERPv
         T _ZNK10__cxxabiv120__si_class_type_info16search_above_dstEPNS_19__dynamic_cast_infoEPKvS4_ib
         T _ZNK10__cxxabiv120__si_class_type_info16search_below_dstEPNS_19__dynamic_cast_infoEPKvib
         T _ZNK10__cxxabiv120__si_class_type_info27has_unambiguous_public_baseEPNS_19__dynamic_cast_infoEPvi
         T _ZNK10__cxxabiv121__vmi_class_type_info16search_above_dstEPNS_19__dynamic_cast_infoEPKvS4_ib
         T _ZNK10__cxxabiv121__vmi_class_type_info16search_below_dstEPNS_19__dynamic_cast_infoEPKvib
         T _ZNK10__cxxabiv121__vmi_class_type_info27has_unambiguous_public_baseEPNS_19__dynamic_cast_infoEPvi
         T _ZNK10__cxxabiv122__base_class_type_info16search_above_dstEPNS_19__dynamic_cast_infoEPKvS4_ib
         T _ZNK10__cxxabiv122__base_class_type_info16search_below_dstEPNS_19__dynamic_cast_infoEPKvib
         T _ZNK10__cxxabiv122__base_class_type_info27has_unambiguous_public_baseEPNS_19__dynamic_cast_infoEPvi
         T _ZNK10__cxxabiv123__fundamental_type_info9can_catchEPKNS_16__shim_type_infoERPv
         T _ZNKSt10bad_typeid4whatEv
         T _ZNKSt8bad_cast4whatEv
         T _ZNSt10bad_typeidC1Ev
         T _ZNSt10bad_typeidC2Ev
         T _ZNSt10bad_typeidD0Ev
         T _ZNSt10bad_typeidD1Ev
         T _ZNSt10bad_typeidD2Ev
         T _ZNSt8bad_castC1Ev
         T _ZNSt8bad_castC2Ev
         T _ZNSt8bad_castD0Ev
         T _ZNSt8bad_castD1Ev
         T _ZNSt8bad_castD2Ev
         T _ZNSt9type_infoD0Ev
         T _ZNSt9type_infoD1Ev
         T _ZNSt9type_infoD2Ev
         D _ZTIDi
         D _ZTIDn
         D _ZTIDs
         D _ZTIN10__cxxabiv116__enum_type_infoE
         D _ZTIN10__cxxabiv116__shim_type_infoE
         D _ZTIN10__cxxabiv117__array_type_infoE
         D _ZTIN10__cxxabiv117__class_type_infoE
         D _ZTIN10__cxxabiv117__pbase_type_infoE
         D _ZTIN10__cxxabiv119__pointer_type_infoE
         D _ZTIN10__cxxabiv120__function_type_infoE
         D _ZTIN10__cxxabiv120__si_class_type_infoE
         D _ZTIN10__cxxabiv121__vmi_class_type_infoE
         D _ZTIN10__cxxabiv123__fundamental_type_infoE
         D _ZTIN10__cxxabiv129__pointer_to_member_type_infoE
         D _ZTIPDi
         D _ZTIPDn
         D _ZTIPDs
         D _ZTIPKDi
         D _ZTIPKDn
         D _ZTIPKDs
         D _ZTIPKa
         D _ZTIPKb
         D _ZTIPKc
         D _ZTIPKd
         D _ZTIPKe
         D _ZTIPKf
         D _ZTIPKh
         D _ZTIPKi
         D _ZTIPKj
         D _ZTIPKl
         D _ZTIPKm
         D _ZTIPKs
         D _ZTIPKt
         D _ZTIPKv
         D _ZTIPKw
         D _ZTIPKx
         D _ZTIPKy
         D _ZTIPa
         D _ZTIPb
         D _ZTIPc
         D _ZTIPd
         D _ZTIPe
         D _ZTIPf
         D _ZTIPh
         D _ZTIPi
         D _ZTIPj
         D _ZTIPl
         D _ZTIPm
         D _ZTIPs
         D _ZTIPt
         D _ZTIPv
         D _ZTIPw
         D _ZTIPx
         D _ZTIPy
         D _ZTISt10bad_typeid
         D _ZTISt8bad_cast
         D _ZTISt9type_info
         D _ZTIa
         D _ZTIb
         D _ZTIc
         D _ZTId
         D _ZTIe
         D _ZTIf
         D _ZTIh
         D _ZTIi
         D _ZTIj
         D _ZTIl
         D _ZTIm
         D _ZTIs
         D _ZTIt
         D _ZTIv
         D _ZTIw
         D _ZTIx
         D _ZTIy
         D _ZTSDi
         D _ZTSDn
         D _ZTSDs
         D _ZTSN10__cxxabiv116__enum_type_infoE
         D _ZTSN10__cxxabiv116__shim_type_infoE
         D _ZTSN10__cxxabiv117__array_type_infoE
         D _ZTSN10__cxxabiv117__class_type_infoE
         D _ZTSN10__cxxabiv117__pbase_type_infoE
         D _ZTSN10__cxxabiv119__pointer_type_infoE
         D _ZTSN10__cxxabiv120__function_type_infoE
         D _ZTSN10__cxxabiv120__si_class_type_infoE
         D _ZTSN10__cxxabiv121__vmi_class_type_infoE
         D _ZTSN10__cxxabiv123__fundamental_type_infoE
         D _ZTSN10__cxxabiv129__pointer_to_member_type_infoE
         D _ZTSPDi
         D _ZTSPDn
         D _ZTSPDs
         D _ZTSPKDi
         D _ZTSPKDn
         D _ZTSPKDs
         D _ZTSPKa
         D _ZTSPKb
         D _ZTSPKc
         D _ZTSPKd
         D _ZTSPKe
         D _ZTSPKf
         D _ZTSPKh
         D _ZTSPKi
         D _ZTSPKj
         D _ZTSPKl
         D _ZTSPKm
         D _ZTSPKs
         D _ZTSPKt
         D _ZTSPKv
         D _ZTSPKw
         D _ZTSPKx
         D _ZTSPKy
         D _ZTSPa
         D _ZTSPb
         D _ZTSPc
         D _ZTSPd
         D _ZTSPe
         D _ZTSPf
         D _ZTSPh
         D _ZTSPi
         D _ZTSPj
         D _ZTSPl
         D _ZTSPm
         D _ZTSPs
         D _ZTSPt
         D _ZTSPv
         D _ZTSPw
         D _ZTSPx
         D _ZTSPy
         D _ZTSSt10bad_typeid
         D _ZTSSt8bad_cast
         D _ZTSSt9type_info
         D _ZTSa
         D _ZTSb
         D _ZTSc
         D _ZTSd
         D _ZTSe
         D _ZTSf
         D _ZTSh
         D _ZTSi
         D _ZTSj
         D _ZTSl
         D _ZTSm
         D _ZTSs
         D _ZTSt
         D _ZTSv
         D _ZTSw
         D _ZTSx
         D _ZTSy
         D _ZTVN10__cxxabiv116__enum_type_infoE
         D _ZTVN10__cxxabiv116__shim_type_infoE
         D _ZTVN10__cxxabiv117__array_type_infoE
         D _ZTVN10__cxxabiv117__class_type_infoE
         D _ZTVN10__cxxabiv117__pbase_type_infoE
         D _ZTVN10__cxxabiv119__pointer_type_infoE
         D _ZTVN10__cxxabiv120__function_type_infoE
         D _ZTVN10__cxxabiv120__si_class_type_infoE
         D _ZTVN10__cxxabiv121__vmi_class_type_infoE
         D _ZTVN10__cxxabiv123__fundamental_type_infoE
         D _ZTVN10__cxxabiv129__pointer_to_member_type_infoE
         D _ZTVSt10bad_typeid
         D _ZTVSt8bad_cast
         D _ZTVSt9type_info
         T __dynamic_cast
